(lp0
(lp1
(dp2
S'history_in_weeks'
p3
I60
sS'end_weight'
p4
F1.0
sS'close_match_threshold'
p5
F0.29439799722421583
sS'start_weight'
p6
F0.9490559152402991
sS'over_power_threshold'
p7
F4.095168567650925
sS'over_power_extra'
p8
F0.18277029965376182
sS'close_match_trim'
p9
F0.28847593292299345
saF-926.6365363175513
aa(lp10
(dp11
g3
I117
sg4
F0.9884130766311214
sg5
F0.2604021270716752
sg6
F0.15314654824964635
sg7
F2.8042514280958164
sg8
F0.008094757338215698
sg9
F0.2554217911476425
saF-929.8443737146974
aa(lp12
(dp13
g3
I15
sg4
F0.5788363552924098
sg5
F0.4211395012246216
sg6
F0.5637165170254804
sg7
F3.695359732546856
sg8
F0.13174685690367124
sg9
F0.04955085526547048
saF-880.1625720493487
aa(lp14
(dp15
g3
I144
sg4
F0.7261283886756125
sg5
F0.13085038026339813
sg6
F0.014255108558067109
sg7
F3.1839879485498654
sg8
F0.027867407316219974
sg9
F0.3224933254872569
saF-845.1852883415276
aa(lp16
(dp17
g3
I133
sg4
F0.7058065432660163
sg5
F0.4408765340648763
sg6
F0.458585178482942
sg7
F1.9457479422812827
sg8
F0.06703483847175691
sg9
F0.13635373319674657
saF-747.2384153222342
aa(lp18
(dp19
g3
I123
sg4
F0.773550485848035
sg5
F0.31202450312029684
sg6
F0.2159740894407446
sg7
F2.1776983844055238
sg8
F0.028441242729873164
sg9
F0.23300447764724774
saF-946.4590145589002
aa(lp20
(dp21
g3
I46
sg4
F1.0
sg5
F0.19314690101402232
sg6
F0.6612598657212472
sg7
F1.0108763571483175
sg8
F0.1370103039973567
sg9
F0.05675087919516018
saF-990.0242296143972
aa(lp22
(dp23
g3
I47
sg4
F0.6309080353687786
sg5
F0.30706287317839687
sg6
F0.5333252150953113
sg7
F2.858387255085428
sg8
F0.04544106803526152
sg9
F0.13711700306144567
saF-907.1914009384831
aa(lp24
(dp25
g3
I16
sg4
F0.7033663445381415
sg5
F0.08157626544638863
sg6
F0.36152418992520574
sg7
F2.554219724990842
sg8
F0.06796477126607177
sg9
F0.32941665435863354
saF-617.0874670382123
aa(lp26
(dp27
g3
I13
sg4
F0.881240106104862
sg5
F0.05448329787830519
sg6
F0.7266265002261802
sg7
F1.9193594335347226
sg8
F0.11067093991501042
sg9
F0.0010866214648874272
saF-607.6837097801068
aa(lp28
(dp29
g3
I108
sg4
F1.0
sg5
F0.14972048090034934
sg6
F0.8807659433077115
sg7
F4.005928772570849
sg8
F0.06262385013318349
sg9
F0.14402977870033476
saF-801.9210898360936
aa(lp30
(dp31
g3
I20
sg4
F0.7673606777000322
sg5
F0.24466482705205844
sg6
F0.35947890663371185
sg7
F4.243814800320855
sg8
F0.16478701059385198
sg9
F0.27356799922591385
saF-714.7617813015714
aa(lp32
(dp33
g3
I51
sg4
F0.8435986328122614
sg5
F0.2833404780775163
sg6
F0.09762629882589036
sg7
F3.6125316972787425
sg8
F0.14581331902602435
sg9
F0.16153635725952578
saF-895.3907692609159
aa(lp34
(dp35
g3
I104
sg4
F0.912039567029575
sg5
F0.16959879587943566
sg6
F0.21042229981816118
sg7
F1.6913109651377976
sg8
F0.17294515992359705
sg9
F0.16359476768210515
saF-906.88580058476
aa(lp36
(dp37
g3
I88
sg4
F0.9527369482328248
sg5
F0.388485226576217
sg6
F0.0783814679670829
sg7
F4.35320899337597
sg8
F0.10313558071462142
sg9
F0.042807748519751866
saF-350.5105031660762
aa(lp38
(dp39
g3
I56
sg4
F0.5008097292908986
sg5
F0.4982549898187406
sg6
F0.07407623108220862
sg7
F1.7977498557297147
sg8
F0.08580702266993101
sg9
F0.13640215327500238
saF-953.6035983039812
aa(lp40
(dp41
g3
I112
sg4
F0.7587195552834358
sg5
F0.43479743451967884
sg6
F0.08673066620203396
sg7
F3.7968931944626694
sg8
F0.059674719604467845
sg9
F0.001725153118094669
saF-534.4186198571672
aa(lp42
(dp43
g3
I142
sg4
F0.905870929495312
sg5
F0.46982668849177683
sg6
F0.2127479336628133
sg7
F2.662242443329407
sg8
F0.0712814061539535
sg9
F0.015158674948943407
saF-208.4349504372192
aa(lp44
(dp45
g3
I44
sg4
F1.0
sg5
F0.2550219409372602
sg6
F0.8578086273959015
sg7
F4.957766754228401
sg8
F0.16047137045719387
sg9
F0.023453590844155547
saF-705.1383234879268
aa(lp46
(dp47
g3
I93
sg4
F0.7290606759607923
sg5
F0.13860085254688215
sg6
F0.020838801416800834
sg7
F3.7334895768169702
sg8
F0.019726136195230295
sg9
F0.3301926666212216
saF-988.0023215205792
aa(lp48
(dp49
g3
I82
sg4
F0.6885198550354312
sg5
F0.020835788891747697
sg6
F0.25753607046549243
sg7
F2.5000352545377247
sg8
F0.08237814360469992
sg9
F0.3706368413015098
saF-882.4011612741501
aa(lp50
(dp51
g3
I104
sg4
F0.8357749831093113
sg5
F0.48849818192349376
sg6
F0.5873304470452415
sg7
F3.9120039483801112
sg8
F0.0955472496247094
sg9
F0.30952960516796835
saF-987.4864628015326
aa(lp52
(dp53
g3
I78
sg4
F1.0
sg5
F0.17964813917814149
sg6
F0.8751834630892452
sg7
F1.2741958631029249
sg8
F0.16850489775374022
sg9
F0.17197647700114205
saF-965.1455271723967
aa(lp54
(dp55
g3
I46
sg4
F1.0
sg5
F0.20618577735915466
sg6
F0.6037886771750836
sg7
F3.794009669028551
sg8
F0.1017426129542747
sg9
F0.007548408718183675
saF-747.024343663096
aa(lp56
(dp57
g3
I113
sg4
F1.0
sg5
F0.303267113313818
sg6
F0.9712330760161703
sg7
F1.117859639036423
sg8
F0.18632526780758363
sg9
F0.22242919384886486
saF-990.1361373720929
aa(lp58
(dp59
g3
I56
sg4
F0.8462219264344191
sg5
F0.022486797322474827
sg6
F0.5170008806951938
sg7
F3.8850811350679053
sg8
F0.1553218564370387
sg9
F0.06570850758128262
saF-858.9629933542232
aa(lp60
(dp61
g3
I109
sg4
F0.5350716706696597
sg5
F0.07308531367507626
sg6
F0.09531047772096113
sg7
F3.629122507181492
sg8
F0.029086795911399267
sg9
F0.27429336943054805
saF-787.7750785532962
aa(lp62
(dp63
g3
I104
sg4
F0.7559877735674726
sg5
F0.019878300397297266
sg6
F0.7289571437725703
sg7
F3.9821044751760972
sg8
F0.1902938169562876
sg9
F0.01916552779380396
saF-507.73793809847433
aa(lp64
(dp65
g3
I114
sg4
F1.0
sg5
F0.40660624121555594
sg6
F0.5683611836396184
sg7
F1.8747627665687023
sg8
F0.022780250375511346
sg9
F0.031008439160247248
saF-457.8754008157439
aa(lp66
(dp67
g3
I23
sg4
F0.7369260550186286
sg5
F0.23091097281452855
sg6
F0.05702675156026349
sg7
F4.281639880702032
sg8
F0.1438620790523579
sg9
F0.30600670633120264
saF-876.5006068096827
aa(lp68
(dp69
g3
I47
sg4
F0.61627559800399
sg5
F0.41400323556127056
sg6
F0.5875690926937895
sg7
F1.1491177668662194
sg8
F0.12002421868333764
sg9
F0.2667420481772535
saF-990.0870650173376
aa(lp70
(dp71
g3
I115
sg4
F0.798319057508997
sg5
F0.29880846893174123
sg6
F0.3896333375552966
sg7
F2.1376813847733445
sg8
F0.009207815632271887
sg9
F0.2394567208387518
saF-963.437389891841
aa(lp72
(dp73
g3
I100
sg4
F0.5445865623415653
sg5
F0.1616757949655534
sg6
F0.30238421466870635
sg7
F1.1694381308090351
sg8
F0.15859602851842153
sg9
F0.34578085942596815
saF-990.3207545593958
aa(lp74
(dp75
g3
I23
sg4
F0.7049222854456152
sg5
F0.33437103905126037
sg6
F0.2278833989949235
sg7
F1.7482138043446755
sg8
F0.04583039947347561
sg9
F0.11725716274999787
saF-885.3748885688891
aa(lp76
(dp77
g3
I124
sg4
F0.553597713693508
sg5
F0.43545444972794567
sg6
F0.3724552102293216
sg7
F2.7475645723379762
sg8
F0.06309333930625201
sg9
F0.29079972416037725
saF-943.735567938322
aa(lp78
(dp79
g3
I94
sg4
F0.9442153407071008
sg5
F0.03381687057979216
sg6
F0.48579743393052943
sg7
F1.2342810232173171
sg8
F0.14565219127488988
sg9
F0.02220946218753488
saF-635.5415481781147
aa(lp80
(dp81
g3
I17
sg4
F0.8470718951500393
sg5
F0.4096025949325831
sg6
F0.410940064706231
sg7
F1.9438794448716612
sg8
F0.010972643140862881
sg9
F0.2756384923200654
saF-776.9846466709931
aa(lp82
(dp83
g3
I37
sg4
F0.9879264200262059
sg5
F0.21078343196067884
sg6
F0.8847945939149392
sg7
F2.7016397538602286
sg8
F0.06666782186771532
sg9
F0.1502935254142051
saF-910.5610135372681
aa(lp84
(dp85
g3
I46
sg4
F1.0
sg5
F0.2643857983586441
sg6
F0.7622238770181902
sg7
F2.9743929251757084
sg8
F0.037401051037388625
sg9
F0.022673676640099717
saF-635.5340401969606
aa(lp86
(dp87
g3
I118
sg4
F0.6292335688273109
sg5
F0.12408148020490956
sg6
F0.49625596135740246
sg7
F3.604693513717727
sg8
F0.10451761153871958
sg9
F0.3473140521128813
saF-845.5678923597856
aa(lp88
(dp89
g3
I53
sg4
F0.8738797053254064
sg5
F0.30986693282734046
sg6
F0.7673409594635576
sg7
F4.9750884444239025
sg8
F0.010973844857550687
sg9
F0.21070651349971717
saF-880.6831077534674
aa(lp90
(dp91
g3
I105
sg4
F0.7307655938645693
sg5
F0.337241852405573
sg6
F0.2943041177667167
sg7
F3.7919861213779766
sg8
F0.09623951463789882
sg9
F0.14892170637758437
saF-899.804906992828
aa(lp92
(dp93
g3
I61
sg4
F0.566947347884552
sg5
F0.4598409708364442
sg6
F0.5291464459572062
sg7
F3.9913995344679574
sg8
F0.034000225627416024
sg9
F0.02346765293438846
saF-563.8761159016562
aa(lp94
(dp95
g3
I112
sg4
F0.6186198909790674
sg5
F0.02843071876411618
sg6
F0.26612804553845215
sg7
F3.654858035532247
sg8
F0.06987820258692523
sg9
F0.0036332301103510823
saF-500.4130261284478
aa(lp96
(dp97
g3
I60
sg4
F1.0
sg5
F0.1772886781792702
sg6
F0.745170527121866
sg7
F3.6958952433601997
sg8
F0.03371629918635919
sg9
F0.34694595569945624
saF-987.7282195135218
aa(lp98
(dp99
g3
I25
sg4
F0.8135573611728949
sg5
F0.004384231381176662
sg6
F0.7091102293980498
sg7
F4.991163252552154
sg8
F0.09974222598271452
sg9
F0.3790312370932949
saF-614.632402594624
aa(lp100
(dp101
g3
I120
sg4
F0.7136978514396335
sg5
F0.394721203547816
sg6
F0.2965452867673283
sg7
F2.4004960894366096
sg8
F0.13393296696008908
sg9
F0.31220951976701433
saF-985.5864260969773
aa(lp102
(dp103
g3
I43
sg4
F0.9686457394062113
sg5
F0.17164429592810315
sg6
F0.3971539805375034
sg7
F3.1385194799641836
sg8
F0.19582845463375084
sg9
F0.1468766169490044
saF-886.8282086000753
aa(lp104
(dp105
g3
I122
sg4
F0.9222690714973276
sg5
F0.05797895822640614
sg6
F0.7026332599678304
sg7
F3.6478428044405726
sg8
F0.06124383017708823
sg9
F0.36132002355480036
saF-654.8525281885551
aa(lp106
(dp107
g3
I146
sg4
F1.0
sg5
F0.43062064890808677
sg6
F0.9978354877437113
sg7
F1.8780993534715227
sg8
F0.1677579898175533
sg9
F0.10740484084321365
saF-906.9767736068909
aa(lp108
(dp109
g3
I120
sg4
F0.717490606093099
sg5
F0.1980508528869266
sg6
F0.012828917973376597
sg7
F3.0325307629891403
sg8
F0.039527722543570266
sg9
F0.3469026677488903
saF-945.7014401213773
aa(lp110
(dp111
g3
I57
sg4
F0.953752839034971
sg5
F0.42625891864290116
sg6
F0.8263319128409294
sg7
F1.7224651528166837
sg8
F0.0672584311948499
sg9
F0.21983120936663936
saF-967.5899672247925
aa(lp112
(dp113
g3
I31
sg4
F1.0
sg5
F0.21061929335250007
sg6
F0.9461388180434822
sg7
F3.764725485874126
sg8
F0.10962863576876443
sg9
F0.10839971764019288
saF-711.857870888411
aa(lp114
(dp115
g3
I92
sg4
F0.9936524060540735
sg5
F0.4718445153156249
sg6
F0.7196144312338532
sg7
F2.900533880682903
sg8
F0.05093558027699927
sg9
F0.2323545489870843
saF-985.0437327011523
aa(lp116
(dp117
g3
I131
sg4
F0.7554949452939437
sg5
F0.1903218464750735
sg6
F0.009003792496815599
sg7
F3.2659977530667876
sg8
F0.12282290611596769
sg9
F0.3130022629753648
saF-875.9469234382598
aa(lp118
(dp119
g3
I15
sg4
F0.9891536343594272
sg5
F0.19642238036673237
sg6
F0.7291731536136409
sg7
F4.986856741528232
sg8
F0.09440244016750501
sg9
F0.10091203350227365
saF-507.0216319499332
aa(lp120
(dp121
g3
I65
sg4
F0.9364418875953748
sg5
F0.44895782886692515
sg6
F0.29420030226107663
sg7
F4.869425403135418
sg8
F0.12550693899326126
sg9
F0.10407873489923616
saF-942.7051393947019
aa(lp122
(dp123
g3
I45
sg4
F1.0
sg5
F0.011362219445766542
sg6
F0.921938045797194
sg7
F1.17107382331214
sg8
F0.17738254446630936
sg9
F0.39947656186110125
saF-984.9890561230653
aa(lp124
(dp125
g3
I120
sg4
F0.9911196975153864
sg5
F0.18254863538479627
sg6
F0.8901848412888576
sg7
F2.6676559900234245
sg8
F0.1551405659332915
sg9
F0.38676369953757345
saF-988.6004581738704
aa(lp126
(dp127
g3
I46
sg4
F1.0
sg5
F0.32804194224099653
sg6
F0.860609444196798
sg7
F3.457486852919149
sg8
F0.11844217130356263
sg9
F0.2759727259121433
saF-974.6031196663799
aa(lp128
(dp129
g3
I55
sg4
F0.7134369127859028
sg5
F0.20866246077601064
sg6
F0.5044450308417286
sg7
F4.875090615699771
sg8
F0.10376150946393602
sg9
F0.3581267394975223
saF-988.9288435065988
aa(lp130
(dp131
g3
I79
sg4
F0.886273618806336
sg5
F0.48837993395079055
sg6
F0.080843073679847
sg7
F1.7285245692917022
sg8
F0.08941927327121213
sg9
F0.13205306755239837
saF-950.6927173920601
aa(lp132
(dp133
g3
I121
sg4
F0.7622384606082911
sg5
F0.3076137888262986
sg6
F0.2535737889146362
sg7
F4.431802570047013
sg8
F0.01883514968036284
sg9
F0.10499263872833003
saF-923.9501950339591
aa(lp134
(dp135
g3
I49
sg4
F0.9695688530411049
sg5
F0.02599927973495464
sg6
F0.6935507585112359
sg7
F4.104609791685609
sg8
F0.10623920328540185
sg9
F0.30192517256951645
saF-449.1570017416583
aa(lp136
(dp137
g3
I55
sg4
F0.7236529922813497
sg5
F0.05704846675431702
sg6
F0.37770848738080387
sg7
F1.935694764053502
sg8
F0.17869510572795866
sg9
F0.04183873528094795
saF-862.8229166991626
aa(lp138
(dp139
g3
I139
sg4
F1.0
sg5
F0.2229085676133249
sg6
F0.6485859592385492
sg7
F3.32660765937522
sg8
F0.06606325834496365
sg9
F0.077871404000124
saF-824.6251881880866
aa(lp140
(dp141
g3
I50
sg4
F0.5406954794813199
sg5
F0.3506459744919395
sg6
F0.31768169747194663
sg7
F3.367573336531507
sg8
F0.06567618562517262
sg9
F0.11422650396875791
saF-875.7349903442448
aa(lp142
(dp143
g3
I48
sg4
F0.9087783440246311
sg5
F0.09365403130689842
sg6
F0.903841781930124
sg7
F3.2253400125310665
sg8
F0.047425514281951256
sg9
F0.18451360473276127
saF-947.8182143317431
aa(lp144
(dp145
g3
I69
sg4
F0.5781925793093143
sg5
F0.38096384977763265
sg6
F0.20471744086469412
sg7
F2.0022231574131037
sg8
F0.1678927559722064
sg9
F0.16076647338994887
saF-859.1897897165516
aa(lp146
(dp147
g3
I59
sg4
F0.9658163649007359
sg5
F0.4365146224802379
sg6
F0.3492798161538909
sg7
F2.3841258868372925
sg8
F0.11160674164561331
sg9
F0.20372872891931887
saF-898.8210240828862
aa(lp148
(dp149
g3
I90
sg4
F0.8348646568367231
sg5
F0.3223389205679297
sg6
F0.7608142148345363
sg7
F1.4101174070404676
sg8
F0.09805602155524505
sg9
F0.07250079864167591
saF-880.924479642739
aa(lp150
(dp151
g3
I80
sg4
F1.0
sg5
F0.18195232752301882
sg6
F0.9429021798436342
sg7
F4.424456655059073
sg8
F0.09565023466153683
sg9
F0.009921780789998459
saF-607.7108033024014
aa(lp152
(dp153
g3
I137
sg4
F0.6608062397815616
sg5
F0.3543574693587563
sg6
F0.05313160241066517
sg7
F1.7277899923024058
sg8
F0.032445585858479634
sg9
F0.3711189357061259
saF-988.2751863959749
aa(lp154
(dp155
g3
I138
sg4
F1.0
sg5
F0.21379098323168894
sg6
F0.8539145172588957
sg7
F3.155004257402766
sg8
F0.12202539370224737
sg9
F0.010580732328964705
saF-504.33004195689523
aa(lp156
(dp157
g3
I66
sg4
F1.0
sg5
F0.29333840520885457
sg6
F0.6701948402868975
sg7
F4.484394835333193
sg8
F0.018968989809416883
sg9
F0.31848999439980574
saF-945.7854891478221
aa(lp158
(dp159
g3
I75
sg4
F0.893631189823221
sg5
F0.10971435152496495
sg6
F0.32862643753042775
sg7
F4.448343989558947
sg8
F0.11656142701294964
sg9
F0.15807694543784342
saF-922.5978259801032
aa(lp160
(dp161
g3
I111
sg4
F0.6198401264375177
sg5
F0.038770551729573055
sg6
F0.27465673930286294
sg7
F1.7828836181896583
sg8
F0.1865486919092644
sg9
F0.05293971537532545
saF-661.0551926897106
aa(lp162
(dp163
g3
I114
sg4
F0.501584661055096
sg5
F0.21857927554547268
sg6
F0.3335373744021667
sg7
F1.932630490707406
sg8
F0.04151565256291843
sg9
F0.10573386008266046
saF-763.7571811201523
aa(lp164
(dp165
g3
I96
sg4
F0.6503454423359643
sg5
F0.23049102678202577
sg6
F0.6447516707616383
sg7
F3.500403611391659
sg8
F0.15244622566480573
sg9
F0.1407784858073575
saF-867.3246950992742
aa(lp166
(dp167
g3
I137
sg4
F0.99992012344233
sg5
F0.08270130950702803
sg6
F0.10703273476995223
sg7
F1.40492338819333
sg8
F0.1190217295253545
sg9
F0.08838704139470842
saF-749.5824267934481
aa(lp168
(dp169
g3
I103
sg4
F0.9103875536791721
sg5
F0.20766520551588336
sg6
F0.16848232100328642
sg7
F3.2884203307520052
sg8
F0.1466048857534209
sg9
F0.08703693614057646
saF-664.2424693209343
aa(lp170
(dp171
g3
I63
sg4
F0.525892960269575
sg5
F0.028965338897280313
sg6
F0.4981397683972869
sg7
F3.6065997382746127
sg8
F0.09135978212893961
sg9
F0.0008922135535969656
saF-578.3610252668826
aa(lp172
(dp173
g3
I46
sg4
F1.0
sg5
F0.0018983601880989132
sg6
F0.8485918473767113
sg7
F4.321913145061096
sg8
F0.05463251695526226
sg9
F0.3990795635906968
saF-727.7679596461451
aa(lp174
(dp175
g3
I94
sg4
F1.0
sg5
F0.10043789510110085
sg6
F0.9126064283029389
sg7
F1.253975825823951
sg8
F0.1510214491735994
sg9
F0.01104094997204399
saF-799.6895495654542
aa(lp176
(dp177
g3
I99
sg4
F0.6443894508755003
sg5
F0.40771590897151505
sg6
F0.07085196052873366
sg7
F1.1562544673367632
sg8
F0.14534562227877598
sg9
F0.08516577224073507
saF-907.4581785892175
aa(lp178
(dp179
g3
I32
sg4
F0.8287847302231581
sg5
F0.2817435149473172
sg6
F0.46074176854112514
sg7
F4.727390218116501
sg8
F0.18211234367399587
sg9
F0.01564976095855619
saF-527.5615351018497
aa(lp180
(dp181
g3
I125
sg4
F0.9214596900701849
sg5
F0.24992386953182527
sg6
F0.5864616234811248
sg7
F4.391188582151002
sg8
F0.005626544426449565
sg9
F0.1696142690874666
saF-876.5280725729976
aa(lp182
(dp183
g3
I96
sg4
F0.6580490857118776
sg5
F0.08963260768915343
sg6
F0.09667880553579877
sg7
F3.247928577461101
sg8
F0.17954952348509395
sg9
F0.14176431007012388
saF-916.5140382516049
aa(lp184
(dp185
g3
I125
sg4
F0.5162929583441251
sg5
F0.3504166692646478
sg6
F0.35241296442998926
sg7
F2.686384697174671
sg8
F0.05224466224707239
sg9
F0.3724027683290354
saF-988.4791307860485
aa(lp186
(dp187
g3
I64
sg4
F1.0
sg5
F0.05704610160590862
sg6
F0.576705039010657
sg7
F1.830830076414375
sg8
F0.14492497726585468
sg9
F0.1674381751045595
saF-785.078065179288
aa(lp188
(dp189
g3
I123
sg4
F0.6723157014179484
sg5
F0.10518045473612042
sg6
F0.47250108519969003
sg7
F1.5621650036395327
sg8
F0.13453374947434582
sg9
F0.3737417862663599
saF-973.8931508881991
aa(lp190
(dp191
g3
I97
sg4
F0.7346001342402789
sg5
F0.3866276725698227
sg6
F0.6998632034115759
sg7
F2.188069659415516
sg8
F0.1772842185770086
sg9
F0.2793963349153676
saF-986.8424469482488
aa(lp192
(dp193
g3
I137
sg4
F1.0
sg5
F0.20022424867884792
sg6
F0.7279201216576451
sg7
F1.2832926211555882
sg8
F0.12705657210064167
sg9
F0.3933969255700147
saF-990.1929931234463
aa(lp194
(dp195
g3
I106
sg4
F1.0
sg5
F0.09588032033058574
sg6
F0.9158224939974634
sg7
F4.6086371186840305
sg8
F0.100501097796824
sg9
F0.006300291503677169
saF-384.13684919589184
aa(lp196
(dp197
g3
I106
sg4
F0.94632003683992
sg5
F0.3350529542720029
sg6
F0.7430844156790318
sg7
F2.119298232434361
sg8
F0.01587351025376107
sg9
F0.2233283232045752
saF-972.4362116340742
aa(lp198
(dp199
g3
I28
sg4
F0.961226752328475
sg5
F0.14992126815765328
sg6
F0.07677656081153095
sg7
F2.096168891872561
sg8
F0.12454426499394454
sg9
F0.15979735743551216
saF-645.1988321029482
aa(lp200
(dp201
g3
I117
sg4
F0.9166740572055467
sg5
F0.1163549090719076
sg6
F0.7064125761477504
sg7
F3.000634885448808
sg8
F0.11531345338669169
sg9
F0.049473772756485485
saF-466.03411513068363
aa(lp202
(dp203
g3
I146
sg4
F0.9533443476102638
sg5
F0.03090129248402812
sg6
F0.6870257382108773
sg7
F2.08777309175694
sg8
F0.023803623147381405
sg9
F0.1727346878092277
saF-787.2977483326747
aa(lp204
(dp205
g3
I75
sg4
F0.6624285325740669
sg5
F0.012476839697454278
sg6
F0.31054745946312967
sg7
F1.6021057902137938
sg8
F0.06309275101991652
sg9
F0.10641885934454667
saF-624.0621129798615
aa(lp206
(dp207
g3
I123
sg4
F1.0
sg5
F0.010199465339289615
sg6
F0.859614236761675
sg7
F3.3717746539061997
sg8
F0.14289372627897953
sg9
F0.23304658685721438
saF-857.2190052151402
aa.