(lp0
(lp1
(dp2
S'history_in_weeks'
p3
I97
sS'end_weight'
p4
F1.0
sS'close_match_threshold'
p5
F0.2942792843692874
sS'start_weight'
p6
F0.5683611836396184
sS'over_power_threshold'
p7
F1.8747627665687023
sS'over_power_extra'
p8
F0.09565023466153683
sS'close_match_trim'
p9
F0.020465109975122853
saF201.30304495534347
aa(lp10
(dp11
g3
I112
sg4
F1.0
sg5
F0.2643857983586441
sg6
F0.26612804553845215
sg7
F2.9743929251757084
sg8
F0.06987820258692523
sg9
F0.0036332301103510823
saF191.6711671048099
aa(lp12
(dp13
g3
I20
sg4
F0.9891536343594272
sg5
F0.10611761470124667
sg6
F0.5386358857572038
sg7
F4.243814800320855
sg8
F0.11531345338669169
sg9
F0.027887032130081327
saF151.79104825928903
aa(lp14
(dp15
g3
I20
sg4
F0.9891536343594272
sg5
F0.10611761470124667
sg6
F0.5386358857572038
sg7
F4.243814800320855
sg8
F0.11531345338669169
sg9
F0.027887032130081327
saF151.79104825928903
aa(lp16
(dp17
g3
I20
sg4
F0.9891536343594272
sg5
F0.1185769477988401
sg6
F0.5386358857572038
sg7
F4.243814800320855
sg8
F0.08008790870064592
sg9
F0.019395596647531474
saF126.57940800039296
aa(lp18
(dp19
g3
I112
sg4
F0.654028078590676
sg5
F0.36211338459754416
sg6
F0.26612804553845215
sg7
F2.9743929251757084
sg8
F0.08008790870064592
sg9
F0.006728448811039267
saF113.54937040494042
aa(lp20
(dp21
g3
I112
sg4
F0.8615767813815675
sg5
F0.36211338459754416
sg6
F0.26612804553845215
sg7
F2.9743929251757084
sg8
F0.08008790870064592
sg9
F0.006300291503677169
saF52.053344733879385
aa(lp22
(dp23
g3
I124
sg4
F0.905870929495312
sg5
F0.46982668849177683
sg6
F0.2127479336628133
sg7
F4.243814800320855
sg8
F0.100501097796824
sg9
F0.010729483226310288
saF18.393186712546367
aa(lp24
(dp25
g3
I28
sg4
F0.8287847302231581
sg5
F0.004384231381176662
sg6
F0.46074176854112514
sg7
F4.991163252552154
sg8
F0.18211234367399587
sg9
F0.01564976095855619
saF10.752168247188365
aa(lp26
(dp27
g3
I29
sg4
F0.8793597776417179
sg5
F0.33523013209447217
sg6
F0.7034402932923036
sg7
F4.991163252552154
sg8
F0.11297919921101303
sg9
F0.006300291503677169
saF-43.07944163099546
aa(lp28
(dp29
g3
I20
sg4
F0.8793597776417179
sg5
F0.10611761470124667
sg6
F0.5386358857572038
sg7
F4.243814800320855
sg8
F0.11531345338669169
sg9
F0.019395596647531474
saF-45.45952700316775
aa(lp30
(dp31
g3
I28
sg4
F0.7672956367445872
sg5
F0.004384231381176662
sg6
F0.458585178482942
sg7
F4.991163252552154
sg8
F0.18211234367399587
sg9
F0.13635373319674657
saF-47.01240450586488
aa(lp32
(dp33
g3
I112
sg4
F0.8793597776417179
sg5
F0.14824398420826126
sg6
F0.7064125761477504
sg7
F4.33636679791546
sg8
F0.06895107441710631
sg9
F0.014883972219032815
saF-74.83473047280984
aa(lp34
(dp35
g3
I112
sg4
F0.8615767813815675
sg5
F0.36211338459754416
sg6
F0.5241193236551391
sg7
F2.9743929251757084
sg8
F0.08008790870064592
sg9
F0.01097502623111668
saF-84.43964017365874
aa(lp36
(dp37
g3
I112
sg4
F0.8793597776417179
sg5
F0.40533754273973244
sg6
F0.47976209466196823
sg7
F4.466002460789552
sg8
F0.08008790870064592
sg9
F0.008602226334329393
saF-85.77839731945267
aa(lp38
(dp39
g3
I23
sg4
F1.0
sg5
F0.24296645687589438
sg6
F0.8578086273959015
sg7
F4.281639880702032
sg8
F0.1438620790523579
sg9
F0.023453590844155547
saF-88.09732901783013
aa(lp40
(dp41
g3
I94
sg4
F0.8287847302231581
sg5
F0.004384231381176662
sg6
F0.7064125761477504
sg7
F4.568133491766776
sg8
F0.12553170904555108
sg9
F0.01564976095855619
saF-101.16279271312715
aa(lp42
(dp43
g3
I23
sg4
F0.9210086837263948
sg5
F0.23123482706395587
sg6
F0.8041931494337211
sg7
F4.142955011899762
sg8
F0.1438620790523579
sg9
F0.023453590844155547
saF-111.46120648329043
aa(lp44
(dp45
g3
I20
sg4
F0.9216129441459326
sg5
F0.23211260110881043
sg6
F0.551729085800213
sg7
F4.525285522917118
sg8
F0.08008790870064592
sg9
F0.027887032130081327
saF-111.51832861916137
aa(lp46
(dp47
g3
I29
sg4
F0.9143923651115791
sg5
F0.21061929335250007
sg6
F0.7034402932923036
sg7
F4.991163252552154
sg8
F0.14587048972138014
sg9
F0.01564976095855619
saF-120.93312436737995
aa(lp48
(dp49
g3
I22
sg4
F0.9143923651115791
sg5
F0.004384231381176662
sg6
F0.46074176854112514
sg7
F4.708199465270241
sg8
F0.17254977751858638
sg9
F0.01955167590135587
saF-129.2778174567611
aa(lp50
(dp51
g3
I20
sg4
F0.654028078590676
sg5
F0.10611761470124667
sg6
F0.35947890663371185
sg7
F4.243814800320855
sg8
F0.11531345338669169
sg9
F0.008012920733125562
saF-136.8974533391331
aa(lp52
(dp53
g3
I24
sg4
F0.9698399444104295
sg5
F0.2195031972520174
sg6
F0.9019737227196918
sg7
F4.186681302279078
sg8
F0.08958059098693477
sg9
F0.02346765293438846
saF-140.68370889551034
aa(lp54
(dp55
g3
I28
sg4
F0.7024076456135548
sg5
F0.0945127404394208
sg6
F0.48100917432043694
sg7
F4.991163252552154
sg8
F0.13904914984422467
sg9
F0.01564976095855619
saF-142.37026891062942
aa(lp56
(dp57
g3
I24
sg4
F0.7418107025450493
sg5
F0.1163549090719076
sg6
F0.7064125761477504
sg7
F4.363373534624986
sg8
F0.11531345338669169
sg9
F0.01564976095855619
saF-171.70565545195996
aa(lp58
(dp59
g3
I28
sg4
F0.8420173674527895
sg5
F0.2195031972520174
sg6
F0.8041931494337211
sg7
F4.004270143097491
sg8
F0.11531345338669169
sg9
F0.03256176685752084
saF-177.44057045858483
aa(lp60
(dp61
g3
I94
sg4
F0.8287847302231581
sg5
F0.004384231381176662
sg6
F0.649882477024476
sg7
F4.7999001856180925
sg8
F0.18211234367399587
sg9
F0.01564976095855619
saF-188.10567973925833
aa(lp62
(dp63
g3
I20
sg4
F0.8287847302231581
sg5
F0.004384231381176662
sg6
F0.46074176854112514
sg7
F4.441933927150204
sg8
F0.18211234367399587
sg9
F0.07600174707765138
saF-206.92859702485407
aa(lp64
(dp65
S'history_in_weeks'
p66
I142
sS'end_weight'
p67
F0.905870929495312
sS'close_match_threshold'
p68
F0.46982668849177683
sS'start_weight'
p69
F0.2127479336628133
sS'over_power_threshold'
p70
F2.662242443329407
sS'over_power_extra'
p71
F0.0712814061539535
sS'close_match_trim'
p72
F0.015158674948943407
saF-208.4349504372192
aa(lp73
(dp74
g3
I86
sg4
F1.0
sg5
F0.23282061714488014
sg6
F0.8578086273959015
sg7
F1.3018010513269362
sg8
F0.048872804951572604
sg9
F0.023453590844155547
saF-216.2153355259286
aa(lp75
(dp76
g3
I29
sg4
F0.9143923651115791
sg5
F0.14666030142976405
sg6
F0.6037886771750836
sg7
F4.397195728501364
sg8
F0.16399141669768802
sg9
F0.02813666945822468
saF-219.08289814706893
aa(lp77
(dp78
g3
I112
sg4
F0.8793597776417179
sg5
F0.4598409708364442
sg6
F0.47976209466196823
sg7
F4.250670860216142
sg8
F0.08008790870064592
sg9
F0.010904161164981618
saF-222.6328059306802
aa(lp79
(dp80
g3
I15
sg4
F0.8654821684522382
sg5
F0.27240121815291535
sg6
F0.7034402932923036
sg7
F3.9913995344679574
sg8
F0.08993535767439809
sg9
F0.02346765293438846
saF-229.4955147288747
aa(lp81
(dp82
g3
I23
sg4
F0.8715885476673686
sg5
F0.1599542989664678
sg6
F0.7559664818385428
sg7
F4.243814800320855
sg8
F0.1438620790523579
sg9
F0.008440511916320937
saF-235.07442289219364
aa(lp83
(dp84
g3
I28
sg4
F0.9143923651115791
sg5
F0.23282061714488014
sg6
F0.8578086273959015
sg7
F4.974465003390277
sg8
F0.18211234367399587
sg9
F0.01564976095855619
saF-237.07828350181558
aa(lp85
(dp86
g3
I29
sg4
F0.9891536343594272
sg5
F0.33523013209447217
sg6
F0.7106165790864997
sg7
F4.991163252552154
sg8
F0.11531345338669169
sg9
F0.006300291503677169
saF-241.6731822292802
aa(lp87
(dp88
g3
I23
sg4
F0.9605043418631973
sg5
F0.21379098323168894
sg6
F0.7064125761477504
sg7
F3.708865798957105
sg8
F0.1438620790523579
sg9
F0.010580732328964705
saF-242.77410270423798
aa(lp89
(dp90
g3
I76
sg4
F0.8287847302231581
sg5
F0.004384231381176662
sg6
F0.649882477024476
sg7
F4.7999001856180925
sg8
F0.18211234367399587
sg9
F0.01564976095855619
saF-243.81303506984102
aa(lp91
(dp92
g3
I20
sg4
F0.939679888820859
sg5
F0.004384231381176662
sg6
F0.46074176854112514
sg7
F4.441933927150204
sg8
F0.18211234367399587
sg9
F0.07600174707765138
saF-245.29242596706922
aa(lp93
(dp94
g3
I25
sg4
F1.0
sg5
F0.23789353701038726
sg6
F0.8578086273959015
sg7
F4.974465003390277
sg8
F0.1629872113631769
sg9
F0.01955167590135587
saF-248.68718040867316
aa(lp95
(dp96
g3
I25
sg4
F1.0
sg5
F0.23789353701038726
sg6
F0.8578086273959015
sg7
F4.974465003390277
sg8
F0.1629872113631769
sg9
F0.01955167590135587
saF-248.68718040867316
aa(lp97
(dp98
g3
I20
sg4
F0.654028078590676
sg5
F0.2156156064796328
sg6
F0.35947890663371185
sg7
F4.243814800320855
sg8
F0.1553218564370387
sg9
F0.008012920733125562
saF-251.11751749527411
aa(lp99
(dp100
g3
I20
sg4
F0.8420173674527895
sg5
F0.10611761470124667
sg6
F0.35947890663371185
sg7
F4.243814800320855
sg8
F0.11531345338669169
sg9
F0.027887032130081327
saF-253.70839542525664
aa(lp101
(dp102
g3
I24
sg4
F0.7842102218511275
sg5
F0.22421811181225648
sg6
F0.35947890663371185
sg7
F4.243814800320855
sg8
F0.10084928270315924
sg9
F0.01564976095855619
saF-255.46417989615816
aa(lp103
(dp104
g3
I21
sg4
F1.0
sg5
F0.2459374508723161
sg6
F0.6742595897786987
sg7
F3.764725485874126
sg8
F0.06953254620510511
sg9
F0.02346765293438846
saF-259.53121484751773
aa(lp105
(dp106
g3
I112
sg4
F0.854072253932438
sg5
F0.23211260110881043
sg6
F0.5648222858432221
sg7
F4.525285522917118
sg8
F0.08008790870064592
sg9
F0.01564976095855619
saF-260.6742499068672
aa(lp107
(dp108
g3
I106
sg4
F1.0
sg5
F0.09588032033058574
sg6
F0.35947890663371185
sg7
F4.6086371186840305
sg8
F0.100501097796824
sg9
F0.006300291503677169
saF-263.44742110524464
aa(lp109
(dp110
g3
I28
sg4
F0.7418107025450493
sg5
F0.1163549090719076
sg6
F0.7064125761477504
sg7
F4.482932268929117
sg8
F0.18211234367399587
sg9
F0.01564976095855619
saF-267.1397464083682
aa(lp111
(dp112
g3
I112
sg4
F0.654028078590676
sg5
F0.09588032033058574
sg6
F0.5012765800997487
sg7
F4.243814800320855
sg8
F0.1553218564370387
sg9
F0.007156606118401365
saF-270.7604526840138
aa(lp113
(dp114
g3
I103
sg4
F0.5760305610039516
sg5
F0.18464124949766494
sg6
F0.5012765800997487
sg7
F4.6086371186840305
sg8
F0.09598595601445348
sg9
F0.010580732328964705
saF-272.20761895398584
aa(lp115
(dp116
g3
I23
sg4
F0.8966007459066506
sg5
F0.1960334500376391
sg6
F0.7559664818385428
sg7
F4.243814800320855
sg8
F0.1438620790523579
sg9
F0.01534086652482749
saF-392.0399251697538
aa(lp117
(dp118
g3
I24
sg4
F1.0
sg5
F0.2195031972520174
sg6
F0.9019737227196918
sg7
F4.095475722688285
sg8
F0.11531345338669169
sg9
F0.02346765293438846
saF-289.74896613647604
aa(lp119
(dp120
g3
I21
sg4
F0.9216129441459326
sg5
F0.24296645687589438
sg6
F0.551729085800213
sg7
F4.525285522917118
sg8
F0.1438620790523579
sg9
F0.025670311487118437
saF-370.7119073514126
aa(lp121
(dp122
g3
I29
sg4
F0.8793597776417179
sg5
F0.10611761470124667
sg6
F0.5386358857572038
sg7
F4.6174890264365045
sg8
F0.11414632629885235
sg9
F0.017093661816879248
saF-13.762145235886464
aa(lp123
(dp124
g3
I23
sg4
F1.0
sg5
F0.2459374508723161
sg6
F0.7660341085873001
sg7
F3.764725485874126
sg8
F0.06953254620510511
sg9
F0.02346765293438846
saF-147.55619482155612
aa(lp125
(dp126
g3
I29
sg4
F0.9571961825557895
sg5
F0.19629887615104008
sg6
F0.6390241334768911
sg7
F3.764725485874126
sg8
F0.11676198145139657
sg9
F0.02346765293438846
saF-510.0977549750659
aa(lp127
(dp128
g3
I103
sg4
F0.5760305610039516
sg5
F0.36211338459754416
sg6
F0.5126979518774439
sg7
F2.9743929251757084
sg8
F0.0880369323575497
sg9
F0.010777879280040693
saF-508.6212395703397
aa(lp129
(dp130
g3
I22
sg4
F0.8899372667819087
sg5
F0.27240121815291535
sg6
F0.7034402932923036
sg7
F4.4912813935100555
sg8
F0.14587048972138014
sg9
F0.019558706946472326
saF-212.40607953844437
aa(lp131
(dp132
g3
I112
sg4
F0.9698399444104295
sg5
F0.2195031972520174
sg6
F0.7064125761477504
sg7
F4.261524050097269
sg8
F0.08958059098693477
sg9
F0.019175812576710638
saF-181.67254916661273
aa(lp133
(dp134
g3
I28
sg4
F1.0
sg5
F0.2643857983586441
sg6
F0.4862703108431013
sg7
F3.7286625970524128
sg8
F0.12599527313046055
sg9
F0.2596940588357418
saF-735.4727880846802
aa(lp135
(dp136
g3
I22
sg4
F0.9143923651115791
sg5
F0.10611761470124667
sg6
F0.46074176854112514
sg7
F4.708199465270241
sg8
F0.14393161545263905
sg9
F0.019395596647531474
saF-184.40655629961816
aa(lp137
(dp138
g3
I20
sg4
F0.939679888820859
sg5
F0.09588032033058574
sg6
F0.35947890663371185
sg7
F4.243814800320855
sg8
F0.11531345338669169
sg9
F0.006300291503677169
saF-609.2086872387496
aa(lp139
(dp140
g3
I106
sg4
F1.0
sg5
F0.18013305934461493
sg6
F0.26612804553845215
sg7
F3.7915150219298694
sg8
F0.0851896501918746
sg9
F0.004966760807014125
saF-521.9938969894913
aa(lp141
(dp142
g3
I23
sg4
F0.8493012934813533
sg5
F0.11430117159671657
sg6
F0.4101103375874185
sg7
F4.708199465270241
sg8
F0.07745171545966108
sg9
F0.01955167590135587
saF-209.30146799304055
aa(lp143
(dp144
g3
I20
sg4
F0.5760305610039516
sg5
F0.2083769253032377
sg6
F0.5012765800997487
sg7
F4.566961320800575
sg8
F0.08008790870064592
sg9
F0.019233882229523016
saF-486.4769254642017
aa(lp145
(dp146
g3
I23
sg4
F0.9210086837263948
sg5
F0.14824398420826126
sg6
F0.7553028627907358
sg7
F4.33636679791546
sg8
F0.06895107441710631
sg9
F0.014883972219032815
saF-343.2716529240371
aa(lp147
(dp148
g3
I68
sg4
F1.0
sg5
F0.32161553987505986
sg6
F0.9414947337367686
sg7
F4.974465003390277
sg8
F0.1215375600319114
sg9
F0.008602226334329393
saF-233.05432275392184
aa(lp149
(dp150
g3
I28
sg4
F0.8287847302231581
sg5
F0.004384231381176662
sg6
F0.46074176854112514
sg7
F4.991163252552154
sg8
F0.18211234367399587
sg9
F0.01564976095855619
saF10.752168247188365
aa(lp151
(dp152
g3
I112
sg4
F1.0
sg5
F0.24824919973372728
sg6
F0.26612804553845215
sg7
F3.749839224046413
sg8
F0.07498305564378557
sg9
F0.01564976095855619
saF-313.6955920259378
aa(lp153
(dp154
g3
I131
sg4
F0.9698399444104295
sg5
F0.2195031972520174
sg6
F0.9019737227196918
sg7
F4.441933927150204
sg8
F0.13584646733046532
sg9
F0.07600174707765138
saF-748.3289471207698
aa(lp155
(dp156
g3
I112
sg4
F0.827014039295338
sg5
F0.2942792843692874
sg6
F0.5348188818696835
sg7
F1.8747627665687023
sg8
F0.09565023466153683
sg9
F0.007156606118401365
saF-524.68693950114
aa(lp157
(dp158
g3
I112
sg4
F0.827014039295338
sg5
F0.23789353701038726
sg6
F0.5619683364671768
sg7
F4.974465003390277
sg8
F0.1629872113631769
sg9
F0.006728448811039267
saF-51.39570506549853
aa(lp159
(dp160
g3
I20
sg4
F0.9891536343594272
sg5
F0.16281040597663204
sg6
F0.7203048042384478
sg7
F4.186681302279078
sg8
F0.10244702218681323
sg9
F0.02346765293438846
saF-351.16852475020846
aa(lp161
(dp162
g3
I68
sg4
F1.0
sg5
F0.2643857983586441
sg6
F0.26612804553845215
sg7
F2.9743929251757084
sg8
F0.1629872113631769
sg9
F0.011592453005853477
saF-485.5000525162376
aa(lp163
(dp164
g3
I112
sg4
F0.8704682795116427
sg5
F0.36211338459754416
sg6
F0.47976209466196823
sg7
F2.9743929251757084
sg8
F0.08008790870064592
sg9
F0.008602226334329393
saF-112.98594179630413
aa(lp165
(dp166
g3
I20
sg4
F0.9089691822912926
sg5
F0.1185769477988401
sg6
F0.49968882714916446
sg7
F4.441933927150204
sg8
F0.08008790870064592
sg9
F0.04769867186259143
saF-5.416712923817499
aa(lp167
(dp168
g3
I21
sg4
F0.6615874089373603
sg5
F0.2459374508723161
sg6
F0.5168692482062053
sg7
F4.6086371186840305
sg8
F0.08501682200096455
sg9
F0.02346765293438846
saF-292.228958366186
aa(lp169
(dp170
g3
I112
sg4
F0.6336311406227612
sg5
F0.09588032033058574
sg6
F0.47976209466196823
sg7
F4.466002460789552
sg8
F0.1177048825688423
sg9
F0.00787941622636538
saF-237.62584699994864
aa(lp171
(dp172
g3
I97
sg4
F0.9307883906907837
sg5
F0.3281963344834158
sg6
F0.4172446145890353
sg7
F2.4245778458722054
sg8
F0.09565023466153683
sg9
F0.01338270073940001
saF-361.22575963653867
aa(lp173
(dp174
g3
I103
sg4
F0.6150293197973138
sg5
F0.09588032033058574
sg6
F0.5012765800997487
sg7
F4.6086371186840305
sg8
F0.1553218564370387
sg9
F0.007156606118401365
saF-418.5212349060953
aa(lp175
(dp176
g3
I24
sg4
F0.8287847302231581
sg5
F0.004384231381176662
sg6
F0.5820910309167144
sg7
F3.7623955808910434
sg8
F0.14587048972138014
sg9
F0.01564976095855619
saF-470.0665375290623
aa(lp177
(dp178
g3
I121
sg4
F0.9342567060005725
sg5
F0.12718079945475397
sg6
F0.7064125761477504
sg7
F4.243814800320855
sg8
F0.09213226390189899
sg9
F0.014883972219032815
saF-429.1500660697135
aa(lp179
(dp180
g3
I112
sg4
F1.0
sg5
F0.2643857983586441
sg6
F0.46074176854112514
sg7
F2.9743929251757084
sg8
F0.06987820258692523
sg9
F0.0036332301103510823
saF-469.0117076637986
aa(lp181
(dp182
g3
I28
sg4
F0.8879845732465732
sg5
F0.36211338459754416
sg6
F0.5619683364671768
sg7
F4.974465003390277
sg8
F0.13301476886342803
sg9
F0.006300291503677169
saF-378.1973378332485
aa(lp183
(dp184
g3
I124
sg4
F0.9891536343594272
sg5
F0.28797215159651174
sg6
F0.37569190971000854
sg7
F2.9958550755941005
sg8
F0.10790727559175783
sg9
F0.027887032130081327
saF-460.45226122036786
aa(lp185
(dp186
g3
I62
sg4
F0.5760305610039516
sg5
F0.18464124949766494
sg6
F0.46074176854112514
sg7
F4.6086371186840305
sg8
F0.17254977751858638
sg9
F0.015066204115160287
saF-749.0903403882816
aa(lp187
(dp188
g3
I103
sg4
F0.5760305610039516
sg5
F0.20873093332127254
sg6
F0.5012765800997487
sg7
F4.6086371186840305
sg8
F0.07242938048301303
sg9
F0.010580732328964705
saF-511.77789532503016
aa(lp189
(dp190
g3
I28
sg4
F0.9143923651115791
sg5
F0.004384231381176662
sg6
F0.46074176854112514
sg7
F4.991163252552154
sg8
F0.17254977751858638
sg9
F0.13635373319674657
saF-157.33633782151253
aa(lp191
(dp192
g3
I28
sg4
F0.7418107025450493
sg5
F0.06036957022654213
sg6
F0.7064125761477504
sg7
F4.482932268929117
sg8
F0.18211234367399587
sg9
F0.01564976095855619
saF-425.28578549317035
aa(lp193
(dp194
g3
I124
sg4
F0.9101316473034455
sg5
F0.46982668849177683
sg6
F0.8578086273959015
sg7
F4.243814800320855
sg8
F0.14130672073540992
sg9
F0.01564976095855619
saF-440.7130098823617
aa(lp195
(dp196
g3
I106
sg4
F1.0
sg5
F0.2195031972520174
sg6
F0.35947890663371185
sg7
F4.397659210481555
sg8
F0.09504084439187938
sg9
F0.006300291503677169
saF-324.46415148208644
aa(lp197
(dp198
g3
I109
sg4
F1.0
sg5
F0.09588032033058574
sg6
F0.462150596238467
sg7
F4.566961320800575
sg8
F0.100501097796824
sg9
F0.01564976095855619
saF-512.8627369954543
aa(lp199
(dp200
g3
I20
sg4
F0.9553832892526799
sg5
F0.23211260110881043
sg6
F0.5386358857572038
sg7
F4.384550161618987
sg8
F0.08008790870064592
sg9
F0.019395596647531474
saF-73.44681934682023
aa(lp201
(dp202
g3
I24
sg4
F0.8119340115005528
sg5
F0.2175594018658251
sg6
F0.35947890663371185
sg7
F4.243814800320855
sg8
F0.12245122371198673
sg9
F0.008012920733125562
saF-505.8542756987147
aa(lp203
(dp204
g3
I21
sg4
F0.8036464354986438
sg5
F0.19437806361241147
sg6
F0.7034402932923036
sg7
F4.237165901698537
sg8
F0.08993535767439809
sg9
F0.02346765293438846
saF-399.7293577911096
aa(lp205
(dp206
g3
I23
sg4
F0.9210086837263948
sg5
F0.23123482706395587
sg6
F0.5012765800997487
sg7
F4.019596810345476
sg8
F0.1495919677446983
sg9
F0.015305098481278456
saF-351.4284495790873
aa(lp207
(dp208
g3
I29
sg4
F0.8704682795116427
sg5
F0.36211338459754416
sg6
F0.7034402932923036
sg7
F2.9743929251757084
sg8
F0.11297919921101303
sg9
F0.006300291503677169
saF-355.0352604747384
aa(lp209
(dp210
g3
I20
sg4
F0.9006283351012132
sg5
F0.004384231381176662
sg6
F0.5241193236551391
sg7
F4.441933927150204
sg8
F0.18211234367399587
sg9
F0.01097502623111668
saF81.11828785708758
aa(lp211
(dp212
g3
I20
sg4
F0.8420173674527895
sg5
F0.004384231381176662
sg6
F0.5329457413907311
sg7
F4.568133491766776
sg8
F0.12042258121612139
sg9
F0.01564976095855619
saF-280.2268376964805
aa(lp213
(dp214
g3
I20
sg4
F0.9891536343594272
sg5
F0.34518287133738285
sg6
F0.5386358857572038
sg7
F4.243814800320855
sg8
F0.11531345338669169
sg9
F0.0236413143888064
saF-443.6958658190032
aa.