(lp0
(lp1
(dp2
S'history_in_weeks'
p3
I97
sS'end_weight'
p4
F1.0
sS'close_match_threshold'
p5
F0.2942792843692874
sS'start_weight'
p6
F0.5683611836396184
sS'over_power_threshold'
p7
F1.8747627665687023
sS'over_power_extra'
p8
F0.09565023466153683
sS'close_match_trim'
p9
F0.020465109975122853
saF201.30304495534347
aa(lp10
(dp11
g3
I28
sg4
F0.8287847302231581
sg5
F0.004384231381176662
sg6
F0.46074176854112514
sg7
F4.991163252552154
sg8
F0.18211234367399587
sg9
F0.01564976095855619
saF10.752168247188365
aa(lp12
(dp13
g3
I28
sg4
F0.7672956367445872
sg5
F0.004384231381176662
sg6
F0.458585178482942
sg7
F4.991163252552154
sg8
F0.18211234367399587
sg9
F0.13635373319674657
saF-47.01240450586488
aa(lp14
(dp15
g3
I23
sg4
F1.0
sg5
F0.24296645687589438
sg6
F0.8578086273959015
sg7
F4.281639880702032
sg8
F0.1438620790523579
sg9
F0.023453590844155547
saF-88.09732901783013
aa(lp16
(dp17
g3
I29
sg4
F0.9143923651115791
sg5
F0.21061929335250007
sg6
F0.7034402932923036
sg7
F4.991163252552154
sg8
F0.14587048972138014
sg9
F0.01564976095855619
saF-120.93312436737995
aa(lp18
(dp19
S'history_in_weeks'
p20
I142
sS'end_weight'
p21
F0.905870929495312
sS'close_match_threshold'
p22
F0.46982668849177683
sS'start_weight'
p23
F0.2127479336628133
sS'over_power_threshold'
p24
F2.662242443329407
sS'over_power_extra'
p25
F0.0712814061539535
sS'close_match_trim'
p26
F0.015158674948943407
saF-208.4349504372192
aa(lp27
(dp28
g3
I86
sg4
F1.0
sg5
F0.23282061714488014
sg6
F0.8578086273959015
sg7
F1.3018010513269362
sg8
F0.048872804951572604
sg9
F0.023453590844155547
saF-216.2153355259286
aa(lp29
(dp30
g3
I28
sg4
F0.9143923651115791
sg5
F0.23282061714488014
sg6
F0.8578086273959015
sg7
F4.974465003390277
sg8
F0.18211234367399587
sg9
F0.01564976095855619
saF-237.07828350181558
aa(lp31
(dp32
g3
I20
sg4
F0.654028078590676
sg5
F0.2156156064796328
sg6
F0.35947890663371185
sg7
F4.243814800320855
sg8
F0.1553218564370387
sg9
F0.008012920733125562
saF-251.11751749527411
aa(lp33
(dp34
g3
I106
sg4
F1.0
sg5
F0.09588032033058574
sg6
F0.35947890663371185
sg7
F4.6086371186840305
sg8
F0.100501097796824
sg9
F0.006300291503677169
saF-263.44742110524464
aa(lp35
(dp36
g3
I20
sg4
F0.8420173674527895
sg5
F0.1163549090719076
sg6
F0.7064125761477504
sg7
F4.243814800320855
sg8
F0.11531345338669169
sg9
F0.049473772756485485
saF-342.8817000081456
aa(lp37
(dp38
g20
I88
sg21
F0.9527369482328248
sg22
F0.388485226576217
sg23
F0.0783814679670829
sg24
F4.35320899337597
sg25
F0.10313558071462142
sg26
F0.042807748519751866
saF-350.5105031660762
aa(lp39
(dp40
g20
I106
sg21
F1.0
sg22
F0.09588032033058574
sg23
F0.9158224939974634
sg24
F4.6086371186840305
sg25
F0.100501097796824
sg26
F0.006300291503677169
saF-384.13684919589184
aa(lp41
(dp42
g3
I112
sg4
F0.8793597776417179
sg5
F0.09588032033058574
sg6
F0.5012765800997487
sg7
F4.6086371186840305
sg8
F0.08008790870064592
sg9
F0.006300291503677169
saF-395.6371967157743
aa(lp43
(dp44
g3
I117
sg4
F0.7418107025450493
sg5
F0.08157626544638863
sg6
F0.5339683830364781
sg7
F2.554219724990842
sg8
F0.06796477126607177
sg9
F0.176442153646511
saF-399.7350549321136
aa(lp45
(dp46
g3
I112
sg4
F0.8793597776417179
sg5
F0.18013305934461493
sg6
F0.8390231855078267
sg7
F4.681334061362962
sg8
F0.06895107441710631
sg9
F0.006300291503677169
saF-431.3380909813251
aa(lp47
(dp48
g3
I112
sg4
F0.9763285358375775
sg5
F0.08270130950702803
sg6
F0.6037886771750836
sg7
F2.87906619078465
sg8
F0.19581241939042227
sg9
F0.06559739495723015
saF-440.1756028860549
aa(lp49
(dp50
g3
I117
sg4
F0.7418107025450493
sg5
F0.1163549090719076
sg6
F0.7064125761477504
sg7
F3.9913995344679574
sg8
F0.034000225627416024
sg9
F0.02346765293438846
saF-448.42155011816953
aa(lp51
(dp52
g20
I49
sg21
F0.9695688530411049
sg22
F0.02599927973495464
sg23
F0.6935507585112359
sg24
F4.104609791685609
sg25
F0.10623920328540185
sg26
F0.30192517256951645
saF-449.1570017416583
aa(lp53
(dp54
g20
I114
sg21
F1.0
sg22
F0.40660624121555594
sg23
F0.5683611836396184
sg24
F1.8747627665687023
sg25
F0.022780250375511346
sg26
F0.031008439160247248
saF-457.8754008157439
aa(lp55
(dp56
g3
I112
sg4
F0.8793597776417179
sg5
F0.4598409708364442
sg6
F0.5152115130284775
sg7
F4.6086371186840305
sg8
F0.08008790870064592
sg9
F0.006300291503677169
saF-462.7921690816736
aa(lp57
(dp58
g20
I117
sg21
F0.9166740572055467
sg22
F0.1163549090719076
sg23
F0.7064125761477504
sg24
F3.000634885448808
sg25
F0.11531345338669169
sg26
F0.049473772756485485
saF-466.03411513068363
aa(lp59
(dp60
g3
I117
sg4
F0.9583370286027734
sg5
F0.1163549090719076
sg6
F0.7064125761477504
sg7
F3.077819571425787
sg8
F0.11531345338669169
sg9
F0.049473772756485485
saF-479.81987062984945
aa(lp61
(dp62
g3
I128
sg4
F0.67237413982734
sg5
F0.02843071876411618
sg6
F0.014255108558067109
sg7
F3.4194229920410564
sg8
F0.048872804951572604
sg9
F0.163063277798804
saF-480.4896365696235
aa(lp63
(dp64
g3
I88
sg4
F0.9527369482328248
sg5
F0.4598409708364442
sg6
F0.0783814679670829
sg7
F3.9913995344679574
sg8
F0.034000225627416024
sg9
F0.02346765293438846
saF-491.5661889508169
aa(lp65
(dp66
g20
I112
sg21
F0.6186198909790674
sg22
F0.02843071876411618
sg23
F0.26612804553845215
sg24
F3.654858035532247
sg25
F0.06987820258692523
sg26
F0.0036332301103510823
saF-500.4130261284478
aa(lp67
(dp68
g20
I138
sg21
F1.0
sg22
F0.21379098323168894
sg23
F0.8539145172588957
sg24
F3.155004257402766
sg25
F0.12202539370224737
sg26
F0.010580732328964705
saF-504.33004195689523
aa(lp69
(dp70
g20
I15
sg21
F0.9891536343594272
sg22
F0.19642238036673237
sg23
F0.7291731536136409
sg24
F4.986856741528232
sg25
F0.09440244016750501
sg26
F0.10091203350227365
saF-507.0216319499332
aa(lp71
(dp72
g20
I104
sg21
F0.7559877735674726
sg22
F0.019878300397297266
sg23
F0.7289571437725703
sg24
F3.9821044751760972
sg25
F0.1902938169562876
sg26
F0.01916552779380396
saF-507.73793809847433
aa(lp73
(dp74
g3
I29
sg4
F1.0
sg5
F0.20618577735915466
sg6
F0.9461388180434822
sg7
F3.764725485874126
sg8
F0.10962863576876443
sg9
F0.10839971764019288
saF-527.29139351552
aa(lp75
(dp76
g20
I32
sg21
F0.8287847302231581
sg22
F0.2817435149473172
sg23
F0.46074176854112514
sg24
F4.727390218116501
sg25
F0.18211234367399587
sg26
F0.01564976095855619
saF-527.5615351018497
aa(lp77
(dp78
g3
I112
sg4
F1.0
sg5
F0.18195232752301882
sg6
F0.10703273476995223
sg7
F3.6517614229218616
sg8
F0.11107865511998796
sg9
F0.009921780789998459
saF-530.1533732590201
aa(lp79
(dp80
g20
I112
sg21
F0.7587195552834358
sg22
F0.43479743451967884
sg23
F0.08673066620203396
sg24
F3.7968931944626694
sg25
F0.059674719604467845
sg26
F0.001725153118094669
saF-534.4186198571672
aa(lp81
(dp82
g3
I20
sg4
F0.8836803388500161
sg5
F0.3330133740977994
sg6
F0.444312676295459
sg7
F3.892704601748254
sg8
F0.13326481177406335
sg9
F0.015508030826286068
saF-539.1865309753206
aa(lp83
(dp84
g3
I103
sg4
F0.5760305610039516
sg5
F0.27340217866474414
sg6
F0.5291464459572062
sg7
F3.5238544295755103
sg8
F0.11188400332826104
sg9
F0.010580732328964705
saF-558.0981050176423
aa(lp85
(dp86
g3
I76
sg4
F1.0
sg5
F0.2643857983586441
sg6
F0.8390231855078267
sg7
F4.6086371186840305
sg8
F0.06895107441710631
sg9
F0.022673676640099717
saF-562.0505048621417
aa(lp87
(dp88
g20
I61
sg21
F0.566947347884552
sg22
F0.4598409708364442
sg23
F0.5291464459572062
sg24
F3.9913995344679574
sg25
F0.034000225627416024
sg26
F0.02346765293438846
saF-563.8761159016562
aa(lp89
(dp90
g3
I49
sg4
F0.9222690714973276
sg5
F0.04198911898068039
sg6
F0.6980920092395332
sg7
F3.8762262980630906
sg8
F0.06124383017708823
sg9
F0.33162259806215844
saF-565.8238111892053
aa(lp91
(dp92
g3
I32
sg4
F0.8287847302231581
sg5
F0.18222241222717261
sg6
F0.10703273476995223
sg7
F4.727390218116501
sg8
F0.1465954993969919
sg9
F0.04062357795789317
saF-569.19327368876
aa(lp93
(dp94
g20
I63
sg21
F0.525892960269575
sg22
F0.028965338897280313
sg23
F0.4981397683972869
sg24
F3.6065997382746127
sg25
F0.09135978212893961
sg26
F0.0008922135535969656
saF-578.3610252668826
aa(lp95
(dp96
g3
I28
sg4
F0.7899233216537712
sg5
F0.14992126815765328
sg6
F0.07677656081153095
sg7
F2.8755134637024042
sg8
F0.09721123379043489
sg9
F0.15979735743551216
saF-586.498981701703
aa(lp97
(dp98
g3
I84
sg4
F0.9442153407071008
sg5
F0.012476839697454278
sg6
F0.48579743393052943
sg7
F1.6021057902137938
sg8
F0.06309275101991652
sg9
F0.02220946218753488
saF-591.4214124483526
aa(lp99
(dp100
g3
I21
sg4
F0.8470718951500393
sg5
F0.2642831867932638
sg6
F0.29673115738347955
sg7
F4.243814800320855
sg8
F0.08787982686735743
sg9
F0.1938972515973359
saF-605.6242466238248
aa(lp101
(dp102
g20
I13
sg21
F0.881240106104862
sg22
F0.05448329787830519
sg23
F0.7266265002261802
sg24
F1.9193594335347226
sg25
F0.11067093991501042
sg26
F0.0010866214648874272
saF-607.6837097801068
aa(lp103
(dp104
g20
I80
sg21
F1.0
sg22
F0.18195232752301882
sg23
F0.9429021798436342
sg24
F4.424456655059073
sg25
F0.09565023466153683
sg26
F0.009921780789998459
saF-607.7108033024014
aa(lp105
(dp106
g20
I25
sg21
F0.8135573611728949
sg22
F0.004384231381176662
sg23
F0.7091102293980498
sg24
F4.991163252552154
sg25
F0.09974222598271452
sg26
F0.3790312370932949
saF-614.632402594624
aa(lp107
(dp108
g20
I16
sg21
F0.7033663445381415
sg22
F0.08157626544638863
sg23
F0.36152418992520574
sg24
F2.554219724990842
sg25
F0.06796477126607177
sg26
F0.32941665435863354
saF-617.0874670382123
aa(lp109
(dp110
g20
I75
sg21
F0.6624285325740669
sg22
F0.012476839697454278
sg23
F0.31054745946312967
sg24
F1.6021057902137938
sg25
F0.06309275101991652
sg26
F0.10641885934454667
saF-624.0621129798615
aa(lp111
(dp112
g3
I75
sg4
F0.7418107025450493
sg5
F0.3959998243102604
sg6
F0.50848001780544
sg7
F2.7967526623408756
sg8
F0.04854648832366627
sg9
F0.02346765293438846
saF-627.2536626594406
aa(lp113
(dp114
g20
I46
sg21
F1.0
sg22
F0.2643857983586441
sg23
F0.7622238770181902
sg24
F2.9743929251757084
sg25
F0.037401051037388625
sg26
F0.022673676640099717
saF-635.5340401969606
aa(lp115
(dp116
g3
I28
sg4
F0.9143923651115791
sg5
F0.1163549090719076
sg6
F0.782110601771826
sg7
F4.243814800320855
sg8
F0.18211234367399587
sg9
F0.01564976095855619
saF-310.4645825446662
aa(lp117
(dp118
g3
I38
sg4
F0.9695688530411049
sg5
F0.14992126815765328
sg6
F0.07677656081153095
sg7
F3.4900616276940064
sg8
F0.10172521853791837
sg9
F0.2308612650025143
saF-958.1135248094278
aa(lp119
(dp120
g3
I76
sg4
F0.8470718951500393
sg5
F0.2643857983586441
sg6
F0.29673115738347955
sg7
F4.6086371186840305
sg8
F0.06895107441710631
sg9
F0.022673676640099717
saF-374.9519420023631
aa(lp121
(dp122
g3
I86
sg4
F1.0
sg5
F0.12634945877108872
sg6
F0.7933828855842359
sg7
F3.9821044751760972
sg8
F0.1195833109539301
sg9
F0.021309559318979755
saF-809.8557844129309
aa(lp123
(dp124
g3
I94
sg4
F0.6624285325740669
sg5
F0.2095415404565051
sg6
F0.5683611836396184
sg7
F1.738434278391248
sg8
F0.06309275101991652
sg9
F0.06871364925239697
saF-634.6428492954423
aa(lp125
(dp126
g3
I22
sg4
F1.0
sg5
F0.08157626544638863
sg6
F0.8578086273959015
sg7
F4.974465003390277
sg8
F0.18211234367399587
sg9
F0.32941665435863354
saF-783.0414154943124
aa(lp127
(dp128
g3
I86
sg4
F0.662833451583994
sg5
F0.43479743451967884
sg6
F0.30793855607962006
sg7
F3.894146364465313
sg8
F0.034000225627416024
sg9
F0.001725153118094669
saF-586.2353649405808
aa(lp129
(dp130
g3
I68
sg4
F0.9763285358375775
sg5
F0.08270130950702803
sg6
F0.6564494532865667
sg7
F2.87906619078465
sg8
F0.19581241939042227
sg9
F0.3790312370932949
saF-988.3097429759872
aa(lp131
(dp132
g3
I20
sg4
F0.9442153407071008
sg5
F0.17274510689762684
sg6
F0.444312676295459
sg7
F2.747405195981024
sg8
F0.13326481177406335
sg9
F0.02220946218753488
saF-721.5181982795548
aa(lp133
(dp134
g3
I112
sg4
F0.7231535627631349
sg5
F0.4598409708364442
sg6
F0.5291464459572062
sg7
F4.300018326575994
sg8
F0.08008790870064592
sg9
F0.006300291503677169
saF-349.979239845199
aa(lp135
(dp136
g3
I102
sg4
F1.0
sg5
F0.3330133740977994
sg6
F0.9461388180434822
sg7
F3.764725485874126
sg8
F0.12144672377141388
sg9
F0.015508030826286068
saF-537.3778704608028
aa(lp137
(dp138
g3
I75
sg4
F0.6624285325740669
sg5
F0.00843053553931547
sg6
F0.31054745946312967
sg7
F3.2966345213829737
sg8
F0.06309275101991652
sg9
F0.3790312370932949
saF-788.9548866264126
aa(lp139
(dp140
g3
I49
sg4
F0.9611345357486638
sg5
F0.21379098323168894
sg6
F0.7760032632492144
sg7
F3.155004257402766
sg8
F0.12202539370224737
sg9
F0.33162259806215844
saF-986.4034035763165
aa(lp141
(dp142
g3
I29
sg4
F0.788410448842823
sg5
F0.012476839697454278
sg6
F0.5069938763777166
sg7
F3.2966345213829737
sg8
F0.14587048972138014
sg9
F0.06103431015155143
saF-336.62297751332846
aa(lp143
(dp144
g3
I117
sg4
F0.7418107025450493
sg5
F0.1163549090719076
sg6
F0.7064125761477504
sg7
F4.482932268929117
sg8
F0.18211234367399587
sg9
F0.02346765293438846
saF-448.42155011816953
aa(lp145
(dp146
g3
I85
sg4
F0.905870929495312
sg5
F0.3098739783247151
sg6
F0.07677656081153095
sg7
F2.8755134637024042
sg8
F0.0712814061539535
sg9
F0.15979735743551216
saF-835.1204446411436
aa(lp147
(dp148
g3
I112
sg4
F1.0
sg5
F0.2643857983586441
sg6
F0.26612804553845215
sg7
F2.9743929251757084
sg8
F0.06987820258692523
sg9
F0.0036332301103510823
saF191.6711671048099
aa(lp149
(dp150
g3
I61
sg4
F0.566947347884552
sg5
F0.4598409708364442
sg6
F0.5291464459572062
sg7
F1.8747627665687023
sg8
F0.034000225627416024
sg9
F0.020465109975122853
saF-464.8103515979951
aa(lp151
(dp152
g3
I20
sg4
F0.7672956367445872
sg5
F0.004384231381176662
sg6
F0.458585178482942
sg7
F3.892704601748254
sg8
F0.1576885777240296
sg9
F0.13635373319674657
saF-395.40079930360014
aa(lp153
(dp154
g3
I46
sg4
F0.7672956367445872
sg5
F0.1343850148699104
sg6
F0.7622238770181902
sg7
F4.991163252552154
sg8
F0.037401051037388625
sg9
F0.07951370491842315
saF-631.2132567878157
aa(lp155
(dp156
g3
I103
sg4
F0.5760305610039516
sg5
F0.18464124949766494
sg6
F0.5012765800997487
sg7
F4.6086371186840305
sg8
F0.09598595601445348
sg9
F0.010580732328964705
saF-272.20761895398584
aa(lp157
(dp158
g3
I23
sg4
F0.9210086837263948
sg5
F0.1163549090719076
sg6
F0.7064125761477504
sg7
F4.262727340511444
sg8
F0.1438620790523579
sg9
F0.036463681800320516
saF-451.3692881086779
aa(lp159
(dp160
g3
I65
sg4
F0.881240106104862
sg5
F0.06802978166234691
sg6
F0.6302974416313292
sg7
F2.236789579262782
sg8
F0.11067093991501042
sg9
F0.176442153646511
saF-884.4284439301036
aa(lp161
(dp162
g3
I75
sg4
F0.6624285325740669
sg5
F0.012476839697454278
sg6
F0.31054745946312967
sg7
F1.6021057902137938
sg8
F0.06309275101991652
sg9
F0.10641885934454667
saF-624.0621129798615
aa(lp163
(dp164
g3
I117
sg4
F0.7418107025450493
sg5
F0.08157626544638863
sg6
F0.5339683830364781
sg7
F2.554219724990842
sg8
F0.06796477126607177
sg9
F0.176442153646511
saF-399.7350549321136
aa(lp165
(dp166
g3
I79
sg4
F0.8470718951500393
sg5
F0.2642831867932638
sg6
F0.29673115738347955
sg7
F3.6994095288618105
sg8
F0.08787982686735743
sg9
F0.1022389919631503
saF-867.5726610664401
aa(lp167
(dp168
g3
I22
sg4
F0.9881642679187888
sg5
F0.14824614636935848
sg6
F0.8539145172588957
sg7
F3.155004257402766
sg8
F0.1589189065463348
sg9
F0.03808906364309743
saF-388.10415198712803
aa(lp169
(dp170
g3
I32
sg4
F0.8287847302231581
sg5
F0.2817435149473172
sg6
F0.4101103375874185
sg7
F4.243814800320855
sg8
F0.1553218564370387
sg9
F0.011831340845840876
saF-428.26372425257046
aa(lp171
(dp172
g3
I46
sg4
F0.8287847302231581
sg5
F0.37079224289188073
sg6
F0.46074176854112514
sg7
F3.9913995344679574
sg8
F0.18211234367399587
sg9
F0.01564976095855619
saF-508.6808159596992
aa(lp173
(dp174
g3
I82
sg4
F0.5760305610039516
sg5
F0.27340217866474414
sg6
F0.5291464459572062
sg7
F3.757626982021734
sg8
F0.034000225627416024
sg9
F0.010580732328964705
saF-505.2794930073617
aa(lp175
(dp176
g3
I35
sg4
F0.8470718951500393
sg5
F0.2642831867932638
sg6
F0.6980920092395332
sg7
F4.243814800320855
sg8
F0.06124383017708823
sg9
F0.33162259806215844
saF-941.8145173498398
aa(lp177
(dp178
g3
I20
sg4
F0.6582283055823714
sg5
F0.012476839697454278
sg6
F0.31054745946312967
sg7
F2.9229602952673246
sg8
F0.06309275101991652
sg9
F0.05721589003883612
saF-409.79148676209434
aa(lp179
(dp180
g3
I28
sg4
F1.0
sg5
F0.2195031972520174
sg6
F0.9019737227196918
sg7
F3.764725485874126
sg8
F0.10962863576876443
sg9
F0.01564976095855619
saF-353.7610188833612
aa(lp181
(dp182
g3
I32
sg4
F0.8287847302231581
sg5
F0.18222241222717261
sg6
F0.40672265545885133
sg7
F4.727390218116501
sg8
F0.1465954993969919
sg9
F0.04062357795789317
saF-753.4760703071709
aa(lp183
(dp184
g3
I76
sg4
F0.8287847302231581
sg5
F0.004384231381176662
sg6
F0.649882477024476
sg7
F4.7999001856180925
sg8
F0.18211234367399587
sg9
F0.01564976095855619
saF-243.81303506984102
aa(lp185
(dp186
g3
I87
sg4
F0.8673278298592351
sg5
F0.18222241222717261
sg6
F0.10703273476995223
sg7
F4.727390218116501
sg8
F0.1089384527754727
sg9
F0.04062357795789317
saF-770.2412029006784
aa(lp187
(dp188
g3
I112
sg4
F1.0
sg5
F0.18013305934461493
sg6
F0.8925810017756545
sg7
F4.681334061362962
sg8
F0.08928985509293537
sg9
F0.05735000457193502
saF-712.9963840142989
aa(lp189
(dp190
g3
I104
sg4
F1.0
sg5
F0.24296645687589438
sg6
F0.7289571437725703
sg7
F3.9821044751760972
sg8
F0.1438620790523579
sg9
F0.023453590844155547
saF-653.8631142171741
aa(lp191
(dp192
g3
I117
sg4
F1.0
sg5
F0.19487854386832587
sg6
F0.7064125761477504
sg7
F3.300837000500649
sg8
F0.11359872835747636
sg9
F0.049473772756485485
saF-773.5095208047275
aa(lp193
(dp194
g3
I47
sg4
F0.8836803388500161
sg5
F0.012476839697454278
sg6
F0.37743006787929434
sg7
F3.892704601748254
sg8
F0.13326481177406335
sg9
F0.06096344508541637
saF-739.2329102996304
aa(lp195
(dp196
g3
I112
sg4
F0.8793597776417179
sg5
F0.4598409708364442
sg6
F0.47976209466196823
sg7
F4.250670860216142
sg8
F0.08008790870064592
sg9
F0.010904161164981618
saF-222.6328059306802
aa(lp197
(dp198
g3
I29
sg4
F0.9517729997355031
sg5
F0.19642238036673237
sg6
F0.7163067234529723
sg7
F4.991163252552154
sg8
F0.09440244016750501
sg9
F0.048680727945182994
saF-320.9932492030508
aa(lp199
(dp200
g3
I112
sg4
F0.9025566330303678
sg5
F0.08270130950702803
sg6
F0.6037886771750836
sg7
F3.8032282044505754
sg8
F0.18211234367399587
sg9
F0.04062357795789317
saF-409.52030219813616
aa(lp201
(dp202
g3
I117
sg4
F0.7418107025450493
sg5
F0.06802978166234691
sg6
F0.5339683830364781
sg7
F3.525624523122275
sg8
F0.06796477126607177
sg9
F0.176442153646511
saF-611.6674691674124
aa(lp203
(dp204
g3
I16
sg4
F0.6351568462113468
sg5
F0.4598409708364442
sg6
F0.44533531794120595
sg7
F3.2728096297294
sg8
F0.034000225627416024
sg9
F0.176442153646511
saF-920.4337009340833
aa(lp205
(dp206
g3
I59
sg4
F0.7825920976816894
sg5
F0.23491227951573826
sg6
F0.7291731536136409
sg7
F3.5238544295755103
sg8
F0.09440244016750501
sg9
F0.055746382915619175
saF-815.2183176162407
aa(lp207
(dp208
g3
I117
sg4
F0.7418107025450493
sg5
F0.08157626544638863
sg6
F0.36152418992520574
sg7
F2.554219724990842
sg8
F0.06796477126607177
sg9
F0.176442153646511
saF-760.3017972284176
aa(lp209
(dp210
g3
I25
sg4
F1.0
sg5
F0.23789353701038726
sg6
F0.8578086273959015
sg7
F4.974465003390277
sg8
F0.1629872113631769
sg9
F0.01955167590135587
saF-248.68718040867316
aa(lp211
(dp212
g3
I29
sg4
F0.788410448842823
sg5
F0.012476839697454278
sg6
F0.7034402932923036
sg7
F4.991163252552154
sg8
F0.14587048972138014
sg9
F0.10641885934454667
saF-686.0076504356679
aa(lp213
(dp214
g3
I106
sg4
F1.0
sg5
F0.40660624121555594
sg6
F0.35947890663371185
sg7
F1.8747627665687023
sg8
F0.06164067408616767
sg9
F0.018654365331962207
saF-438.74254659479834
aa.