(lp0
(lp1
(dp2
S'history_in_weeks'
p3
I97
sS'end_weight'
p4
F1.0
sS'close_match_threshold'
p5
F0.2942792843692874
sS'start_weight'
p6
F0.5683611836396184
sS'over_power_threshold'
p7
F1.8747627665687023
sS'over_power_extra'
p8
F0.09565023466153683
sS'close_match_trim'
p9
F0.020465109975122853
saF201.30304495534347
aa(lp10
(dp11
g3
I112
sg4
F1.0
sg5
F0.2643857983586441
sg6
F0.26612804553845215
sg7
F2.9743929251757084
sg8
F0.06987820258692523
sg9
F0.0036332301103510823
saF191.6711671048099
aa(lp12
(dp13
g3
I20
sg4
F0.9891536343594272
sg5
F0.10611761470124667
sg6
F0.5386358857572038
sg7
F4.243814800320855
sg8
F0.11531345338669169
sg9
F0.027887032130081327
saF151.79104825928903
aa(lp14
(dp15
g3
I20
sg4
F0.9891536343594272
sg5
F0.10611761470124667
sg6
F0.5386358857572038
sg7
F4.243814800320855
sg8
F0.11531345338669169
sg9
F0.027887032130081327
saF151.79104825928903
aa(lp16
(dp17
g3
I20
sg4
F0.9891536343594272
sg5
F0.1185769477988401
sg6
F0.5386358857572038
sg7
F4.243814800320855
sg8
F0.08008790870064592
sg9
F0.019395596647531474
saF126.57940800039296
aa(lp18
(dp19
g3
I112
sg4
F0.654028078590676
sg5
F0.36211338459754416
sg6
F0.26612804553845215
sg7
F2.9743929251757084
sg8
F0.08008790870064592
sg9
F0.006728448811039267
saF113.54937040494042
aa(lp20
(dp21
g3
I20
sg4
F0.9006283351012132
sg5
F0.004384231381176662
sg6
F0.5241193236551391
sg7
F4.441933927150204
sg8
F0.18211234367399587
sg9
F0.01097502623111668
saF81.11828785708758
aa(lp22
(dp23
g3
I112
sg4
F0.8615767813815675
sg5
F0.36211338459754416
sg6
F0.26612804553845215
sg7
F2.9743929251757084
sg8
F0.08008790870064592
sg9
F0.006300291503677169
saF52.053344733879385
aa(lp24
(dp25
g3
I124
sg4
F0.905870929495312
sg5
F0.46982668849177683
sg6
F0.2127479336628133
sg7
F4.243814800320855
sg8
F0.100501097796824
sg9
F0.010729483226310288
saF18.393186712546367
aa(lp26
(dp27
g3
I28
sg4
F0.8287847302231581
sg5
F0.004384231381176662
sg6
F0.46074176854112514
sg7
F4.991163252552154
sg8
F0.18211234367399587
sg9
F0.01564976095855619
saF10.752168247188365
aa(lp28
(dp29
g3
I28
sg4
F0.8287847302231581
sg5
F0.004384231381176662
sg6
F0.46074176854112514
sg7
F4.991163252552154
sg8
F0.18211234367399587
sg9
F0.01564976095855619
saF10.752168247188365
aa(lp30
(dp31
g3
I20
sg4
F0.9089691822912926
sg5
F0.1185769477988401
sg6
F0.49968882714916446
sg7
F4.441933927150204
sg8
F0.08008790870064592
sg9
F0.04769867186259143
saF-5.416712923817499
aa(lp32
(dp33
g3
I29
sg4
F0.8793597776417179
sg5
F0.10611761470124667
sg6
F0.5386358857572038
sg7
F4.6174890264365045
sg8
F0.11414632629885235
sg9
F0.017093661816879248
saF-13.762145235886464
aa(lp34
(dp35
g3
I29
sg4
F0.8793597776417179
sg5
F0.33523013209447217
sg6
F0.7034402932923036
sg7
F4.991163252552154
sg8
F0.11297919921101303
sg9
F0.006300291503677169
saF-43.07944163099546
aa(lp36
(dp37
g3
I20
sg4
F0.8793597776417179
sg5
F0.10611761470124667
sg6
F0.5386358857572038
sg7
F4.243814800320855
sg8
F0.11531345338669169
sg9
F0.019395596647531474
saF-45.45952700316775
aa(lp38
(dp39
g3
I28
sg4
F0.7672956367445872
sg5
F0.004384231381176662
sg6
F0.458585178482942
sg7
F4.991163252552154
sg8
F0.18211234367399587
sg9
F0.13635373319674657
saF-47.01240450586488
aa(lp40
(dp41
g3
I112
sg4
F0.827014039295338
sg5
F0.23789353701038726
sg6
F0.5619683364671768
sg7
F4.974465003390277
sg8
F0.1629872113631769
sg9
F0.006728448811039267
saF-51.39570506549853
aa(lp42
(dp43
g3
I20
sg4
F0.9553832892526799
sg5
F0.23211260110881043
sg6
F0.5386358857572038
sg7
F4.384550161618987
sg8
F0.08008790870064592
sg9
F0.019395596647531474
saF-73.44681934682023
aa(lp44
(dp45
g3
I112
sg4
F0.8793597776417179
sg5
F0.14824398420826126
sg6
F0.7064125761477504
sg7
F4.33636679791546
sg8
F0.06895107441710631
sg9
F0.014883972219032815
saF-74.83473047280984
aa(lp46
(dp47
g3
I112
sg4
F0.8615767813815675
sg5
F0.36211338459754416
sg6
F0.5241193236551391
sg7
F2.9743929251757084
sg8
F0.08008790870064592
sg9
F0.01097502623111668
saF-84.43964017365874
aa(lp48
(dp49
g3
I112
sg4
F0.8793597776417179
sg5
F0.40533754273973244
sg6
F0.47976209466196823
sg7
F4.466002460789552
sg8
F0.08008790870064592
sg9
F0.008602226334329393
saF-85.77839731945267
aa(lp50
(dp51
g3
I23
sg4
F1.0
sg5
F0.24296645687589438
sg6
F0.8578086273959015
sg7
F4.281639880702032
sg8
F0.1438620790523579
sg9
F0.023453590844155547
saF-88.09732901783013
aa(lp52
(dp53
g3
I94
sg4
F0.8287847302231581
sg5
F0.004384231381176662
sg6
F0.7064125761477504
sg7
F4.568133491766776
sg8
F0.12553170904555108
sg9
F0.01564976095855619
saF-101.16279271312715
aa(lp54
(dp55
g3
I23
sg4
F0.9210086837263948
sg5
F0.23123482706395587
sg6
F0.8041931494337211
sg7
F4.142955011899762
sg8
F0.1438620790523579
sg9
F0.023453590844155547
saF-111.46120648329043
aa(lp56
(dp57
g3
I20
sg4
F0.9216129441459326
sg5
F0.23211260110881043
sg6
F0.551729085800213
sg7
F4.525285522917118
sg8
F0.08008790870064592
sg9
F0.027887032130081327
saF-111.51832861916137
aa(lp58
(dp59
g3
I112
sg4
F0.8704682795116427
sg5
F0.36211338459754416
sg6
F0.47976209466196823
sg7
F2.9743929251757084
sg8
F0.08008790870064592
sg9
F0.008602226334329393
saF-112.98594179630413
aa(lp60
(dp61
g3
I29
sg4
F0.9143923651115791
sg5
F0.21061929335250007
sg6
F0.7034402932923036
sg7
F4.991163252552154
sg8
F0.14587048972138014
sg9
F0.01564976095855619
saF-120.93312436737995
aa(lp62
(dp63
g3
I22
sg4
F0.9143923651115791
sg5
F0.004384231381176662
sg6
F0.46074176854112514
sg7
F4.708199465270241
sg8
F0.17254977751858638
sg9
F0.01955167590135587
saF-129.2778174567611
aa(lp64
(dp65
g3
I20
sg4
F0.654028078590676
sg5
F0.10611761470124667
sg6
F0.35947890663371185
sg7
F4.243814800320855
sg8
F0.11531345338669169
sg9
F0.008012920733125562
saF-136.8974533391331
aa(lp66
(dp67
g3
I24
sg4
F0.9698399444104295
sg5
F0.2195031972520174
sg6
F0.9019737227196918
sg7
F4.186681302279078
sg8
F0.08958059098693477
sg9
F0.02346765293438846
saF-140.68370889551034
aa(lp68
(dp69
g3
I28
sg4
F0.7024076456135548
sg5
F0.0945127404394208
sg6
F0.48100917432043694
sg7
F4.991163252552154
sg8
F0.13904914984422467
sg9
F0.01564976095855619
saF-142.37026891062942
aa(lp70
(dp71
g3
I23
sg4
F1.0
sg5
F0.2459374508723161
sg6
F0.7660341085873001
sg7
F3.764725485874126
sg8
F0.06953254620510511
sg9
F0.02346765293438846
saF-147.55619482155612
aa(lp72
(dp73
g3
I28
sg4
F0.9143923651115791
sg5
F0.004384231381176662
sg6
F0.46074176854112514
sg7
F4.991163252552154
sg8
F0.17254977751858638
sg9
F0.13635373319674657
saF-157.33633782151253
aa(lp74
(dp75
g3
I24
sg4
F0.7418107025450493
sg5
F0.1163549090719076
sg6
F0.7064125761477504
sg7
F4.363373534624986
sg8
F0.11531345338669169
sg9
F0.01564976095855619
saF-171.70565545195996
aa(lp76
(dp77
g3
I28
sg4
F0.8420173674527895
sg5
F0.2195031972520174
sg6
F0.8041931494337211
sg7
F4.004270143097491
sg8
F0.11531345338669169
sg9
F0.03256176685752084
saF-177.44057045858483
aa(lp78
(dp79
g3
I112
sg4
F0.9698399444104295
sg5
F0.2195031972520174
sg6
F0.7064125761477504
sg7
F4.261524050097269
sg8
F0.08958059098693477
sg9
F0.019175812576710638
saF-181.67254916661273
aa(lp80
(dp81
g3
I22
sg4
F0.9143923651115791
sg5
F0.10611761470124667
sg6
F0.46074176854112514
sg7
F4.708199465270241
sg8
F0.14393161545263905
sg9
F0.019395596647531474
saF-184.40655629961816
aa(lp82
(dp83
g3
I94
sg4
F0.8287847302231581
sg5
F0.004384231381176662
sg6
F0.649882477024476
sg7
F4.7999001856180925
sg8
F0.18211234367399587
sg9
F0.01564976095855619
saF-188.10567973925833
aa(lp84
(dp85
g3
I20
sg4
F0.8287847302231581
sg5
F0.004384231381176662
sg6
F0.46074176854112514
sg7
F4.441933927150204
sg8
F0.18211234367399587
sg9
F0.07600174707765138
saF-206.92859702485407
aa(lp86
(dp87
S'history_in_weeks'
p88
I142
sS'end_weight'
p89
F0.905870929495312
sS'close_match_threshold'
p90
F0.46982668849177683
sS'start_weight'
p91
F0.2127479336628133
sS'over_power_threshold'
p92
F2.662242443329407
sS'over_power_extra'
p93
F0.0712814061539535
sS'close_match_trim'
p94
F0.015158674948943407
saF-208.4349504372192
aa(lp95
(dp96
g3
I23
sg4
F0.8493012934813533
sg5
F0.11430117159671657
sg6
F0.4101103375874185
sg7
F4.708199465270241
sg8
F0.07745171545966108
sg9
F0.01955167590135587
saF-209.30146799304055
aa(lp97
(dp98
g3
I22
sg4
F0.8899372667819087
sg5
F0.27240121815291535
sg6
F0.7034402932923036
sg7
F4.4912813935100555
sg8
F0.14587048972138014
sg9
F0.019558706946472326
saF-212.40607953844437
aa(lp99
(dp100
g3
I86
sg4
F1.0
sg5
F0.23282061714488014
sg6
F0.8578086273959015
sg7
F1.3018010513269362
sg8
F0.048872804951572604
sg9
F0.023453590844155547
saF-216.2153355259286
aa(lp101
(dp102
g3
I29
sg4
F0.9143923651115791
sg5
F0.14666030142976405
sg6
F0.6037886771750836
sg7
F4.397195728501364
sg8
F0.16399141669768802
sg9
F0.02813666945822468
saF-219.08289814706893
aa(lp103
(dp104
g3
I112
sg4
F0.8793597776417179
sg5
F0.4598409708364442
sg6
F0.47976209466196823
sg7
F4.250670860216142
sg8
F0.08008790870064592
sg9
F0.010904161164981618
saF-222.6328059306802
aa(lp105
(dp106
g3
I15
sg4
F0.8654821684522382
sg5
F0.27240121815291535
sg6
F0.7034402932923036
sg7
F3.9913995344679574
sg8
F0.08993535767439809
sg9
F0.02346765293438846
saF-229.4955147288747
aa(lp107
(dp108
g3
I68
sg4
F1.0
sg5
F0.32161553987505986
sg6
F0.9414947337367686
sg7
F4.974465003390277
sg8
F0.1215375600319114
sg9
F0.008602226334329393
saF-233.05432275392184
aa(lp109
(dp110
g3
I23
sg4
F0.8715885476673686
sg5
F0.1599542989664678
sg6
F0.7559664818385428
sg7
F4.243814800320855
sg8
F0.1438620790523579
sg9
F0.008440511916320937
saF-235.07442289219364
aa(lp111
(dp112
g3
I28
sg4
F0.9143923651115791
sg5
F0.23282061714488014
sg6
F0.8578086273959015
sg7
F4.974465003390277
sg8
F0.18211234367399587
sg9
F0.01564976095855619
saF-237.07828350181558
aa(lp113
(dp114
g3
I112
sg4
F0.6336311406227612
sg5
F0.09588032033058574
sg6
F0.47976209466196823
sg7
F4.466002460789552
sg8
F0.1177048825688423
sg9
F0.00787941622636538
saF-237.62584699994864
aa(lp115
(dp116
g3
I66
sg4
F0.9945768171797136
sg5
F0.1185769477988401
sg6
F0.26612804553845215
sg7
F4.243814800320855
sg8
F0.07498305564378557
sg9
F0.019395596647531474
saF-632.5361208573505
aa(lp117
(dp118
g3
I22
sg4
F0.9116807737014359
sg5
F0.06148058959000838
sg6
F0.46074176854112514
sg7
F4.708199465270241
sg8
F0.12631884310961616
sg9
F0.04769867186259143
saF-98.00566317103448
aa(lp119
(dp120
g3
I24
sg4
F0.9245998610260737
sg5
F0.14824398420826126
sg6
F0.7064125761477504
sg7
F4.261524050097269
sg8
F0.07926583270202053
sg9
F0.014883972219032815
saF-160.2452232906462
aa(lp121
(dp122
g3
I112
sg4
F0.8493012934813533
sg5
F0.166902184424367
sg6
F0.5582614568675844
sg7
F4.261524050097269
sg8
F0.08958059098693477
sg9
F0.019175812576710638
saF-153.9222156340104
aa(lp123
(dp124
g3
I17
sg4
F0.8654821684522382
sg5
F0.10611761470124667
sg6
F0.7034402932923036
sg7
F4.243814800320855
sg8
F0.08993535767439809
sg9
F0.027887032130081327
saF-325.5492276586582
aa(lp125
(dp126
g3
I24
sg4
F0.9245998610260737
sg5
F0.4598409708364442
sg6
F0.69086790869083
sg7
F4.250670860216142
sg8
F0.08483424984379034
sg9
F0.02346765293438846
saF-14.620527894986708
aa(lp127
(dp128
g3
I20
sg4
F0.8793597776417179
sg5
F0.10611761470124667
sg6
F0.47976209466196823
sg7
F4.247242830268499
sg8
F0.11531345338669169
sg9
F0.010904161164981618
saF-109.13994469354395
aa(lp129
(dp130
g3
I66
sg4
F0.9089691822912926
sg5
F0.1185769477988401
sg6
F0.5308285818081706
sg7
F4.441933927150204
sg8
F0.1629872113631769
sg9
F0.04769867186259143
saF-775.8487758633996
aa(lp131
(dp132
g3
I66
sg4
F0.8793597776417179
sg5
F0.25572757872048957
sg6
F0.509198990209586
sg7
F4.243814800320855
sg8
F0.08008790870064592
sg9
F0.008602226334329393
saF-547.6246745943877
aa(lp133
(dp134
g3
I25
sg4
F0.8493012934813533
sg5
F0.0945127404394208
sg6
F0.4101103375874185
sg7
F4.991163252552154
sg8
F0.07745171545966108
sg9
F0.01564976095855619
saF-44.30339050523446
aa(lp135
(dp136
g3
I24
sg4
F0.9517729997355031
sg5
F0.10611761470124667
sg6
F0.028619815348690736
sg7
F4.6174890264365045
sg8
F0.1305919715540359
sg9
F0.02176839654431876
saF-692.4768681740782
aa(lp137
(dp138
g3
I21
sg4
F0.9303710910133979
sg5
F0.1185769477988401
sg6
F0.5386358857572038
sg7
F4.243814800320855
sg8
F0.08008790870064592
sg9
F0.2523843612941469
saF-860.0968210774229
aa(lp139
(dp140
g3
I20
sg4
F0.9891536343594272
sg5
F0.1185769477988401
sg6
F0.5191623564531841
sg7
F4.243814800320855
sg8
F0.08008790870064592
sg9
F0.03354713425506145
saF-3.7793761848560052
aa(lp141
(dp142
g3
I86
sg4
F0.8798356971021233
sg5
F0.2942792843692874
sg6
F0.5683611836396184
sg7
F1.3018010513269362
sg8
F0.09565023466153683
sg9
F0.0219593504096392
saF1054.1393766982274
aa(lp143
(dp144
g3
I26
sg4
F0.9698399444104295
sg5
F0.2195031972520174
sg6
F0.6813577456304085
sg7
F4.186681302279078
sg8
F0.18211234367399587
sg9
F0.019558706946472326
saF-238.55677453893793
aa(lp145
(dp146
g3
I28
sg4
F0.8408440009280831
sg5
F0.004384231381176662
sg6
F0.45966347351203357
sg7
F4.991163252552154
sg8
F0.17254977751858638
sg9
F0.13635373319674657
saF46.614048102299876
aa(lp147
(dp148
g3
I20
sg4
F0.9626116168315547
sg5
F0.2195031972520174
sg6
F0.7203048042384478
sg7
F4.285615731949033
sg8
F0.08958059098693477
sg9
F0.021431624790959967
saF-157.6557514937772
aa(lp149
(dp150
g3
I28
sg4
F0.9143923651115791
sg5
F0.23282061714488014
sg6
F0.26612804553845215
sg7
F4.974465003390277
sg8
F0.18211234367399587
sg9
F0.01097502623111668
saF-527.4067939469069
aa(lp151
(dp152
g3
I29
sg4
F0.8793597776417179
sg5
F0.10611761470124667
sg6
F0.5386358857572038
sg7
F4.243814800320855
sg8
F0.11531345338669169
sg9
F0.01824462923220536
saF-58.376466602599976
aa(lp153
(dp154
g3
I21
sg4
F0.9006283351012132
sg5
F0.004384231381176662
sg6
F0.8041931494337211
sg7
F4.142955011899762
sg8
F0.1438620790523579
sg9
F0.023453590844155547
saF-394.13156418221797
aa(lp155
(dp156
g3
I70
sg4
F0.8420173674527895
sg5
F0.4598409708364442
sg6
F0.8041931494337211
sg7
F4.250670860216142
sg8
F0.11531345338669169
sg9
F0.010904161164981618
saF-565.7589227956869
aa(lp157
(dp158
g3
I112
sg4
F0.939679888820859
sg5
F0.40533754273973244
sg6
F0.6687853610289348
sg7
F2.8839017560582443
sg8
F0.08008790870064592
sg9
F0.023453590844155547
saF-164.03941567025356
aa(lp159
(dp160
g3
I23
sg4
F0.8281015338283142
sg5
F0.1163549090719076
sg6
F0.5835771723444378
sg7
F4.239866823322271
sg8
F0.11531345338669169
sg9
F0.01564976095855619
saF-255.96413346257475
aa(lp161
(dp162
g3
I24
sg4
F0.9698399444104295
sg5
F0.2195031972520174
sg6
F0.7064125761477504
sg7
F4.363373534624986
sg8
F0.14315797488100165
sg9
F0.01564976095855619
saF-178.6761452724934
aa(lp163
(dp164
g3
I124
sg4
F0.930627109373996
sg5
F0.35096964480029363
sg6
F0.5386358857572038
sg7
F4.3141824809699205
sg8
F0.100501097796824
sg9
F0.015062539936920881
saF-59.70398664318873
aa(lp165
(dp166
g3
I142
sg4
F0.9378554369528708
sg5
F0.3446649428718971
sg6
F0.2127479336628133
sg7
F2.662242443329407
sg8
F0.08043099857044414
sg9
F0.019313163941665934
saF-394.03662304883005
aa(lp167
(dp168
g3
I61
sg4
F0.854072253932438
sg5
F0.004384231381176662
sg6
F0.5942591813908399
sg7
F4.708694606027299
sg8
F0.1481293349864241
sg9
F0.01637171138771772
saF-588.2832078944937
aa(lp169
(dp170
g3
I23
sg4
F0.9210086837263948
sg5
F0.23123482706395587
sg6
F0.8041931494337211
sg7
F4.142955011899762
sg8
F0.1438620790523579
sg9
F0.023453590844155547
saF-111.46120648329043
aa(lp171
(dp172
g3
I70
sg4
F0.8707032022034585
sg5
F0.19227691922007567
sg6
F0.6037886771750836
sg7
F4.6858303659458205
sg8
F0.16399141669768802
sg9
F0.006728448811039267
saF-458.7080485199551
aa(lp173
(dp174
g3
I22
sg4
F0.9143923651115791
sg5
F0.10611761470124667
sg6
F0.6083541251898339
sg7
F4.476007132795548
sg8
F0.1438620790523579
sg9
F0.013918054281926205
saF-485.33613850200356
aa(lp175
(dp176
g3
I112
sg4
F0.9143923651115791
sg5
F0.37933315022158953
sg6
F0.5619683364671768
sg7
F4.397195728501364
sg8
F0.1629872113631769
sg9
F0.02813666945822468
saF-279.0027131454923
aa(lp177
(dp178
g3
I29
sg4
F0.8793597776417179
sg5
F0.38822720383874837
sg6
F0.7034402932923036
sg7
F4.991163252552154
sg8
F0.14754577144250444
sg9
F0.01564976095855619
saF-112.4996090356002
aa(lp179
(dp180
g3
I23
sg4
F0.9210086837263948
sg5
F0.10611761470124667
sg6
F0.8041931494337211
sg7
F4.6174890264365045
sg8
F0.12900420267560514
sg9
F0.023453590844155547
saF16.477467839416136
aa(lp181
(dp182
g3
I59
sg4
F0.7852977163841037
sg5
F0.1163549090719076
sg6
F0.7064125761477504
sg7
F4.363373534624986
sg8
F0.12042258121612139
sg9
F0.01564976095855619
saF-851.5975544146563
aa(lp183
(dp184
g3
I22
sg4
F0.8696192801316309
sg5
F0.19335119487481595
sg6
F0.4101103375874185
sg7
F4.708199465270241
sg8
F0.07745171545966108
sg9
F0.019555191423914098
saF-359.9564850426299
aa(lp185
(dp186
g3
I29
sg4
F0.905870929495312
sg5
F0.3082434949607704
sg6
F0.40826830541894843
sg7
F4.397195728501364
sg8
F0.0712814061539535
sg9
F0.021647672203584045
saF-392.64391928454893
aa(lp187
(dp188
g3
I28
sg4
F0.8287847302231581
sg5
F0.06036957022654213
sg6
F0.5835771723444378
sg7
F4.6772683935885695
sg8
F0.14871289853034378
sg9
F0.01564976095855619
saF-118.54750088304763
aa(lp189
(dp190
g3
I97
sg4
F0.9849199722052148
sg5
F0.2942792843692874
sg6
F0.5683611836396184
sg7
F3.0681434083329857
sg8
F0.08958059098693477
sg9
F0.019175812576710638
saF-446.463474153181
aa(lp191
(dp192
g3
I28
sg4
F1.0
sg5
F0.23282061714488014
sg6
F0.8578086273959015
sg7
F4.441933927150204
sg8
F0.18211234367399587
sg9
F0.07600174707765138
saF-560.1062384215952
aa(lp193
(dp194
g3
I112
sg4
F0.8287847302231581
sg5
F0.4598409708364442
sg6
F0.47976209466196823
sg7
F4.7999001856180925
sg8
F0.18211234367399587
sg9
F0.013276961061768905
saF-148.31432915378616
aa(lp195
(dp196
g3
I23
sg4
F0.9143923651115791
sg5
F0.19638745805567398
sg6
F0.8068875546172221
sg7
F4.974465003390277
sg8
F0.18211234367399587
sg9
F0.01564976095855619
saF-436.2467418350561
aa(lp197
(dp198
g3
I76
sg4
F0.905870929495312
sg5
F0.23710545993647675
sg6
F0.3367448511019692
sg7
F4.243814800320855
sg8
F0.1365254376577052
sg9
F0.13635373319674657
saF-871.272935772417
aa(lp199
(dp200
g3
I24
sg4
F0.8968760713766485
sg5
F0.1694691159230634
sg6
F0.8578086273959015
sg7
F4.243814800320855
sg8
F0.18211234367399587
sg9
F0.019395596647531474
saF-353.7609822083666
aa(lp201
(dp202
g3
I55
sg4
F0.7418107025450493
sg5
F0.23282061714488014
sg6
F0.7064125761477504
sg7
F4.363373534624986
sg8
F0.08209312916913214
sg9
F0.01564976095855619
saF-882.5155720156296
aa(lp203
(dp204
g3
I28
sg4
F0.7024076456135548
sg5
F0.16366667879215047
sg6
F0.48100917432043694
sg7
F4.974465003390277
sg8
F0.18211234367399587
sg9
F0.01564976095855619
saF-296.17274220932495
aa(lp205
(dp206
g3
I97
sg4
F0.8512038228067774
sg5
F0.0011427475884757121
sg6
F0.5246851789800276
sg7
F1.8747627665687023
sg8
F0.11734969225288075
sg9
F0.020465109975122853
saF34.18745210093243
aa(lp207
(dp208
g3
I28
sg4
F0.9143923651115791
sg5
F0.23282061714488014
sg6
F0.8578086273959015
sg7
F4.982814127971215
sg8
F0.17254977751858638
sg9
F0.07600174707765138
saF-565.4566408460222
aa(lp209
(dp210
g3
I22
sg4
F0.9143923651115791
sg5
F0.1163549090719076
sg6
F0.46074176854112514
sg7
F4.535786499947614
sg8
F0.11531345338669169
sg9
F0.017522678803043833
saF-251.93059112626645
aa(lp211
(dp212
g3
I24
sg4
F0.9891536343594272
sg5
F0.1163549090719076
sg6
F0.7064125761477504
sg7
F4.363373534624986
sg8
F0.11531345338669169
sg9
F0.02176839654431876
saF-18.58548637503884
aa(lp213
(dp214
g3
I112
sg4
F0.9891536343594272
sg5
F0.36211338459754416
sg6
F0.5386358857572038
sg7
F4.243814800320855
sg8
F0.0977006810436688
sg9
F0.01097502623111668
saF-53.61631256023372
aa.