(lp0
(lp1
(dp2
S'history_in_weeks'
p3
I86
sS'end_weight'
p4
F0.8798356971021233
sS'close_match_threshold'
p5
F0.2942792843692874
sS'start_weight'
p6
F0.5683611836396184
sS'over_power_threshold'
p7
F1.3018010513269362
sS'over_power_extra'
p8
F0.09565023466153683
sS'close_match_trim'
p9
F0.0219593504096392
saF1054.1393766982274
aa(lp10
(dp11
g3
I97
sg4
F1.0
sg5
F0.2942792843692874
sg6
F0.5683611836396184
sg7
F1.8747627665687023
sg8
F0.09565023466153683
sg9
F0.020465109975122853
saF201.30304495534347
aa(lp12
(dp13
g3
I112
sg4
F1.0
sg5
F0.2643857983586441
sg6
F0.26612804553845215
sg7
F2.9743929251757084
sg8
F0.06987820258692523
sg9
F0.0036332301103510823
saF191.6711671048099
aa(lp14
(dp15
g3
I20
sg4
F0.9891536343594272
sg5
F0.10611761470124667
sg6
F0.5386358857572038
sg7
F4.243814800320855
sg8
F0.11531345338669169
sg9
F0.027887032130081327
saF151.79104825928903
aa(lp16
(dp17
g3
I20
sg4
F0.9891536343594272
sg5
F0.10611761470124667
sg6
F0.5386358857572038
sg7
F4.243814800320855
sg8
F0.11531345338669169
sg9
F0.027887032130081327
saF151.79104825928903
aa(lp18
(dp19
g3
I20
sg4
F0.9891536343594272
sg5
F0.1185769477988401
sg6
F0.5386358857572038
sg7
F4.243814800320855
sg8
F0.08008790870064592
sg9
F0.019395596647531474
saF126.57940800039296
aa(lp20
(dp21
g3
I112
sg4
F0.654028078590676
sg5
F0.36211338459754416
sg6
F0.26612804553845215
sg7
F2.9743929251757084
sg8
F0.08008790870064592
sg9
F0.006728448811039267
saF113.54937040494042
aa(lp22
(dp23
g3
I20
sg4
F0.9006283351012132
sg5
F0.004384231381176662
sg6
F0.5241193236551391
sg7
F4.441933927150204
sg8
F0.18211234367399587
sg9
F0.01097502623111668
saF81.11828785708758
aa(lp24
(dp25
g3
I112
sg4
F0.8615767813815675
sg5
F0.36211338459754416
sg6
F0.26612804553845215
sg7
F2.9743929251757084
sg8
F0.08008790870064592
sg9
F0.006300291503677169
saF52.053344733879385
aa(lp26
(dp27
g3
I28
sg4
F0.8408440009280831
sg5
F0.004384231381176662
sg6
F0.45966347351203357
sg7
F4.991163252552154
sg8
F0.17254977751858638
sg9
F0.13635373319674657
saF46.614048102299876
aa(lp28
(dp29
g3
I97
sg4
F0.8512038228067774
sg5
F0.0011427475884757121
sg6
F0.5246851789800276
sg7
F1.8747627665687023
sg8
F0.11734969225288075
sg9
F0.020465109975122853
saF34.18745210093243
aa(lp30
(dp31
g3
I124
sg4
F0.905870929495312
sg5
F0.46982668849177683
sg6
F0.2127479336628133
sg7
F4.243814800320855
sg8
F0.100501097796824
sg9
F0.010729483226310288
saF18.393186712546367
aa(lp32
(dp33
g3
I23
sg4
F0.9210086837263948
sg5
F0.10611761470124667
sg6
F0.8041931494337211
sg7
F4.6174890264365045
sg8
F0.12900420267560514
sg9
F0.023453590844155547
saF16.477467839416136
aa(lp34
(dp35
g3
I28
sg4
F0.8287847302231581
sg5
F0.004384231381176662
sg6
F0.46074176854112514
sg7
F4.991163252552154
sg8
F0.18211234367399587
sg9
F0.01564976095855619
saF10.752168247188365
aa(lp36
(dp37
g3
I28
sg4
F0.8287847302231581
sg5
F0.004384231381176662
sg6
F0.46074176854112514
sg7
F4.991163252552154
sg8
F0.18211234367399587
sg9
F0.01564976095855619
saF10.752168247188365
aa(lp38
(dp39
g3
I20
sg4
F0.9891536343594272
sg5
F0.1185769477988401
sg6
F0.5191623564531841
sg7
F4.243814800320855
sg8
F0.08008790870064592
sg9
F0.03354713425506145
saF-3.7793761848560052
aa(lp40
(dp41
g3
I20
sg4
F0.9089691822912926
sg5
F0.1185769477988401
sg6
F0.49968882714916446
sg7
F4.441933927150204
sg8
F0.08008790870064592
sg9
F0.04769867186259143
saF-5.416712923817499
aa(lp42
(dp43
g3
I29
sg4
F0.8793597776417179
sg5
F0.10611761470124667
sg6
F0.5386358857572038
sg7
F4.6174890264365045
sg8
F0.11414632629885235
sg9
F0.017093661816879248
saF-13.762145235886464
aa(lp44
(dp45
g3
I24
sg4
F0.9245998610260737
sg5
F0.4598409708364442
sg6
F0.69086790869083
sg7
F4.250670860216142
sg8
F0.08483424984379034
sg9
F0.02346765293438846
saF-14.620527894986708
aa(lp46
(dp47
g3
I24
sg4
F0.9891536343594272
sg5
F0.1163549090719076
sg6
F0.7064125761477504
sg7
F4.363373534624986
sg8
F0.11531345338669169
sg9
F0.02176839654431876
saF-18.58548637503884
aa(lp48
(dp49
g3
I29
sg4
F0.8793597776417179
sg5
F0.33523013209447217
sg6
F0.7034402932923036
sg7
F4.991163252552154
sg8
F0.11297919921101303
sg9
F0.006300291503677169
saF-43.07944163099546
aa(lp50
(dp51
g3
I25
sg4
F0.8493012934813533
sg5
F0.0945127404394208
sg6
F0.4101103375874185
sg7
F4.991163252552154
sg8
F0.07745171545966108
sg9
F0.01564976095855619
saF-44.30339050523446
aa(lp52
(dp53
g3
I20
sg4
F0.8793597776417179
sg5
F0.10611761470124667
sg6
F0.5386358857572038
sg7
F4.243814800320855
sg8
F0.11531345338669169
sg9
F0.019395596647531474
saF-45.45952700316775
aa(lp54
(dp55
g3
I28
sg4
F0.7672956367445872
sg5
F0.004384231381176662
sg6
F0.458585178482942
sg7
F4.991163252552154
sg8
F0.18211234367399587
sg9
F0.13635373319674657
saF-47.01240450586488
aa(lp56
(dp57
g3
I112
sg4
F0.827014039295338
sg5
F0.23789353701038726
sg6
F0.5619683364671768
sg7
F4.974465003390277
sg8
F0.1629872113631769
sg9
F0.006728448811039267
saF-51.39570506549853
aa(lp58
(dp59
g3
I112
sg4
F0.9891536343594272
sg5
F0.36211338459754416
sg6
F0.5386358857572038
sg7
F4.243814800320855
sg8
F0.0977006810436688
sg9
F0.01097502623111668
saF-53.61631256023372
aa(lp60
(dp61
g3
I29
sg4
F0.8793597776417179
sg5
F0.10611761470124667
sg6
F0.5386358857572038
sg7
F4.243814800320855
sg8
F0.11531345338669169
sg9
F0.01824462923220536
saF-58.376466602599976
aa(lp62
(dp63
g3
I124
sg4
F0.930627109373996
sg5
F0.35096964480029363
sg6
F0.5386358857572038
sg7
F4.3141824809699205
sg8
F0.100501097796824
sg9
F0.015062539936920881
saF-59.70398664318873
aa(lp64
(dp65
g3
I20
sg4
F0.9553832892526799
sg5
F0.23211260110881043
sg6
F0.5386358857572038
sg7
F4.384550161618987
sg8
F0.08008790870064592
sg9
F0.019395596647531474
saF-73.44681934682023
aa(lp66
(dp67
g3
I112
sg4
F0.8793597776417179
sg5
F0.14824398420826126
sg6
F0.7064125761477504
sg7
F4.33636679791546
sg8
F0.06895107441710631
sg9
F0.014883972219032815
saF-74.83473047280984
aa(lp68
(dp69
g3
I112
sg4
F0.8615767813815675
sg5
F0.36211338459754416
sg6
F0.5241193236551391
sg7
F2.9743929251757084
sg8
F0.08008790870064592
sg9
F0.01097502623111668
saF-84.43964017365874
aa(lp70
(dp71
g3
I112
sg4
F0.8793597776417179
sg5
F0.40533754273973244
sg6
F0.47976209466196823
sg7
F4.466002460789552
sg8
F0.08008790870064592
sg9
F0.008602226334329393
saF-85.77839731945267
aa(lp72
(dp73
g3
I23
sg4
F1.0
sg5
F0.24296645687589438
sg6
F0.8578086273959015
sg7
F4.281639880702032
sg8
F0.1438620790523579
sg9
F0.023453590844155547
saF-88.09732901783013
aa(lp74
(dp75
g3
I22
sg4
F0.9116807737014359
sg5
F0.06148058959000838
sg6
F0.46074176854112514
sg7
F4.708199465270241
sg8
F0.12631884310961616
sg9
F0.04769867186259143
saF-98.00566317103448
aa(lp76
(dp77
g3
I94
sg4
F0.8287847302231581
sg5
F0.004384231381176662
sg6
F0.7064125761477504
sg7
F4.568133491766776
sg8
F0.12553170904555108
sg9
F0.01564976095855619
saF-101.16279271312715
aa(lp78
(dp79
g3
I20
sg4
F0.8793597776417179
sg5
F0.10611761470124667
sg6
F0.47976209466196823
sg7
F4.247242830268499
sg8
F0.11531345338669169
sg9
F0.010904161164981618
saF-109.13994469354395
aa(lp80
(dp81
g3
I23
sg4
F0.9210086837263948
sg5
F0.23123482706395587
sg6
F0.8041931494337211
sg7
F4.142955011899762
sg8
F0.1438620790523579
sg9
F0.023453590844155547
saF-111.46120648329043
aa(lp82
(dp83
g3
I23
sg4
F0.9210086837263948
sg5
F0.23123482706395587
sg6
F0.8041931494337211
sg7
F4.142955011899762
sg8
F0.1438620790523579
sg9
F0.023453590844155547
saF-111.46120648329043
aa(lp84
(dp85
g3
I20
sg4
F0.9216129441459326
sg5
F0.23211260110881043
sg6
F0.551729085800213
sg7
F4.525285522917118
sg8
F0.08008790870064592
sg9
F0.027887032130081327
saF-111.51832861916137
aa(lp86
(dp87
g3
I29
sg4
F0.8793597776417179
sg5
F0.38822720383874837
sg6
F0.7034402932923036
sg7
F4.991163252552154
sg8
F0.14754577144250444
sg9
F0.01564976095855619
saF-112.4996090356002
aa(lp88
(dp89
g3
I112
sg4
F0.8704682795116427
sg5
F0.36211338459754416
sg6
F0.47976209466196823
sg7
F2.9743929251757084
sg8
F0.08008790870064592
sg9
F0.008602226334329393
saF-112.98594179630413
aa(lp90
(dp91
g3
I28
sg4
F0.8287847302231581
sg5
F0.06036957022654213
sg6
F0.5835771723444378
sg7
F4.6772683935885695
sg8
F0.14871289853034378
sg9
F0.01564976095855619
saF-118.54750088304763
aa(lp92
(dp93
g3
I29
sg4
F0.9143923651115791
sg5
F0.21061929335250007
sg6
F0.7034402932923036
sg7
F4.991163252552154
sg8
F0.14587048972138014
sg9
F0.01564976095855619
saF-120.93312436737995
aa(lp94
(dp95
g3
I22
sg4
F0.9143923651115791
sg5
F0.004384231381176662
sg6
F0.46074176854112514
sg7
F4.708199465270241
sg8
F0.17254977751858638
sg9
F0.01955167590135587
saF-129.2778174567611
aa(lp96
(dp97
g3
I20
sg4
F0.654028078590676
sg5
F0.10611761470124667
sg6
F0.35947890663371185
sg7
F4.243814800320855
sg8
F0.11531345338669169
sg9
F0.008012920733125562
saF-136.8974533391331
aa(lp98
(dp99
g3
I24
sg4
F0.9698399444104295
sg5
F0.2195031972520174
sg6
F0.9019737227196918
sg7
F4.186681302279078
sg8
F0.08958059098693477
sg9
F0.02346765293438846
saF-140.68370889551034
aa(lp100
(dp101
g3
I28
sg4
F0.7024076456135548
sg5
F0.0945127404394208
sg6
F0.48100917432043694
sg7
F4.991163252552154
sg8
F0.13904914984422467
sg9
F0.01564976095855619
saF-142.37026891062942
aa(lp102
(dp103
g3
I23
sg4
F1.0
sg5
F0.2459374508723161
sg6
F0.7660341085873001
sg7
F3.764725485874126
sg8
F0.06953254620510511
sg9
F0.02346765293438846
saF-147.55619482155612
aa(lp104
(dp105
g3
I112
sg4
F0.8287847302231581
sg5
F0.4598409708364442
sg6
F0.47976209466196823
sg7
F4.7999001856180925
sg8
F0.18211234367399587
sg9
F0.013276961061768905
saF-148.31432915378616
aa(lp106
(dp107
g3
I112
sg4
F0.8493012934813533
sg5
F0.166902184424367
sg6
F0.5582614568675844
sg7
F4.261524050097269
sg8
F0.08958059098693477
sg9
F0.019175812576710638
saF-153.9222156340104
aa(lp108
(dp109
g3
I97
sg4
F0.5451506272603244
sg5
F0.03075615890750892
sg6
F0.5246851789800276
sg7
F3.276015580078636
sg8
F0.11734969225288075
sg9
F0.020465109975122853
saF-18.680330417802452
aa(lp110
(dp111
g3
I23
sg4
F1.0
sg5
F0.24296645687589438
sg6
F0.5246851789800276
sg7
F1.8747627665687023
sg8
F0.11734969225288075
sg9
F0.0219593504096392
saF-607.6182892873126
aa(lp112
(dp113
g3
I20
sg4
F0.905870929495312
sg5
F0.46982668849177683
sg6
F0.35621838040598885
sg7
F4.34287436373553
sg8
F0.100501097796824
sg9
F0.25380222136817027
saF-786.3429715255921
aa(lp114
(dp115
g3
I28
sg4
F0.8450726472047182
sg5
F0.2610607829609633
sg6
F0.45966347351203357
sg7
F4.991163252552154
sg8
F0.12500074648912374
sg9
F0.01564976095855619
saF-352.81679304269176
aa(lp116
(dp117
g3
I25
sg4
F0.7672956367445872
sg5
F0.004384231381176662
sg6
F0.458585178482942
sg7
F1.9146980907637001
sg8
F0.18211234367399587
sg9
F0.01564976095855619
saF-656.5066856039175
aa(lp118
(dp119
g3
I24
sg4
F0.8749065916096879
sg5
F0.36334644940805993
sg6
F0.479676150330599
sg7
F4.441933927150204
sg8
F0.17254977751858638
sg9
F0.13635373319674657
saF-796.9399820689936
aa(lp120
(dp121
g3
I70
sg4
F0.7024076456135548
sg5
F0.2283130625184825
sg6
F0.48100917432043694
sg7
F4.991163252552154
sg8
F0.1095685292724353
sg9
F0.006728448811039267
saF-464.8779284023957
aa(lp122
(dp123
g3
I23
sg4
F0.939679888820859
sg5
F0.17454203578857053
sg6
F0.6982222565765526
sg7
F4.281639880702032
sg8
F0.11531345338669169
sg9
F0.023453590844155547
saF-140.05551059807146
aa(lp124
(dp125
g3
I22
sg4
F0.9116807737014359
sg5
F0.34868612073443733
sg6
F0.46074176854112514
sg7
F1.8747627665687023
sg8
F0.1109845388855765
sg9
F0.04769867186259143
saF-476.7957338116448
aa(lp126
(dp127
g3
I20
sg4
F0.9945768171797136
sg5
F0.1822571993355781
sg6
F0.7660341085873001
sg7
F3.764725485874126
sg8
F0.08008790870064592
sg9
F0.028507393594724956
saF-345.63285503331076
aa(lp128
(dp129
g3
I112
sg4
F0.9116807737014359
sg5
F0.36211338459754416
sg6
F0.26612804553845215
sg7
F2.9743929251757084
sg8
F0.12631884310961616
sg9
F0.006300291503677169
saF57.27928906298257
aa(lp130
(dp131
g3
I97
sg4
F0.8512038228067774
sg5
F0.23123482706395587
sg6
F0.3465138990428954
sg7
F3.008858889234232
sg8
F0.11734969225288075
sg9
F0.023453590844155547
saF-679.6501647950556
aa(lp132
(dp133
g3
I28
sg4
F0.8165173774937754
sg5
F0.0945127404394208
sg6
F0.48100917432043694
sg7
F2.759220401475001
sg8
F0.13904914984422467
sg9
F0.015062539936920881
saF-240.46775061954122
aa(lp134
(dp135
g3
I20
sg4
F0.654028078590676
sg5
F0.10611761470124667
sg6
F0.5619683364671768
sg7
F4.974465003390277
sg8
F0.11531345338669169
sg9
F0.008012920733125562
saF-293.21715470420475
aa(lp136
(dp137
g3
I112
sg4
F0.8493012934813533
sg5
F0.08564320790277183
sg6
F0.5095016127043548
sg7
F4.991163252552154
sg8
F0.13584646733046532
sg9
F0.019175812576710638
saF-379.615842440357
aa(lp138
(dp139
g3
I112
sg4
F0.8793597776417179
sg5
F0.36211338459754416
sg6
F0.591601193977136
sg7
F4.991163252552154
sg8
F0.11297919921101303
sg9
F0.008602226334329393
saF-99.74514975693842
aa(lp140
(dp141
g3
I20
sg4
F0.905870929495312
sg5
F0.23211260110881043
sg6
F0.5386358857572038
sg7
F4.3141824809699205
sg8
F0.09029450324873495
sg9
F0.015062539936920881
saF-489.02660690012283
aa(lp142
(dp143
g3
I25
sg4
F0.8287847302231581
sg5
F0.03293241048559252
sg6
F0.46074176854112514
sg7
F4.708199465270241
sg8
F0.15421559339180602
sg9
F0.01564976095855619
saF-15.032014490357824
aa(lp144
(dp145
g3
I67
sg4
F0.9517729997355031
sg5
F0.36211338459754416
sg6
F0.5386358857572038
sg7
F4.476007132795548
sg8
F0.17254977751858638
sg9
F0.01955167590135587
saF-534.6466081481215
aa(lp146
(dp147
g3
I22
sg4
F0.8818468292964662
sg5
F0.004384231381176662
sg6
F0.4101103375874185
sg7
F4.708199465270241
sg8
F0.17254977751858638
sg9
F0.01760071842995603
saF-250.36667785263944
aa(lp148
(dp149
g3
I24
sg4
F0.9216129441459326
sg5
F0.23211260110881043
sg6
F0.551729085800213
sg7
F4.991163252552154
sg8
F0.18211234367399587
sg9
F0.02176839654431876
saF79.61501102880175
aa(lp150
(dp151
g3
I28
sg4
F0.8793597776417179
sg5
F0.22429838703264526
sg6
F0.5835771723444378
sg7
F4.991163252552154
sg8
F0.1481293349864241
sg9
F0.01564976095855619
saF-320.8578892954115
aa(lp152
(dp153
g3
I112
sg4
F0.8287847302231581
sg5
F0.4598409708364442
sg6
F0.26612804553845215
sg7
F4.7999001856180925
sg8
F0.08008790870064592
sg9
F0.006300291503677169
saF-18.562963189786956
aa(lp154
(dp155
g3
I58
sg4
F0.8512038228067774
sg5
F0.0011427475884757121
sg6
F0.5316605323686157
sg7
F1.8747627665687023
sg8
F0.08008790870064592
sg9
F0.019930353311327163
saF-775.7120749619505
aa(lp156
(dp157
g3
I25
sg4
F0.9204220004640415
sg5
F0.12367534412853552
sg6
F0.8578086273959015
sg7
F4.991163252552154
sg8
F0.15820592828547214
sg9
F0.13635373319674657
saF-747.1829805710322
aa(lp158
(dp159
g3
I20
sg4
F0.9216129441459326
sg5
F0.23211260110881043
sg6
F0.5386358857572038
sg7
F2.5437790440136294
sg8
F0.08008790870064592
sg9
F0.019395596647531474
saF-454.68885154484656
aa(lp160
(dp161
g3
I124
sg4
F0.918249019434654
sg5
F0.46982668849177683
sg6
F0.37569190971000854
sg7
F4.278998640645388
sg8
F0.100501097796824
sg9
F0.015062539936920881
saF-34.19581885141065
aa(lp162
(dp163
g3
I97
sg4
F0.8512038228067774
sg5
F0.0011427475884757121
sg6
F0.5246851789800276
sg7
F3.2461258965026034
sg8
F0.11574800927586655
sg9
F0.017093661816879248
saF-461.0624278788489
aa(lp164
(dp165
g3
I28
sg4
F0.9891536343594272
sg5
F0.10611761470124667
sg6
F0.5386358857572038
sg7
F4.460541596954712
sg8
F0.14871289853034378
sg9
F0.02176839654431876
saF202.0048512979106
aa(lp166
(dp167
g3
I66
sg4
F0.9891536343594272
sg5
F0.17200557585581697
sg6
F0.5503021111121903
sg7
F4.609139901855566
sg8
F0.11531345338669169
sg9
F0.04675849586155132
saF-810.4494587297556
aa(lp168
(dp169
g3
I67
sg4
F0.827014039295338
sg5
F0.23789353701038726
sg6
F0.5619683364671768
sg7
F4.628052442046155
sg8
F0.1629872113631769
sg9
F0.015091019827597408
saF-725.7704107170745
aa(lp170
(dp171
g3
I70
sg4
F0.853186908468528
sg5
F0.23789353701038726
sg6
F0.5619683364671768
sg7
F4.974465003390277
sg8
F0.11414632629885235
sg9
F0.006728448811039267
saF-489.66007588098495
aa(lp172
(dp173
g3
I86
sg4
F0.8798356971021233
sg5
F0.2942792843692874
sg6
F0.5683611836396184
sg7
F1.3018010513269362
sg8
F0.09565023466153683
sg9
F0.0219593504096392
saF1054.1393766982274
aa(lp174
(dp175
g3
I23
sg4
F0.844366845196876
sg5
F0.10611761470124667
sg6
F0.8041931494337211
sg7
F4.243814800320855
sg8
F0.11531345338669169
sg9
F0.023453590844155547
saF-70.26576511613348
aa(lp176
(dp177
g3
I20
sg4
F0.9216129441459326
sg5
F0.16331267077411563
sg6
F0.48100917432043694
sg7
F4.758224387734636
sg8
F0.13904914984422467
sg9
F0.027887032130081327
saF-424.10571860959374
aa(lp178
(dp179
g3
I24
sg4
F0.8287847302231581
sg5
F0.06036957022654213
sg6
F0.5611065290508208
sg7
F4.6772683935885695
sg8
F0.13201317595851775
sg9
F0.01564976095855619
saF-212.91157797472863
aa(lp180
(dp181
g3
I20
sg4
F0.9608064720729663
sg5
F0.23211260110881043
sg6
F0.5683611836396184
sg7
F4.525285522917118
sg8
F0.08786907168109137
sg9
F0.027887032130081327
saF-232.4448977798146
aa(lp182
(dp183
g3
I26
sg4
F0.8793597776417179
sg5
F0.23123482706395587
sg6
F0.8041931494337211
sg7
F4.6174890264365045
sg8
F0.11414632629885235
sg9
F0.017093661816879248
saF-201.010514004755
aa(lp184
(dp185
g3
I20
sg4
F0.8793597776417179
sg5
F0.06036957022654213
sg6
F0.5386358857572038
sg7
F4.243814800320855
sg8
F0.11531345338669169
sg9
F0.017522678803043833
saF-59.057581390677456
aa(lp186
(dp187
g3
I112
sg4
F0.8615767813815675
sg5
F0.36211338459754416
sg6
F0.5241193236551391
sg7
F2.9743929251757084
sg8
F0.08008790870064592
sg9
F0.006300291503677169
saF-516.9347599890098
aa(lp188
(dp189
g3
I20
sg4
F0.8793597776417179
sg5
F0.10611761470124667
sg6
F0.5386358857572038
sg7
F4.43065191337868
sg8
F0.11472988984277202
sg9
F0.01824462923220536
saF-92.4462689437944
aa(lp190
(dp191
g3
I72
sg4
F0.654028078590676
sg5
F0.46982668849177683
sg6
F0.2127479336628133
sg7
F4.243814800320855
sg8
F0.10790727559175783
sg9
F0.008012920733125562
saF-679.1994022034132
aa(lp192
(dp193
g3
I58
sg4
F0.8287847302231581
sg5
F0.004384231381176662
sg6
F0.7064125761477504
sg7
F4.638166478518508
sg8
F0.14904074328206873
sg9
F0.01760071842995603
saF-749.7191642173076
aa(lp194
(dp195
g3
I20
sg4
F0.9891536343594272
sg5
F0.11234728125004338
sg6
F0.5191623564531841
sg7
F4.243814800320855
sg8
F0.08008790870064592
sg9
F0.010904161164981618
saF-234.86212819252057
aa(lp196
(dp197
g3
I20
sg4
F0.8793597776417179
sg5
F0.10611761470124667
sg6
F0.5386358857572038
sg7
F4.243814800320855
sg8
F0.11531345338669169
sg9
F0.0236413143888064
saF-149.32461668867836
aa(lp198
(dp199
g3
I112
sg4
F0.8287847302231581
sg5
F0.21124147741204313
sg6
F0.5611065290508208
sg7
F4.243814800320855
sg8
F0.12320678978700629
sg9
F0.01564976095855619
saF-114.45331039676171
aa(lp200
(dp201
g3
I22
sg4
F0.870232751962297
sg5
F0.2606607802132263
sg6
F0.47976209466196823
sg7
F4.708199465270241
sg8
F0.18211234367399587
sg9
F0.013276961061768905
saF-328.5827914044853
aa(lp202
(dp203
g3
I20
sg4
F0.8793597776417179
sg5
F0.10611761470124667
sg6
F0.5098225300388204
sg7
F4.243814800320855
sg8
F0.11531345338669169
sg9
F0.017522678803043833
saF-111.33920605736898
aa(lp204
(dp205
g3
I22
sg4
F0.9794967893849283
sg5
F0.16281040597663204
sg6
F0.5386358857572038
sg7
F4.186681302279078
sg8
F0.11531345338669169
sg9
F0.02346765293438846
saF39.12293871681413
aa(lp206
(dp207
g3
I66
sg4
F0.8615767813815675
sg5
F0.29711299285317727
sg6
F0.5313776047061715
sg7
F2.9743929251757084
sg8
F0.08008790870064592
sg9
F0.015185311439324077
saF-482.7224723019997
aa.