(lp0
(lp1
(dp2
S'history_in_weeks'
p3
I97
sS'end_weight'
p4
F1.0
sS'close_match_threshold'
p5
F0.2942792843692874
sS'start_weight'
p6
F0.5683611836396184
sS'over_power_threshold'
p7
F1.8747627665687023
sS'over_power_extra'
p8
F0.09565023466153683
sS'close_match_trim'
p9
F0.020465109975122853
saF201.30304495534347
aa(lp10
(dp11
g3
I112
sg4
F1.0
sg5
F0.2643857983586441
sg6
F0.26612804553845215
sg7
F2.9743929251757084
sg8
F0.06987820258692523
sg9
F0.0036332301103510823
saF191.6711671048099
aa(lp12
(dp13
g3
I20
sg4
F0.9891536343594272
sg5
F0.10611761470124667
sg6
F0.5386358857572038
sg7
F4.243814800320855
sg8
F0.11531345338669169
sg9
F0.027887032130081327
saF151.79104825928903
aa(lp14
(dp15
g3
I112
sg4
F0.8615767813815675
sg5
F0.36211338459754416
sg6
F0.26612804553845215
sg7
F2.9743929251757084
sg8
F0.08008790870064592
sg9
F0.006300291503677169
saF52.053344733879385
aa(lp16
(dp17
g3
I28
sg4
F0.8287847302231581
sg5
F0.004384231381176662
sg6
F0.46074176854112514
sg7
F4.991163252552154
sg8
F0.18211234367399587
sg9
F0.01564976095855619
saF10.752168247188365
aa(lp18
(dp19
g3
I29
sg4
F0.8793597776417179
sg5
F0.33523013209447217
sg6
F0.7034402932923036
sg7
F4.991163252552154
sg8
F0.11297919921101303
sg9
F0.006300291503677169
saF-43.07944163099546
aa(lp20
(dp21
g3
I28
sg4
F0.7672956367445872
sg5
F0.004384231381176662
sg6
F0.458585178482942
sg7
F4.991163252552154
sg8
F0.18211234367399587
sg9
F0.13635373319674657
saF-47.01240450586488
aa(lp22
(dp23
g3
I112
sg4
F0.8793597776417179
sg5
F0.14824398420826126
sg6
F0.7064125761477504
sg7
F4.33636679791546
sg8
F0.06895107441710631
sg9
F0.014883972219032815
saF-74.83473047280984
aa(lp24
(dp25
g3
I112
sg4
F0.8615767813815675
sg5
F0.36211338459754416
sg6
F0.5241193236551391
sg7
F2.9743929251757084
sg8
F0.08008790870064592
sg9
F0.01097502623111668
saF-84.43964017365874
aa(lp26
(dp27
g3
I112
sg4
F0.8793597776417179
sg5
F0.40533754273973244
sg6
F0.47976209466196823
sg7
F4.466002460789552
sg8
F0.08008790870064592
sg9
F0.008602226334329393
saF-85.77839731945267
aa(lp28
(dp29
g3
I23
sg4
F1.0
sg5
F0.24296645687589438
sg6
F0.8578086273959015
sg7
F4.281639880702032
sg8
F0.1438620790523579
sg9
F0.023453590844155547
saF-88.09732901783013
aa(lp30
(dp31
g3
I29
sg4
F0.9143923651115791
sg5
F0.21061929335250007
sg6
F0.7034402932923036
sg7
F4.991163252552154
sg8
F0.14587048972138014
sg9
F0.01564976095855619
saF-120.93312436737995
aa(lp32
(dp33
g3
I24
sg4
F0.7418107025450493
sg5
F0.1163549090719076
sg6
F0.7064125761477504
sg7
F4.363373534624986
sg8
F0.11531345338669169
sg9
F0.01564976095855619
saF-171.70565545195996
aa(lp34
(dp35
g3
I28
sg4
F0.8420173674527895
sg5
F0.2195031972520174
sg6
F0.8041931494337211
sg7
F4.004270143097491
sg8
F0.11531345338669169
sg9
F0.03256176685752084
saF-177.44057045858483
aa(lp36
(dp37
g3
I94
sg4
F0.8287847302231581
sg5
F0.004384231381176662
sg6
F0.649882477024476
sg7
F4.7999001856180925
sg8
F0.18211234367399587
sg9
F0.01564976095855619
saF-188.10567973925833
aa(lp38
(dp39
g3
I20
sg4
F0.8287847302231581
sg5
F0.004384231381176662
sg6
F0.46074176854112514
sg7
F4.441933927150204
sg8
F0.18211234367399587
sg9
F0.07600174707765138
saF-206.92859702485407
aa(lp40
(dp41
S'history_in_weeks'
p42
I142
sS'end_weight'
p43
F0.905870929495312
sS'close_match_threshold'
p44
F0.46982668849177683
sS'start_weight'
p45
F0.2127479336628133
sS'over_power_threshold'
p46
F2.662242443329407
sS'over_power_extra'
p47
F0.0712814061539535
sS'close_match_trim'
p48
F0.015158674948943407
saF-208.4349504372192
aa(lp49
(dp50
g3
I86
sg4
F1.0
sg5
F0.23282061714488014
sg6
F0.8578086273959015
sg7
F1.3018010513269362
sg8
F0.048872804951572604
sg9
F0.023453590844155547
saF-216.2153355259286
aa(lp51
(dp52
g3
I29
sg4
F0.9143923651115791
sg5
F0.14666030142976405
sg6
F0.6037886771750836
sg7
F4.397195728501364
sg8
F0.16399141669768802
sg9
F0.02813666945822468
saF-219.08289814706893
aa(lp53
(dp54
g3
I112
sg4
F0.8793597776417179
sg5
F0.4598409708364442
sg6
F0.47976209466196823
sg7
F4.250670860216142
sg8
F0.08008790870064592
sg9
F0.010904161164981618
saF-222.6328059306802
aa(lp55
(dp56
g3
I28
sg4
F0.9143923651115791
sg5
F0.23282061714488014
sg6
F0.8578086273959015
sg7
F4.974465003390277
sg8
F0.18211234367399587
sg9
F0.01564976095855619
saF-237.07828350181558
aa(lp57
(dp58
g3
I29
sg4
F0.9891536343594272
sg5
F0.33523013209447217
sg6
F0.7106165790864997
sg7
F4.991163252552154
sg8
F0.11531345338669169
sg9
F0.006300291503677169
saF-241.6731822292802
aa(lp59
(dp60
g3
I23
sg4
F0.9605043418631973
sg5
F0.21379098323168894
sg6
F0.7064125761477504
sg7
F3.708865798957105
sg8
F0.1438620790523579
sg9
F0.010580732328964705
saF-242.77410270423798
aa(lp61
(dp62
g3
I76
sg4
F0.8287847302231581
sg5
F0.004384231381176662
sg6
F0.649882477024476
sg7
F4.7999001856180925
sg8
F0.18211234367399587
sg9
F0.01564976095855619
saF-243.81303506984102
aa(lp63
(dp64
g3
I25
sg4
F1.0
sg5
F0.23789353701038726
sg6
F0.8578086273959015
sg7
F4.974465003390277
sg8
F0.1629872113631769
sg9
F0.01955167590135587
saF-248.68718040867316
aa(lp65
(dp66
g3
I25
sg4
F1.0
sg5
F0.23789353701038726
sg6
F0.8578086273959015
sg7
F4.974465003390277
sg8
F0.1629872113631769
sg9
F0.01955167590135587
saF-248.68718040867316
aa(lp67
(dp68
g3
I20
sg4
F0.654028078590676
sg5
F0.2156156064796328
sg6
F0.35947890663371185
sg7
F4.243814800320855
sg8
F0.1553218564370387
sg9
F0.008012920733125562
saF-251.11751749527411
aa(lp69
(dp70
g3
I20
sg4
F0.8420173674527895
sg5
F0.10611761470124667
sg6
F0.35947890663371185
sg7
F4.243814800320855
sg8
F0.11531345338669169
sg9
F0.027887032130081327
saF-253.70839542525664
aa(lp71
(dp72
g3
I21
sg4
F1.0
sg5
F0.2459374508723161
sg6
F0.6742595897786987
sg7
F3.764725485874126
sg8
F0.06953254620510511
sg9
F0.02346765293438846
saF-259.53121484751773
aa(lp73
(dp74
g3
I112
sg4
F0.854072253932438
sg5
F0.23211260110881043
sg6
F0.5648222858432221
sg7
F4.525285522917118
sg8
F0.08008790870064592
sg9
F0.01564976095855619
saF-260.6742499068672
aa(lp75
(dp76
g3
I106
sg4
F1.0
sg5
F0.09588032033058574
sg6
F0.35947890663371185
sg7
F4.6086371186840305
sg8
F0.100501097796824
sg9
F0.006300291503677169
saF-263.44742110524464
aa(lp77
(dp78
g3
I28
sg4
F0.7418107025450493
sg5
F0.1163549090719076
sg6
F0.7064125761477504
sg7
F4.482932268929117
sg8
F0.18211234367399587
sg9
F0.01564976095855619
saF-267.1397464083682
aa(lp79
(dp80
g3
I112
sg4
F0.654028078590676
sg5
F0.09588032033058574
sg6
F0.5012765800997487
sg7
F4.243814800320855
sg8
F0.1553218564370387
sg9
F0.007156606118401365
saF-270.7604526840138
aa(lp81
(dp82
g3
I103
sg4
F0.5760305610039516
sg5
F0.18464124949766494
sg6
F0.5012765800997487
sg7
F4.6086371186840305
sg8
F0.09598595601445348
sg9
F0.010580732328964705
saF-272.20761895398584
aa(lp83
(dp84
g3
I70
sg4
F0.7418107025450493
sg5
F0.09588032033058574
sg6
F0.7064125761477504
sg7
F4.363373534624986
sg8
F0.1553218564370387
sg9
F0.007156606118401365
saF-283.66130993731895
aa(lp85
(dp86
g3
I106
sg4
F0.8715885476673686
sg5
F0.10611761470124667
sg6
F0.7559664818385428
sg7
F4.243814800320855
sg8
F0.100501097796824
sg9
F0.006300291503677169
saF-295.201225411021
aa(lp87
(dp88
g3
I20
sg4
F0.8287847302231581
sg5
F0.3245302569888828
sg6
F0.46074176854112514
sg7
F4.441933927150204
sg8
F0.14130672073540992
sg9
F0.006300291503677169
saF-298.25776553436776
aa(lp89
(dp90
g3
I28
sg4
F1.0
sg5
F0.15769175879130157
sg6
F0.6307263146767018
sg7
F3.764725485874126
sg8
F0.10506486678279421
sg9
F0.01097502623111668
saF-298.95498771157645
aa(lp91
(dp92
g3
I15
sg4
F0.8654821684522382
sg5
F0.3341831429533306
sg6
F0.7177928648806957
sg7
F3.9913995344679574
sg8
F0.034000225627416024
sg9
F0.02346765293438846
saF-303.67660110856093
aa(lp93
(dp94
g3
I117
sg4
F0.9166740572055467
sg5
F0.1163549090719076
sg6
F0.7064125761477504
sg7
F3.4960172099583824
sg8
F0.034000225627416024
sg9
F0.03647071284543697
saF-306.12915387079374
aa(lp95
(dp96
g3
I28
sg4
F0.9143923651115791
sg5
F0.1163549090719076
sg6
F0.782110601771826
sg7
F4.243814800320855
sg8
F0.18211234367399587
sg9
F0.01564976095855619
saF-310.4645825446662
aa(lp97
(dp98
g3
I28
sg4
F0.8568029575600791
sg5
F0.1679290531619625
sg6
F0.5961104696796222
sg7
F4.243814800320855
sg8
F0.1553218564370387
sg9
F0.023151158879859687
saF-317.1512623611196
aa(lp99
(dp100
g3
I29
sg4
F0.9517729997355031
sg5
F0.19642238036673237
sg6
F0.7163067234529723
sg7
F4.991163252552154
sg8
F0.09440244016750501
sg9
F0.048680727945182994
saF-320.9932492030508
aa(lp101
(dp102
g3
I28
sg4
F0.939679888820859
sg5
F0.2195031972520174
sg6
F0.9019737227196918
sg7
F4.186681302279078
sg8
F0.10962863576876443
sg9
F0.006300291503677169
saF-321.3403976482481
aa(lp103
(dp104
g3
I29
sg4
F0.788410448842823
sg5
F0.012476839697454278
sg6
F0.5069938763777166
sg7
F3.2966345213829737
sg8
F0.14587048972138014
sg9
F0.06103431015155143
saF-336.62297751332846
aa(lp105
(dp106
g3
I20
sg4
F0.8420173674527895
sg5
F0.1163549090719076
sg6
F0.7064125761477504
sg7
F4.243814800320855
sg8
F0.11531345338669169
sg9
F0.049473772756485485
saF-342.8817000081456
aa(lp107
(dp108
g3
I112
sg4
F0.7231535627631349
sg5
F0.4598409708364442
sg6
F0.5291464459572062
sg7
F4.300018326575994
sg8
F0.08008790870064592
sg9
F0.006300291503677169
saF-349.979239845199
aa(lp109
(dp110
g42
I88
sg43
F0.9527369482328248
sg44
F0.388485226576217
sg45
F0.0783814679670829
sg46
F4.35320899337597
sg47
F0.10313558071462142
sg48
F0.042807748519751866
saF-350.5105031660762
aa(lp111
(dp112
g3
I20
sg4
F0.9891536343594272
sg5
F0.1163549090719076
sg6
F0.7177928648806957
sg7
F4.243814800320855
sg8
F0.11531345338669169
sg9
F0.07519290312937957
saF-352.6044923927932
aa(lp113
(dp114
g3
I28
sg4
F1.0
sg5
F0.2195031972520174
sg6
F0.9019737227196918
sg7
F3.764725485874126
sg8
F0.10962863576876443
sg9
F0.01564976095855619
saF-353.7610188833612
aa(lp115
(dp116
g3
I20
sg4
F0.939679888820859
sg5
F0.004384231381176662
sg6
F0.46074176854112514
sg7
F4.441933927150204
sg8
F0.18211234367399587
sg9
F0.07600174707765138
saF-245.29242596706922
aa(lp117
(dp118
g3
I21
sg4
F1.0
sg5
F0.3341831429533306
sg6
F0.6742595897786987
sg7
F3.9913995344679574
sg8
F0.06953254620510511
sg9
F0.02346765293438846
saF-397.4853556537536
aa(lp119
(dp120
g3
I112
sg4
F0.7231535627631349
sg5
F0.40918570655192305
sg6
F0.5487538147984123
sg7
F1.8747627665687023
sg8
F0.08786907168109137
sg9
F0.006300291503677169
saF-640.0462638464796
aa(lp121
(dp122
g3
I106
sg4
F1.0
sg5
F0.4598409708364442
sg6
F0.9925704661964477
sg7
F4.6086371186840305
sg8
F0.08008790870064592
sg9
F0.008602226334329393
saF-554.696987432767
aa(lp123
(dp124
g3
I24
sg4
F0.9698399444104295
sg5
F0.2195031972520174
sg6
F0.9019737227196918
sg7
F4.186681302279078
sg8
F0.08958059098693477
sg9
F0.02346765293438846
saF-140.68370889551034
aa(lp125
(dp126
g3
I49
sg4
F0.8105852400933836
sg5
F0.33968477047005396
sg6
F0.704926434720027
sg7
F4.363373534624986
sg8
F0.11297919921101303
sg9
F0.006728448811039267
saF-663.9092657947024
aa(lp127
(dp128
g3
I28
sg4
F0.9143923651115791
sg5
F0.35995855685896094
sg6
F0.6037886771750836
sg7
F4.397195728501364
sg8
F0.11531345338669169
sg9
F0.03256176685752084
saF-498.6168546490296
aa(lp129
(dp130
g3
I15
sg4
F0.8654821684522382
sg5
F0.27240121815291535
sg6
F0.7034402932923036
sg7
F3.9913995344679574
sg8
F0.08993535767439809
sg9
F0.02346765293438846
saF-229.4955147288747
aa(lp131
(dp132
g3
I106
sg4
F0.5760305610039516
sg5
F0.14026078491412536
sg6
F0.35947890663371185
sg7
F4.6086371186840305
sg8
F0.100501097796824
sg9
F0.010580732328964705
saF-558.5626573461989
aa(lp133
(dp134
g3
I25
sg4
F0.9007363234968977
sg5
F0.17200557585581697
sg6
F0.8578086273959015
sg7
F4.243814800320855
sg8
F0.11531345338669169
sg9
F0.01955167590135587
saF-296.22441256094305
aa(lp135
(dp136
g3
I109
sg4
F0.827014039295338
sg5
F0.09588032033058574
sg6
F0.35947890663371185
sg7
F4.243814800320855
sg8
F0.100501097796824
sg9
F0.007156606118401365
saF-463.211418045315
aa(lp137
(dp138
g3
I28
sg4
F0.7024076456135548
sg5
F0.0945127404394208
sg6
F0.48100917432043694
sg7
F4.991163252552154
sg8
F0.13904914984422467
sg9
F0.01564976095855619
saF-142.37026891062942
aa(lp139
(dp140
g3
I49
sg4
F0.7418107025450493
sg5
F0.21555522621252896
sg6
F0.7064125761477504
sg7
F4.6772683935885695
sg8
F0.11297919921101303
sg9
F0.006728448811039267
saF-593.8017298518149
aa(lp141
(dp142
g3
I29
sg4
F0.9143923651115791
sg5
F0.12638895806550537
sg6
F0.6037886771750836
sg7
F3.0853025548469395
sg8
F0.16399141669768802
sg9
F0.02813666945822468
saF-347.859190635967
aa(lp143
(dp144
g3
I23
sg4
F0.8715885476673686
sg5
F0.1599542989664678
sg6
F0.7559664818385428
sg7
F4.243814800320855
sg8
F0.1438620790523579
sg9
F0.008440511916320937
saF-235.07442289219364
aa(lp145
(dp146
g3
I20
sg4
F0.7842102218511275
sg5
F0.2156156064796328
sg6
F0.35947890663371185
sg7
F4.243814800320855
sg8
F0.1553218564370387
sg9
F0.01564976095855619
saF-303.7837695133752
aa(lp147
(dp148
g3
I20
sg4
F0.654028078590676
sg5
F0.10611761470124667
sg6
F0.35947890663371185
sg7
F4.243814800320855
sg8
F0.11531345338669169
sg9
F0.008012920733125562
saF-136.8974533391331
aa(lp149
(dp150
g3
I22
sg4
F0.9143923651115791
sg5
F0.004384231381176662
sg6
F0.46074176854112514
sg7
F4.708199465270241
sg8
F0.17254977751858638
sg9
F0.01955167590135587
saF-129.2778174567611
aa(lp151
(dp152
g3
I24
sg4
F0.7842102218511275
sg5
F0.22421811181225648
sg6
F0.35947890663371185
sg7
F4.243814800320855
sg8
F0.10084928270315924
sg9
F0.01564976095855619
saF-255.46417989615816
aa(lp153
(dp154
g3
I24
sg4
F0.8420173674527895
sg5
F0.14666030142976405
sg6
F0.6037886771750836
sg7
F4.243814800320855
sg8
F0.16399141669768802
sg9
F0.12043010773838812
saF-679.2552919338785
aa(lp155
(dp156
g3
I94
sg4
F1.0
sg5
F0.2195031972520174
sg6
F0.9019737227196918
sg7
F4.186681302279078
sg8
F0.18211234367399587
sg9
F0.006300291503677169
saF-396.46577819529466
aa(lp157
(dp158
g3
I26
sg4
F0.8654821684522382
sg5
F0.33523013209447217
sg6
F0.7064125761477504
sg7
F4.363373534624986
sg8
F0.11531345338669169
sg9
F0.01097502623111668
saF-347.5020397504811
aa(lp159
(dp160
g3
I94
sg4
F0.8287847302231581
sg5
F0.004384231381176662
sg6
F0.7064125761477504
sg7
F4.568133491766776
sg8
F0.12553170904555108
sg9
F0.01564976095855619
saF-101.16279271312715
aa(lp161
(dp162
g3
I20
sg4
F0.9216129441459326
sg5
F0.23211260110881043
sg6
F0.551729085800213
sg7
F4.525285522917118
sg8
F0.08008790870064592
sg9
F0.027887032130081327
saF-111.51832861916137
aa(lp163
(dp164
g3
I32
sg4
F0.854072253932438
sg5
F0.23211260110881043
sg6
F0.7113154566195619
sg7
F4.749875263153697
sg8
F0.1629872113631769
sg9
F0.01760071842995603
saF-465.150666289853
aa(lp165
(dp166
g3
I28
sg4
F0.7778530427937052
sg5
F0.00843053553931547
sg6
F0.4827895274303293
sg7
F4.1438988869675635
sg8
F0.16399141669768802
sg9
F0.09869402167414901
saF-499.9085056695657
aa(lp167
(dp168
g3
I124
sg4
F0.905870929495312
sg5
F0.46982668849177683
sg6
F0.2127479336628133
sg7
F4.243814800320855
sg8
F0.100501097796824
sg9
F0.010729483226310288
saF18.393186712546367
aa(lp169
(dp170
g3
I15
sg4
F0.8287847302231581
sg5
F0.3293566999711067
sg6
F0.7177928648806957
sg7
F3.9913995344679574
sg8
F0.034000225627416024
sg9
F0.02346765293438846
saF-300.5127944164417
aa(lp171
(dp172
g3
I106
sg4
F1.0
sg5
F0.23789353701038726
sg6
F0.7559664818385428
sg7
F4.243814800320855
sg8
F0.13174415458000044
sg9
F0.006300291503677169
saF-591.5586193361257
aa(lp173
(dp174
g3
I25
sg4
F0.9143923651115791
sg5
F0.004384231381176662
sg6
F0.649882477024476
sg7
F4.887182594504185
sg8
F0.18211234367399587
sg9
F0.01760071842995603
saF-293.09568231166054
aa(lp175
(dp176
g3
I112
sg4
F1.0
sg5
F0.4598409708364442
sg6
F0.8041931494337211
sg7
F4.300018326575994
sg8
F0.11531345338669169
sg9
F0.03256176685752084
saF-602.6664262171639
aa(lp177
(dp178
g3
I20
sg4
F0.827014039295338
sg5
F0.2156156064796328
sg6
F0.6742595897786987
sg7
F4.243814800320855
sg8
F0.06953254620510511
sg9
F0.008012920733125562
saF-335.9070820851439
aa(lp179
(dp180
g3
I20
sg4
F0.8420173674527895
sg5
F0.16086661059043972
sg6
F0.3886848547319509
sg7
F4.243814800320855
sg8
F0.11531345338669169
sg9
F0.008012920733125562
saF-359.07728242486746
aa(lp181
(dp182
g3
I28
sg4
F0.9698399444104295
sg5
F0.15769175879130157
sg6
F0.9019737227196918
sg7
F3.9757033940766022
sg8
F0.10734675127577932
sg9
F0.006300291503677169
saF-526.8620973756802
aa(lp183
(dp184
g3
I48
sg4
F0.8287847302231581
sg5
F0.004384231381176662
sg6
F0.649882477024476
sg7
F4.620917056384148
sg8
F0.18211234367399587
sg9
F0.045825754018103786
saF-807.777803003602
aa(lp185
(dp186
g3
I20
sg4
F0.8793597776417179
sg5
F0.10611761470124667
sg6
F0.5386358857572038
sg7
F4.243814800320855
sg8
F0.11531345338669169
sg9
F0.019395596647531474
saF-45.45952700316775
aa(lp187
(dp188
g3
I67
sg4
F0.8836478183722936
sg5
F0.09588032033058574
sg6
F0.4090320425583269
sg7
F4.7999001856180925
sg8
F0.100501097796824
sg9
F0.006300291503677169
saF-706.5947019607199
aa(lp189
(dp190
g3
I112
sg4
F0.654028078590676
sg5
F0.36211338459754416
sg6
F0.26612804553845215
sg7
F2.9743929251757084
sg8
F0.08008790870064592
sg9
F0.006728448811039267
saF113.54937040494042
aa(lp191
(dp192
g3
I112
sg4
F0.827014039295338
sg5
F0.35532776051051157
sg6
F0.6795426037478252
sg7
F1.3018010513269362
sg8
F0.10209733069430565
sg9
F0.023453590844155547
saF-588.0003654189666
aa(lp193
(dp194
g3
I72
sg4
F1.0
sg5
F0.1679290531619625
sg6
F0.8041931494337211
sg7
F3.764725485874126
sg8
F0.07181443069809022
sg9
F0.01564976095855619
saF-816.7219148071576
aa(lp195
(dp196
g3
I68
sg4
F0.8105852400933836
sg5
F0.26084622590582
sg6
F0.5930873354048594
sg7
F4.414687997707269
sg8
F0.08008790870064592
sg9
F0.012125993646442793
saF-580.3418347163266
aa(lp197
(dp198
g3
I106
sg4
F0.8754741626545433
sg5
F0.2829792927688454
sg6
F0.6178642882502555
sg7
F4.247242830268499
sg8
F0.100501097796824
sg9
F0.006300291503677169
saF-679.2998793036409
aa(lp199
(dp200
g3
I20
sg4
F0.9891536343594272
sg5
F0.10611761470124667
sg6
F0.5386358857572038
sg7
F4.243814800320855
sg8
F0.11531345338669169
sg9
F0.027887032130081327
saF151.79104825928903
aa(lp201
(dp202
g3
I18
sg4
F0.7980401834838726
sg5
F0.16445724418502974
sg6
F0.46074176854112514
sg7
F4.991163252552154
sg8
F0.14130672073540992
sg9
F0.07132701235021187
saF-291.86718164241734
aa(lp203
(dp204
g3
I20
sg4
F0.9143923651115791
sg5
F0.2156156064796328
sg6
F0.4816337919043977
sg7
F4.32050526441111
sg8
F0.16399141669768802
sg9
F0.02813666945822468
saF-550.9590518343402
aa(lp205
(dp206
g3
I20
sg4
F0.9891536343594272
sg5
F0.1185769477988401
sg6
F0.5386358857572038
sg7
F4.243814800320855
sg8
F0.08008790870064592
sg9
F0.019395596647531474
saF126.57940800039296
aa(lp207
(dp208
g3
I23
sg4
F0.9210086837263948
sg5
F0.23123482706395587
sg6
F0.8041931494337211
sg7
F4.142955011899762
sg8
F0.1438620790523579
sg9
F0.023453590844155547
saF-111.46120648329043
aa(lp209
(dp210
g3
I20
sg4
F0.7418107025450493
sg5
F0.1163549090719076
sg6
F0.7064125761477504
sg7
F4.363373534624986
sg8
F0.11531345338669169
sg9
F0.01564976095855619
saF-516.4411311292806
aa(lp211
(dp212
g3
I66
sg4
F0.9925246671113739
sg5
F0.10611761470124667
sg6
F0.47976209466196823
sg7
F4.243814800320855
sg8
F0.0977006810436688
sg9
F0.008602226334329393
saF-733.5037945532073
aa(lp213
(dp214
g3
I70
sg4
F0.8420173674527895
sg5
F0.10099896751591621
sg6
F0.35947890663371185
sg7
F4.303594167472921
sg8
F0.1353176549118652
sg9
F0.017521819124241347
saF-716.7214949322322
aa.