(lp0
(lp1
(dp2
S'history_in_weeks'
p3
I97
sS'end_weight'
p4
F1.0
sS'close_match_threshold'
p5
F0.2942792843692874
sS'start_weight'
p6
F0.5683611836396184
sS'over_power_threshold'
p7
F1.8747627665687023
sS'over_power_extra'
p8
F0.09565023466153683
sS'close_match_trim'
p9
F0.020465109975122853
saF201.30304495534347
aa(lp10
(dp11
g3
I28
sg4
F0.8287847302231581
sg5
F0.004384231381176662
sg6
F0.46074176854112514
sg7
F4.991163252552154
sg8
F0.18211234367399587
sg9
F0.01564976095855619
saF10.752168247188365
aa(lp12
(dp13
g3
I23
sg4
F1.0
sg5
F0.24296645687589438
sg6
F0.8578086273959015
sg7
F4.281639880702032
sg8
F0.1438620790523579
sg9
F0.023453590844155547
saF-88.09732901783013
aa(lp14
(dp15
S'history_in_weeks'
p16
I142
sS'end_weight'
p17
F0.905870929495312
sS'close_match_threshold'
p18
F0.46982668849177683
sS'start_weight'
p19
F0.2127479336628133
sS'over_power_threshold'
p20
F2.662242443329407
sS'over_power_extra'
p21
F0.0712814061539535
sS'close_match_trim'
p22
F0.015158674948943407
saF-208.4349504372192
aa(lp23
(dp24
g16
I88
sg17
F0.9527369482328248
sg18
F0.388485226576217
sg19
F0.0783814679670829
sg20
F4.35320899337597
sg21
F0.10313558071462142
sg22
F0.042807748519751866
saF-350.5105031660762
aa(lp25
(dp26
g16
I106
sg17
F1.0
sg18
F0.09588032033058574
sg19
F0.9158224939974634
sg20
F4.6086371186840305
sg21
F0.100501097796824
sg22
F0.006300291503677169
saF-384.13684919589184
aa(lp27
(dp28
g3
I112
sg4
F0.8793597776417179
sg5
F0.09588032033058574
sg6
F0.5012765800997487
sg7
F4.6086371186840305
sg8
F0.08008790870064592
sg9
F0.006300291503677169
saF-395.6371967157743
aa(lp29
(dp30
g3
I117
sg4
F0.7418107025450493
sg5
F0.1163549090719076
sg6
F0.7064125761477504
sg7
F3.9913995344679574
sg8
F0.034000225627416024
sg9
F0.02346765293438846
saF-448.42155011816953
aa(lp31
(dp32
g16
I49
sg17
F0.9695688530411049
sg18
F0.02599927973495464
sg19
F0.6935507585112359
sg20
F4.104609791685609
sg21
F0.10623920328540185
sg22
F0.30192517256951645
saF-449.1570017416583
aa(lp33
(dp34
g16
I114
sg17
F1.0
sg18
F0.40660624121555594
sg19
F0.5683611836396184
sg20
F1.8747627665687023
sg21
F0.022780250375511346
sg22
F0.031008439160247248
saF-457.8754008157439
aa(lp35
(dp36
g16
I117
sg17
F0.9166740572055467
sg18
F0.1163549090719076
sg19
F0.7064125761477504
sg20
F3.000634885448808
sg21
F0.11531345338669169
sg22
F0.049473772756485485
saF-466.03411513068363
aa(lp37
(dp38
g3
I128
sg4
F0.67237413982734
sg5
F0.02843071876411618
sg6
F0.014255108558067109
sg7
F3.4194229920410564
sg8
F0.048872804951572604
sg9
F0.163063277798804
saF-480.4896365696235
aa(lp39
(dp40
g16
I112
sg17
F0.6186198909790674
sg18
F0.02843071876411618
sg19
F0.26612804553845215
sg20
F3.654858035532247
sg21
F0.06987820258692523
sg22
F0.0036332301103510823
saF-500.4130261284478
aa(lp41
(dp42
g16
I138
sg17
F1.0
sg18
F0.21379098323168894
sg19
F0.8539145172588957
sg20
F3.155004257402766
sg21
F0.12202539370224737
sg22
F0.010580732328964705
saF-504.33004195689523
aa(lp43
(dp44
g16
I15
sg17
F0.9891536343594272
sg18
F0.19642238036673237
sg19
F0.7291731536136409
sg20
F4.986856741528232
sg21
F0.09440244016750501
sg22
F0.10091203350227365
saF-507.0216319499332
aa(lp45
(dp46
g16
I104
sg17
F0.7559877735674726
sg18
F0.019878300397297266
sg19
F0.7289571437725703
sg20
F3.9821044751760972
sg21
F0.1902938169562876
sg22
F0.01916552779380396
saF-507.73793809847433
aa(lp47
(dp48
g16
I32
sg17
F0.8287847302231581
sg18
F0.2817435149473172
sg19
F0.46074176854112514
sg20
F4.727390218116501
sg21
F0.18211234367399587
sg22
F0.01564976095855619
saF-527.5615351018497
aa(lp49
(dp50
g16
I112
sg17
F0.7587195552834358
sg18
F0.43479743451967884
sg19
F0.08673066620203396
sg20
F3.7968931944626694
sg21
F0.059674719604467845
sg22
F0.001725153118094669
saF-534.4186198571672
aa(lp51
(dp52
g3
I76
sg4
F1.0
sg5
F0.2643857983586441
sg6
F0.8390231855078267
sg7
F4.6086371186840305
sg8
F0.06895107441710631
sg9
F0.022673676640099717
saF-562.0505048621417
aa(lp53
(dp54
g16
I61
sg17
F0.566947347884552
sg18
F0.4598409708364442
sg19
F0.5291464459572062
sg20
F3.9913995344679574
sg21
F0.034000225627416024
sg22
F0.02346765293438846
saF-563.8761159016562
aa(lp55
(dp56
g16
I63
sg17
F0.525892960269575
sg18
F0.028965338897280313
sg19
F0.4981397683972869
sg20
F3.6065997382746127
sg21
F0.09135978212893961
sg22
F0.0008922135535969656
saF-578.3610252668826
aa(lp57
(dp58
g3
I84
sg4
F0.9442153407071008
sg5
F0.012476839697454278
sg6
F0.48579743393052943
sg7
F1.6021057902137938
sg8
F0.06309275101991652
sg9
F0.02220946218753488
saF-591.4214124483526
aa(lp59
(dp60
g16
I13
sg17
F0.881240106104862
sg18
F0.05448329787830519
sg19
F0.7266265002261802
sg20
F1.9193594335347226
sg21
F0.11067093991501042
sg22
F0.0010866214648874272
saF-607.6837097801068
aa(lp61
(dp62
g16
I80
sg17
F1.0
sg18
F0.18195232752301882
sg19
F0.9429021798436342
sg20
F4.424456655059073
sg21
F0.09565023466153683
sg22
F0.009921780789998459
saF-607.7108033024014
aa(lp63
(dp64
g16
I25
sg17
F0.8135573611728949
sg18
F0.004384231381176662
sg19
F0.7091102293980498
sg20
F4.991163252552154
sg21
F0.09974222598271452
sg22
F0.3790312370932949
saF-614.632402594624
aa(lp65
(dp66
g16
I16
sg17
F0.7033663445381415
sg18
F0.08157626544638863
sg19
F0.36152418992520574
sg20
F2.554219724990842
sg21
F0.06796477126607177
sg22
F0.32941665435863354
saF-617.0874670382123
aa(lp67
(dp68
g16
I75
sg17
F0.6624285325740669
sg18
F0.012476839697454278
sg19
F0.31054745946312967
sg20
F1.6021057902137938
sg21
F0.06309275101991652
sg22
F0.10641885934454667
saF-624.0621129798615
aa(lp69
(dp70
g16
I46
sg17
F1.0
sg18
F0.2643857983586441
sg19
F0.7622238770181902
sg20
F2.9743929251757084
sg21
F0.037401051037388625
sg22
F0.022673676640099717
saF-635.5340401969606
aa(lp71
(dp72
g16
I94
sg17
F0.9442153407071008
sg18
F0.03381687057979216
sg19
F0.48579743393052943
sg20
F1.2342810232173171
sg21
F0.14565219127488988
sg22
F0.02220946218753488
saF-635.5415481781147
aa(lp73
(dp74
g16
I28
sg17
F0.961226752328475
sg18
F0.14992126815765328
sg19
F0.07677656081153095
sg20
F2.096168891872561
sg21
F0.12454426499394454
sg22
F0.15979735743551216
saF-645.1988321029482
aa(lp75
(dp76
g3
I20
sg4
F0.8462219264344191
sg5
F0.13357581218726663
sg6
F0.35947890663371185
sg7
F4.243814800320855
sg8
F0.1553218564370387
sg9
F0.16963825340359823
saF-651.7615289798591
aa(lp77
(dp78
g16
I122
sg17
F0.9222690714973276
sg18
F0.05797895822640614
sg19
F0.7026332599678304
sg20
F3.6478428044405726
sg21
F0.06124383017708823
sg22
F0.36132002355480036
saF-654.8525281885551
aa(lp79
(dp80
g16
I111
sg17
F0.6198401264375177
sg18
F0.038770551729573055
sg19
F0.27465673930286294
sg20
F1.7828836181896583
sg21
F0.1865486919092644
sg22
F0.05293971537532545
saF-661.0551926897106
aa(lp81
(dp82
g3
I103
sg4
F1.0
sg5
F0.3330133740977994
sg6
F0.5291464459572062
sg7
F3.892704601748254
sg8
F0.1017426129542747
sg9
F0.015508030826286068
saF-661.2821718855823
aa(lp83
(dp84
g3
I44
sg4
F1.0
sg5
F0.23282061714488014
sg6
F0.8578086273959015
sg7
F4.957766754228401
sg8
F0.16047137045719387
sg9
F0.023453590844155547
saF-661.3675476411464
aa(lp85
(dp86
g16
I103
sg17
F0.9103875536791721
sg18
F0.20766520551588336
sg19
F0.16848232100328642
sg20
F3.2884203307520052
sg21
F0.1466048857534209
sg22
F0.08703693614057646
saF-664.2424693209343
aa(lp87
(dp88
g3
I112
sg4
F0.9763285358375775
sg5
F0.08270130950702803
sg6
F0.10703273476995223
sg7
F2.87906619078465
sg8
F0.11107865511998796
sg9
F0.06559739495723015
saF-681.1364124435065
aa(lp89
(dp90
g3
I23
sg4
F0.8470718951500393
sg5
F0.23091097281452855
sg6
F0.23398340813324725
sg7
F4.281639880702032
sg8
F0.010972643140862881
sg9
F0.24065348030279565
saF-689.5727584027304
aa(lp91
(dp92
g3
I144
sg4
F0.5350716706696597
sg5
F0.10196784696923719
sg6
F0.05478279313951412
sg7
F3.629122507181492
sg8
F0.02847710161380962
sg9
F0.27429336943054805
saF-693.1567989722278
aa(lp93
(dp94
g16
I44
sg17
F1.0
sg18
F0.2550219409372602
sg19
F0.8578086273959015
sg20
F4.957766754228401
sg21
F0.16047137045719387
sg22
F0.023453590844155547
saF-705.1383234879268
aa(lp95
(dp96
g3
I112
sg4
F0.7587195552834358
sg5
F0.3227083639360895
sg6
F0.08673066620203396
sg7
F3.780809340168398
sg8
F0.08465167768661613
sg9
F0.05506243537914377
saF-705.3051865398127
aa(lp97
(dp98
g16
I31
sg17
F1.0
sg18
F0.21061929335250007
sg19
F0.9461388180434822
sg20
F3.764725485874126
sg21
F0.10962863576876443
sg22
F0.10839971764019288
saF-711.857870888411
aa(lp99
(dp100
g16
I20
sg17
F0.7673606777000322
sg18
F0.24466482705205844
sg19
F0.35947890663371185
sg20
F4.243814800320855
sg21
F0.16478701059385198
sg22
F0.27356799922591385
saF-714.7617813015714
aa(lp101
(dp102
g3
I20
sg4
F0.654028078590676
sg5
F0.297655400771999
sg6
F0.35947890663371185
sg7
F4.243814800320855
sg8
F0.16478701059385198
sg9
F0.1938972515973359
saF-716.8044827796829
aa(lp103
(dp104
g3
I142
sg4
F0.9222690714973276
sg5
F0.05797895822640614
sg6
F0.7026332599678304
sg7
F3.6478428044405726
sg8
F0.0712814061539535
sg9
F0.18823934925187188
saF-722.1185612631568
aa(lp105
(dp106
g16
I46
sg17
F1.0
sg18
F0.0018983601880989132
sg19
F0.8485918473767113
sg20
F4.321913145061096
sg21
F0.05463251695526226
sg22
F0.3990795635906968
saF-727.7679596461451
aa(lp107
(dp108
g3
I31
sg4
F1.0
sg5
F0.21379098323168894
sg6
F0.900026667651189
sg7
F3.764725485874126
sg8
F0.1158270147355059
sg9
F0.05949022498457879
saF-729.0390874702189
aa(lp109
(dp110
g16
I46
sg17
F1.0
sg18
F0.20618577735915466
sg19
F0.6037886771750836
sg20
F3.794009669028551
sg21
F0.1017426129542747
sg22
F0.007548408718183675
saF-747.024343663096
aa(lp111
(dp112
g16
I133
sg17
F0.7058065432660163
sg18
F0.4408765340648763
sg19
F0.458585178482942
sg20
F1.9457479422812827
sg21
F0.06703483847175691
sg22
F0.13635373319674657
saF-747.2384153222342
aa(lp113
(dp114
g16
I137
sg17
F0.99992012344233
sg18
F0.08270130950702803
sg19
F0.10703273476995223
sg20
F1.40492338819333
sg21
F0.1190217295253545
sg22
F0.08838704139470842
saF-749.5824267934481
aa(lp115
(dp116
g3
I20
sg4
F0.8836803388500161
sg5
F0.3330133740977994
sg6
F0.444312676295459
sg7
F3.892704601748254
sg8
F0.13326481177406335
sg9
F0.015508030826286068
saF-539.1865309753206
aa(lp117
(dp118
g3
I144
sg4
F0.5350716706696597
sg5
F0.10196784696923719
sg6
F0.46074176854112514
sg7
F3.629122507181492
sg8
F0.18211234367399587
sg9
F0.01564976095855619
saF-713.5911248582315
aa(lp119
(dp120
g3
I70
sg4
F0.776807122966101
sg5
F0.04145700832121069
sg6
F0.3704408043921237
sg7
F2.6693912127878896
sg8
F0.11067093991501042
sg9
F0.0010866214648874272
saF-682.1139288708903
aa(lp121
(dp122
g3
I28
sg4
F0.7899233216537712
sg5
F0.14992126815765328
sg6
F0.07677656081153095
sg7
F2.8755134637024042
sg8
F0.09721123379043489
sg9
F0.15979735743551216
saF-586.498981701703
aa(lp123
(dp124
g3
I112
sg4
F0.8793597776417179
sg5
F0.4598409708364442
sg6
F0.5152115130284775
sg7
F4.6086371186840305
sg8
F0.08008790870064592
sg9
F0.006300291503677169
saF-462.7921690816736
aa(lp125
(dp126
g3
I75
sg4
F0.6674013362007034
sg5
F0.02843071876411618
sg6
F0.014255108558067109
sg7
F2.510764391127425
sg8
F0.048872804951572604
sg9
F0.163063277798804
saF-892.5129866062331
aa(lp127
(dp128
g3
I117
sg4
F0.9166740572055467
sg5
F0.09896558725914811
sg6
F0.36152418992520574
sg7
F3.000634885448808
sg8
F0.09163911232638172
sg9
F0.049473772756485485
saF-739.444479332312
aa(lp129
(dp130
g3
I117
sg4
F0.7418107025450493
sg5
F0.08157626544638863
sg6
F0.5339683830364781
sg7
F2.554219724990842
sg8
F0.06796477126607177
sg9
F0.176442153646511
saF-399.7350549321136
aa(lp131
(dp132
g3
I117
sg4
F0.9583370286027734
sg5
F0.1163549090719076
sg6
F0.7064125761477504
sg7
F3.077819571425787
sg8
F0.11531345338669169
sg9
F0.049473772756485485
saF-479.81987062984945
aa(lp133
(dp134
g3
I32
sg4
F0.8287847302231581
sg5
F0.18222241222717261
sg6
F0.10703273476995223
sg7
F4.727390218116501
sg8
F0.1465954993969919
sg9
F0.04062357795789317
saF-569.19327368876
aa(lp135
(dp136
g3
I29
sg4
F1.0
sg5
F0.20618577735915466
sg6
F0.9461388180434822
sg7
F3.764725485874126
sg8
F0.10962863576876443
sg9
F0.10839971764019288
saF-527.29139351552
aa(lp137
(dp138
g3
I28
sg4
F0.7672956367445872
sg5
F0.004384231381176662
sg6
F0.458585178482942
sg7
F4.991163252552154
sg8
F0.18211234367399587
sg9
F0.13635373319674657
saF-47.01240450586488
aa(lp139
(dp140
g3
I26
sg4
F0.9847844265205524
sg5
F0.02599927973495464
sg6
F0.8578086273959015
sg7
F4.957766754228401
sg8
F0.13335528687129786
sg9
F0.30192517256951645
saF-954.1058243485879
aa(lp141
(dp142
g3
I112
sg4
F1.0
sg5
F0.18195232752301882
sg6
F0.10703273476995223
sg7
F3.6517614229218616
sg8
F0.11107865511998796
sg9
F0.009921780789998459
saF-530.1533732590201
aa(lp143
(dp144
g3
I128
sg4
F0.83618706991367
sg5
F0.13062566795449815
sg6
F0.014255108558067109
sg7
F4.188594873134729
sg8
F0.16047137045719387
sg9
F0.163063277798804
saF-721.5795863203039
aa(lp145
(dp146
g3
I31
sg4
F1.0
sg5
F0.41117241104050206
sg6
F0.900026667651189
sg7
F3.764725485874126
sg8
F0.11272782525213516
sg9
F0.08394497131238583
saF-849.443651537387
aa(lp147
(dp148
g3
I93
sg4
F0.9763285358375775
sg5
F0.047589074602241155
sg6
F0.31054745946312967
sg7
F2.87906619078465
sg8
F0.08708570306995224
sg9
F0.06559739495723015
saF-824.1291350901556
aa(lp149
(dp150
g3
I112
sg4
F0.8793597776417179
sg5
F0.18013305934461493
sg6
F0.8390231855078267
sg7
F4.681334061362962
sg8
F0.06895107441710631
sg9
F0.006300291503677169
saF-431.3380909813251
aa(lp151
(dp152
g3
I86
sg4
F1.0
sg5
F0.23282061714488014
sg6
F0.8578086273959015
sg7
F1.3018010513269362
sg8
F0.048872804951572604
sg9
F0.023453590844155547
saF-216.2153355259286
aa(lp153
(dp154
g3
I103
sg4
F0.5760305610039516
sg5
F0.27340217866474414
sg6
F0.5291464459572062
sg7
F3.5238544295755103
sg8
F0.11188400332826104
sg9
F0.010580732328964705
saF-558.0981050176423
aa(lp155
(dp156
g3
I116
sg4
F0.7710545989674227
sg5
F0.0483747549779896
sg6
F0.27465673930286294
sg7
F3.6478428044405726
sg8
F0.12389626104317632
sg9
F0.2071298694650629
saF-687.4496367733414
aa(lp157
(dp158
g3
I103
sg4
F0.9103875536791721
sg5
F0.3337530881761638
sg6
F0.3488143834802463
sg7
F3.2884203307520052
sg8
F0.043412727983741545
sg9
F0.05525229453748246
saF-781.9736607352256
aa(lp159
(dp160
g3
I28
sg4
F0.9143923651115791
sg5
F0.23282061714488014
sg6
F0.8578086273959015
sg7
F4.974465003390277
sg8
F0.18211234367399587
sg9
F0.01564976095855619
saF-237.07828350181558
aa(lp161
(dp162
g3
I83
sg4
F0.9089691822912926
sg5
F0.19642238036673237
sg6
F0.594957461077383
sg7
F4.991163252552154
sg8
F0.09440244016750501
sg9
F0.10091203350227365
saF-939.0392288213702
aa(lp163
(dp164
g3
I20
sg4
F0.654028078590676
sg5
F0.2156156064796328
sg6
F0.35947890663371185
sg7
F4.243814800320855
sg8
F0.1553218564370387
sg9
F0.008012920733125562
saF-251.11751749527411
aa(lp165
(dp166
g3
I46
sg4
F1.0
sg5
F0.2643857983586441
sg6
F0.843807516442269
sg7
F4.6086371186840305
sg8
F0.061791795686184287
sg9
F0.3990795635906968
saF-988.9037229355491
aa(lp167
(dp168
g3
I20
sg4
F0.8420173674527895
sg5
F0.1163549090719076
sg6
F0.7064125761477504
sg7
F4.243814800320855
sg8
F0.11531345338669169
sg9
F0.049473772756485485
saF-342.8817000081456
aa(lp169
(dp170
g3
I103
sg4
F0.9881642679187888
sg5
F0.08270130950702803
sg6
F0.5291464459572062
sg7
F3.385885396266452
sg8
F0.1017426129542747
sg9
F0.04055271289175811
saF-793.6894219167214
aa(lp171
(dp172
g3
I28
sg4
F0.8287847302231581
sg5
F0.14992126815765328
sg6
F0.07677656081153095
sg7
F2.096168891872561
sg8
F0.12454426499394454
sg9
F0.01564976095855619
saF-727.8664032781762
aa(lp173
(dp174
g3
I76
sg4
F1.0
sg5
F0.05797895822640614
sg6
F0.7708282227378286
sg7
F4.1282399615623016
sg8
F0.0701162402855299
sg9
F0.18823934925187188
saF-771.6118586411637
aa(lp175
(dp176
g3
I31
sg4
F1.0
sg5
F0.20618577735915466
sg6
F0.6037886771750836
sg7
F3.779367577451339
sg8
F0.10568562436151957
sg9
F0.10839971764019288
saF-741.5759185992637
aa(lp177
(dp178
g3
I112
sg4
F0.9763285358375775
sg5
F0.08270130950702803
sg6
F0.6037886771750836
sg7
F2.87906619078465
sg8
F0.19581241939042227
sg9
F0.06559739495723015
saF-440.1756028860549
aa(lp179
(dp180
g3
I21
sg4
F0.654028078590676
sg5
F0.297655400771999
sg6
F0.23398340813324725
sg7
F4.243814800320855
sg8
F0.16478701059385198
sg9
F0.24065348030279565
saF-733.1480981472218
aa(lp181
(dp182
g3
I88
sg4
F0.9527369482328248
sg5
F0.4598409708364442
sg6
F0.0783814679670829
sg7
F3.9913995344679574
sg8
F0.034000225627416024
sg9
F0.02346765293438846
saF-491.5661889508169
aa(lp183
(dp184
g3
I106
sg4
F1.0
sg5
F0.09588032033058574
sg6
F0.35947890663371185
sg7
F4.6086371186840305
sg8
F0.100501097796824
sg9
F0.006300291503677169
saF-263.44742110524464
aa(lp185
(dp186
g3
I107
sg4
F0.6198401264375177
sg5
F0.038770551729573055
sg6
F0.16848232100328642
sg7
F2.4559746279204235
sg8
F0.16657678883134264
sg9
F0.05293971537532545
saF-729.7386915875869
aa(lp187
(dp188
g3
I66
sg4
F0.8793597776417179
sg5
F0.24466482705205844
sg6
F0.4303777433667303
sg7
F4.243814800320855
sg8
F0.16478701059385198
sg9
F0.27356799922591385
saF-984.8165642887066
aa(lp189
(dp190
g3
I29
sg4
F0.9143923651115791
sg5
F0.21061929335250007
sg6
F0.7034402932923036
sg7
F4.991163252552154
sg8
F0.14587048972138014
sg9
F0.01564976095855619
saF-120.93312436737995
aa(lp191
(dp192
g3
I142
sg4
F0.7710545989674227
sg5
F0.05797895822640614
sg6
F0.4886449996353467
sg7
F1.7828836181896583
sg8
F0.1865486919092644
sg9
F0.12058953231359867
saF-714.2076193789948
aa(lp193
(dp194
g3
I21
sg4
F0.8470718951500393
sg5
F0.2642831867932638
sg6
F0.29673115738347955
sg7
F4.243814800320855
sg8
F0.08787982686735743
sg9
F0.1938972515973359
saF-605.6242466238248
aa(lp195
(dp196
g3
I49
sg4
F0.9222690714973276
sg5
F0.04198911898068039
sg6
F0.6980920092395332
sg7
F3.8762262980630906
sg8
F0.06124383017708823
sg9
F0.33162259806215844
saF-565.8238111892053
aa(lp197
(dp198
g3
I117
sg4
F0.9103875536791721
sg5
F0.20766520551588336
sg6
F0.16848232100328642
sg7
F3.1445276081004065
sg8
F0.1309591695700563
sg9
F0.06825535444853098
saF-712.8764173657478
aa(lp199
(dp200
g3
I142
sg4
F0.9222690714973276
sg5
F0.05797895822640614
sg6
F0.7026332599678304
sg7
F3.6478428044405726
sg8
F0.020418344823890378
sg9
F0.18823934925187188
saF-722.1185612631568
aa(lp201
(dp202
g3
I107
sg4
F0.6198401264375177
sg5
F0.20766520551588336
sg6
F0.16848232100328642
sg7
F3.2884203307520052
sg8
F0.1796419767279274
sg9
F0.08703693614057646
saF-765.8636724833085
aa(lp203
(dp204
g3
I44
sg4
F1.0
sg5
F0.02599927973495464
sg6
F0.6935507585112359
sg7
F4.957766754228401
sg8
F0.10623920328540185
sg9
F0.162689381706836
saF-826.6780718429794
aa(lp205
(dp206
g3
I38
sg4
F0.961226752328475
sg5
F0.20331850664710105
sg6
F0.6935507585112359
sg7
F2.096168891872561
sg8
F0.12454426499394454
sg9
F0.30192517256951645
saF-975.3971065811326
aa(lp207
(dp208
g3
I75
sg4
F0.7418107025450493
sg5
F0.3959998243102604
sg6
F0.50848001780544
sg7
F2.7967526623408756
sg8
F0.04854648832366627
sg9
F0.02346765293438846
saF-627.2536626594406
aa(lp209
(dp210
g3
I123
sg4
F0.9103875536791721
sg5
F0.15481652624256026
sg6
F0.47287533849382724
sg7
F3.629122507181492
sg8
F0.02847710161380962
sg9
F0.18066515278556225
saF-824.5776307388708
aa(lp211
(dp212
g3
I104
sg4
F0.7559877735674726
sg5
F0.3227083639360895
sg6
F0.4078439049873021
sg7
F3.9821044751760972
sg8
F0.1902938169562876
sg9
F0.01916552779380396
saF-716.6801065502259
aa(lp213
(dp214
g3
I114
sg4
F0.9166740572055467
sg5
F0.09952810928946781
sg6
F0.10703273476995223
sg7
F2.939850538116729
sg8
F0.11319605425333983
sg9
F0.057535583856857815
saF-740.941064413054
aa.