(lp0
(lp1
(dp2
S'history_in_weeks'
p3
I35
sS'winnings'
p4
(lp5
F324.3941240654117
aF366.3693510457724
aF398.36383341869896
aF406.4205485983041
aF618.4172742904875
aF895.8775301240817
aF934.2912930438113
asS'end_weight'
p6
F0.9199640006583065
sS'close_match_threshold'
p7
F0.26362354867256743
sS'start_weight'
p8
F0.3373066217390519
sS'over_power_threshold'
p9
F1.9811155682688169
sS'over_power_extra'
p10
F0.18455408928240083
sS'close_match_trim'
p11
F0.047533432787171495
saF1089.127308529883
aa(lp12
(dp13
g3
I35
sg4
(lp14
F324.5292663229686
aF352.4159807452668
aF407.9083067377728
aF420.77177868603985
aF515.8300100817023
aF876.1187608516832
aF892.652928614295
asg6
F0.9199640006583065
sg7
F0.26318492552029316
sg8
F0.33775485866757016
sg9
F1.9811155682688169
sg10
F0.18455408928240083
sg11
F0.0467119162557886
saF1084.8535538060082
aa(lp15
(dp16
g3
I35
sg4
(lp17
F324.3941240654117
aF366.3693510457724
aF384.6025687274466
aF398.36383341869896
aF618.4172742904875
aF895.8775301240817
aF934.2912930438113
asg6
F0.9200884712757813
sg7
F0.26369682796440697
sg8
F0.33666521668448873
sg9
F1.9811155682688169
sg10
F0.18455408928240083
sg11
F0.0475375742165442
saF1075.3660438386307
aa(lp18
(dp19
g3
I35
sg4
(lp20
F324.3941240654117
aF344.63783055199633
aF398.36383341869896
aF420.771778686056
aF634.5530397370551
aF895.8775301240817
aF933.4846836850479
asg6
F0.9024982951725715
sg7
F0.26392382818740284
sg8
F0.33189890654644094
sg9
F1.9811155682688169
sg10
F0.18455408928240083
sg11
F0.047533432787171495
saF1067.395788036107
aa(lp21
(dp22
g3
I35
sg4
(lp23
F324.5292663229686
aF354.34753842004625
aF380.31189544419317
aF420.77177868603985
aF564.6807632300656
aF914.6022464709877
aF934.2912930438113
asg6
F0.9202580599367767
sg7
F0.26369682796440697
sg8
F0.3373709841986552
sg9
F1.9811155682688169
sg10
F0.18455408928240083
sg11
F0.047265115849207465
saF1059.188700187208
aa(lp24
(dp25
g3
I35
sg4
(lp26
F324.5292663229686
aF354.34753842004625
aF380.31189544419317
aF392.5710109459344
aF634.5530397370551
aF895.8775301240817
aF934.2912930438113
asg6
F0.9129232019995612
sg7
F0.26474995979379123
sg8
F0.3357863169477422
sg9
F1.9811155682688169
sg10
F0.18455408928240083
sg11
F0.04738167250106185
saF1059.188700187208
aa(lp27
(dp28
g3
I35
sg4
(lp29
F311.40986794712376
aF366.3693510457724
aF377.52790545694893
aF398.36383341869896
aF618.4172742904875
aF895.8775301240817
aF913.9545353649978
asg6
F0.927502681786951
sg7
F0.26369682796440697
sg8
F0.3373709841986552
sg9
F1.9811155682688169
sg10
F0.18455408928240083
sg11
F0.04781831544262633
saF1055.307124449845
aa(lp30
(dp31
g3
I35
sg4
(lp32
F324.3941240654117
aF363.93074915000375
aF366.3693510457724
aF398.36383341869896
aF618.4172742904875
aF895.8775301240817
aF933.4846836850479
asg6
F0.927502681786951
sg7
F0.26369682796440697
sg8
F0.3373709841986552
sg9
F1.9811155682688169
sg10
F0.18455408928240083
sg11
F0.04767587411489892
saF1054.6942242611879
aa(lp33
(dp34
g3
I35
sg4
(lp35
F324.3941240654117
aF363.93074915000375
aF366.3693510457724
aF398.36383341869896
aF618.4172742904875
aF895.8775301240817
aF933.4846836850479
asg6
F0.9185635089634252
sg7
F0.2634304590441343
sg8
F0.3344883137542658
sg9
F1.9811155682688169
sg10
F0.18455408928240083
sg11
F0.04767587411489892
saF1054.6942242611879
aa(lp36
(dp37
g3
I35
sg4
(lp38
F324.3941240654117
aF362.4028481303301
aF366.3693510457724
aF406.4205485983041
aF618.4172742904875
aF895.8775301240817
aF973.7666255549025
asg6
F0.9199640006583065
sg7
F0.26316409012386166
sg8
F0.3373066217390519
sg9
F1.9811155682688169
sg10
F0.18455408928240083
sg11
F0.047533432787171495
saF1053.1663232415142
aa(lp39
(dp40
g3
I35
sg4
(lp41
F324.3941240654117
aF362.4028481303301
aF366.3693510457724
aF406.4205485983041
aF618.4172742904875
aF895.8775301240817
aF973.7666255549025
asg6
F0.9199640006583065
sg7
F0.26316409012386166
sg8
F0.33746637774370775
sg9
F1.9811155682688169
sg10
F0.18455408928240083
sg11
F0.047533432787171495
saF1053.1663232415142
aa(lp42
(dp43
g3
I35
sg4
(lp44
F253.72643549075838
aF387.2831676434116
aF409.1279823919251
aF419.7673614812297
aF634.9317362730433
aF928.7652015650115
aF963.6782539080184
asg6
F0.927502681786951
sg7
F0.26369682796440697
sg8
F0.3369871097297402
sg9
F1.9731007530324176
sg10
F0.18455408928240083
sg11
F0.04781831544262633
saF1050.137585526095
aa(lp45
(dp46
g3
I35
sg4
(lp47
F211.33977442809555
aF339.87058311184046
aF498.56203077058876
aF516.8648107083063
aF615.0719987038342
aF691.5833108675138
aF979.7173464819671
asg6
F0.8995396396396915
sg7
F0.26380880019143615
sg8
F0.33189890654644094
sg9
F1.9811155682688169
sg10
F0.1600914335101507
sg11
F0.047533432787171495
saF1049.7723883105248
aa(lp48
(dp49
g3
I35
sg4
(lp50
F266.13956851541866
aF387.2831676434116
aF395.2189113980289
aF434.2547835371606
aF634.9317362730433
aF840.4964922431432
aF1017.7795935564986
asg6
F0.9185635089634252
sg7
F0.26369682796440697
sg8
F0.33602381162992556
sg9
F1.9712792041150542
sg10
F0.18455408928240083
sg11
F0.04767587411489892
saF1048.6416475568592
aa(lp51
(dp52
g3
I35
sg4
(lp53
F313.17207422771935
aF337.6955612168397
aF395.38489061115865
aF436.34271722024596
aF484.80380667319946
aF881.1598929173108
aF957.6211939000416
asg6
F0.9238578118401035
sg7
F0.26369682796440697
sg8
F0.3373709841986552
sg9
F1.9811155682688169
sg10
F0.18455408928240083
sg11
F0.04603865185734701
saF1046.2525260557177
aa(lp54
(dp55
g3
I35
sg4
(lp56
F326.4364386138568
aF337.6955612168397
aF381.2900937362972
aF422.25125526380884
aF499.6074338583753
aF862.6061904523986
aF957.6211939000416
asg6
F0.9129232019995612
sg7
F0.26444414426497764
sg8
F0.3316177907312809
sg9
F1.9811155682688169
sg10
F0.18455408928240083
sg11
F0.04603865185734701
saF1045.4220935669937
aa(lp57
(dp58
g3
I35
sg4
(lp59
F324.5292663229686
aF354.34753842004625
aF366.3693510457724
aF406.4205485983041
aF618.4172742904875
aF895.8775301240817
aF934.2912930438113
asg6
F0.9076528361339028
sg7
F0.263634796895418
sg8
F0.33344219244666934
sg9
F1.9811155682688169
sg10
F0.18455408928240083
sg11
F0.04744392669635268
saF1045.2461557887873
aa(lp60
(dp61
g3
I35
sg4
(lp62
F337.3037071053318
aF344.63783055199633
aF362.4028481303301
aF420.771778686056
aF618.4172742904875
aF895.8775301240817
aF972.9435547806588
asg6
F0.9096243361398995
sg7
F0.26316409012386166
sg8
F0.3344883137542658
sg9
F1.9811155682688169
sg10
F0.18455408928240083
sg11
F0.047533432787171495
saF1044.3443857876582
aa(lp63
(dp64
g3
I35
sg4
(lp65
F253.72643549075838
aF365.2190218359556
aF423.5068393551055
aF434.2547835371606
aF691.0809070137338
aF840.4964922431432
aF1057.9251930609767
asg6
F0.9202129418932561
sg7
F0.26369682796440697
sg8
F0.33602381162992556
sg9
F1.9712792041150542
sg10
F0.18455408928240083
sg11
F0.04781831544262633
saF1042.4522966818195
aa(lp66
(dp67
g3
I35
sg4
(lp68
F291.6396780822215
aF362.4028481303301
aF380.31189544419203
aF406.4205485983041
aF618.4172742904875
aF895.8775301240817
aF953.8295889331368
asg6
F0.9199640006583065
sg7
F0.2624314976818477
sg8
F0.3373066217390519
sg9
F1.9811155682688169
sg10
F0.18455408928240083
sg11
F0.047533432787171495
saF1034.3544216567436
aa(lp69
(dp70
g3
I35
sg4
(lp71
F291.6396780822215
aF362.4028481303301
aF380.31189544419203
aF406.4205485983041
aF618.4172742904875
aF895.8775301240817
aF953.8295889331368
asg6
F0.9199640006583065
sg7
F0.2624314976818477
sg8
F0.3373066217390519
sg9
F1.9811155682688169
sg10
F0.18455408928240083
sg11
F0.047533432787171495
saF1034.3544216567436
aa(lp72
(dp73
g3
I35
sg4
(lp74
F291.6396780822215
aF362.4028481303301
aF380.31189544419203
aF420.771778686056
aF618.4172742904875
aF895.8775301240817
aF953.8295889331368
asg6
F0.9121611536657173
sg7
F0.2623139894408402
sg8
F0.33476252014740226
sg9
F1.9811155682688169
sg10
F0.18455408928240083
sg11
F0.047533432787171495
saF1034.3544216567436
aa(lp75
(dp76
g3
I35
sg4
(lp77
F324.3941240654117
aF344.63783055199633
aF362.4028481303301
aF420.771778686056
aF618.4172742904875
aF895.8775301240817
aF972.9435547806588
asg6
F0.9060613156562355
sg7
F0.2631776629346253
sg8
F0.3329075102624308
sg9
F1.9811155682688169
sg10
F0.18455408928240083
sg11
F0.047533432787171495
saF1031.434802747738
aa(lp78
(dp79
g3
I35
sg4
(lp80
F205.858598978195
aF345.43818902930843
aF479.224821242761
aF493.7161355712915
aF498.56203077058876
aF685.6240339797077
aF950.6858073141468
asg6
F0.9156035935661462
sg7
F0.2653221217505506
sg8
F0.3351419969409315
sg9
F1.9811155682688169
sg10
F0.1590682055244943
sg11
F0.04754090999905201
saF1030.5216092502644
aa(lp81
(dp82
g3
I35
sg4
(lp83
F211.33977442809555
aF339.87058311184046
aF479.224821242761
aF498.56203077058876
aF547.9791763590279
aF685.6240339797077
aF969.7690181076721
asg6
F0.9033856797685584
sg7
F0.26392382818740284
sg8
F0.33189890654644094
sg9
F1.9811155682688169
sg10
F0.15933464814424128
sg11
F0.047533432787171495
saF1030.435178782697
aa(lp84
(dp85
g3
I35
sg4
(lp86
F229.88068934280977
aF353.54273191910534
aF446.6195077601162
aF480.019114957895
aF494.31895207176785
aF714.8644508956838
aF969.7690181076721
asg6
F0.9105192529550183
sg7
F0.2638322541321511
sg8
F0.3357863169477422
sg9
F1.975286611733254
sg10
F0.15933464814424128
sg11
F0.047533432787171495
saF1030.0429290220313
aa(lp87
(dp88
g3
I35
sg4
(lp89
F165.9386242152932
aF417.5260082152138
aF445.0290768539678
aF469.4791072508442
aF613.275649389763
aF652.4853536269945
aF1022.0252519590726
asg6
F0.9033074058213899
sg7
F0.262914548470511
sg8
F0.3351820582049113
sg9
F1.975286611733254
sg10
F0.16611451601251181
sg11
F0.046393902165352156
saF1028.4937092844748
aa(lp90
(dp91
g3
I35
sg4
(lp92
F253.72643549075838
aF365.2190218359556
aF409.4558390653481
aF419.7673614812297
aF691.0809070137338
aF928.7652015650115
aF1023.1836555415775
asg6
F0.9202129418932561
sg7
F0.26369682796440697
sg8
F0.3365054606798329
sg9
F1.9731007530324176
sg10
F0.18455408928240083
sg11
F0.04781831544262633
saF1028.401296392062
aa(lp93
(dp94
g3
I35
sg4
(lp95
F214.60631289808111
aF367.3543924488895
aF444.01731952398586
aF517.2534807378745
aF527.9765483020133
aF634.7275660578025
aF918.3343990566887
asg6
F0.8965809841068115
sg7
F0.2636937721954695
sg8
F0.33394650014712074
sg9
F1.9811155682688169
sg10
F0.1600914335101507
sg11
F0.04682940834003361
saF1025.9780248709565
aa(lp96
(dp97
g3
I35
sg4
(lp98
F292.3251722073594
aF350.7348005307774
aF381.2900937362972
aF450.99927555922886
aF484.80380667319946
aF881.1598929173108
aF957.4214570166696
asg6
F0.9202129418932561
sg7
F0.26275834729431374
sg8
F0.3350605135301109
sg9
F1.9811155682688169
sg10
F0.18455408928240083
sg11
F0.04603865185734701
saF1024.350066474434
aa(lp99
(dp100
g3
I35
sg4
(lp101
F324.5292663229686
aF344.63783055199633
aF354.34753842004625
aF406.7809192209079
aF634.5530397370551
aF895.8775301240817
aF934.2912930438113
asg6
F0.9129232019995612
sg7
F0.26474995979379123
sg8
F0.3357863169477422
sg9
F1.9811155682688169
sg10
F0.18455408928240083
sg11
F0.04746129125005693
saF1023.5146352950112
aa(lp102
(dp103
g3
I35
sg4
(lp104
F324.3941240654117
aF344.63783055199633
aF354.34753842004625
aF420.771778686056
aF618.4172742904875
aF895.8775301240817
aF934.2912930438113
asg6
F0.9076528361339028
sg7
F0.263634796895418
sg8
F0.33344219244666934
sg9
F1.9811155682688169
sg10
F0.18455408928240083
sg11
F0.04748867974176209
saF1023.3794930374543
aa(lp105
(dp106
g3
I35
sg4
(lp107
F291.7714780493725
aF320.52160899786804
aF407.9083067377728
aF441.2582452641509
aF531.1414243249517
aF876.1187608516832
aF892.6529286143007
asg6
F0.9141327555018915
sg7
F0.26033692982216716
sg8
F0.3350605135301109
sg9
F1.9811155682688169
sg10
F0.18455408928240083
sg11
F0.04674746556920174
saF1020.2013937850134
aa(lp108
(dp109
g3
I35
sg4
(lp110
F311.40986794712376
aF344.63783055199633
aF362.4028481303301
aF478.4184852881049
aF673.9992816903632
aF895.8775301240817
aF1012.1970996416112
asg6
F0.9199640006583065
sg7
F0.26316409012386166
sg8
F0.3376261337483636
sg9
F1.9811155682688169
sg10
F0.18455408928240083
sg11
F0.04797381433467623
saF1018.4505466294502
aa(lp111
(dp112
g3
I35
sg4
(lp113
F289.27087315556037
aF344.63783055199633
aF384.23894621245586
aF391.5843126554928
aF673.9992816903632
aF895.8775301240817
aF971.9531576487866
asg6
F0.9334621303359683
sg7
F0.26369682796440697
sg8
F0.3387800574438131
sg9
F1.9811155682688169
sg10
F0.18455408928240083
sg11
F0.04810319809808117
saF1018.1476499200126
aa(lp114
(dp115
g3
I35
sg4
(lp116
F324.5292663229686
aF337.32345662456555
aF354.34753842004625
aF393.68701071012265
aF516.4306956414728
aF873.7263993281508
aF914.6022464709877
asg6
F0.9164436013289339
sg7
F0.26380411719441965
sg8
F0.3346219622398222
sg9
F1.9811155682688169
sg10
F0.18455408928240083
sg11
F0.047006233096011624
saF1016.2002613675804
aa(lp117
(dp118
g3
I35
sg4
(lp119
F323.81513888088557
aF324.3941240654117
aF366.3693510457724
aF398.36383341869896
aF618.4172742904875
aF895.8775301240817
aF934.2912930438113
asg6
F0.9202129418932561
sg7
F0.26369682796440697
sg8
F0.33602381162992556
sg9
F1.9811155682688169
sg10
F0.18455408928240083
sg11
F0.0475417156459169
saF1014.5786139920697
aa(lp120
(dp121
g3
I35
sg4
(lp122
F205.858598978195
aF375.375769869848
aF432.64655781555484
aF465.06942692802113
aF479.5675310246677
aF714.8644508956838
aF950.6858073141468
asg6
F0.9096243361398995
sg7
F0.2635758215953665
sg8
F0.3322262065803212
sg9
F1.9772295972451082
sg10
F0.15920142683436778
sg11
F0.047533432787171495
saF1013.8809266635978
aa(lp123
(dp124
g3
I35
sg4
(lp125
F198.25249622243496
aF353.54273191910534
aF460.7204874634026
aF465.06942692802113
aF479.5675310246677
aF657.7637011880929
aF1009.9683858241588
asg6
F0.9081153039104756
sg7
F0.262914548470511
sg8
F0.33634808571111685
sg9
F1.975286611733254
sg10
F0.15933464814424128
sg11
F0.047533432787171495
saF1012.5157156049429
aa(lp126
(dp127
g3
I35
sg4
(lp128
F205.858598978195
aF341.9669408157631
aF464.6224044486605
aF500.86350565949397
aF508.39952981612396
aF714.8644508956838
aF897.5917717298146
asg6
F0.927502681786951
sg7
F0.26369682796440697
sg8
F0.33449438746496807
sg9
F1.9811155682688169
sg10
F0.15933464814424128
sg11
F0.04779967752586188
saF1012.4479442426186
aa(lp129
(dp130
g3
I35
sg4
(lp131
F291.6396780822215
aF358.3586247412991
aF362.4028481303301
aF420.771778686056
aF618.4172742904875
aF895.8775301240817
aF953.8295889331368
asg6
F0.9096243361398995
sg7
F0.2624314976818477
sg8
F0.33391611397842064
sg9
F1.9811155682688169
sg10
F0.18455408928240083
sg11
F0.047533432787171495
saF1012.4011509538507
aa(lp132
(dp133
g3
I35
sg4
(lp134
F158.51328495991243
aF376.44218907131835
aF474.0627716011761
aF481.86542018438104
aF507.18629770141047
aF612.6413368776136
aF1142.1029637071847
asg6
F0.9033074058213899
sg7
F0.25767020000572727
sg8
F0.3350605135301109
sg9
F1.9723721334654725
sg10
F0.16611451601251181
sg11
F0.045365387458905435
saF1009.0182456324069
aa(lp135
(dp136
g3
I35
sg4
(lp137
F301.83809094633466
aF348.6412031997213
aF358.3586247412991
aF391.5843126554928
aF673.9992816903632
aF895.8775301240817
aF991.8718764129176
asg6
F0.9249581051823932
sg7
F0.2630036596386071
sg8
F0.3376261337483636
sg9
F1.9811155682688169
sg10
F0.18455408928240083
sg11
F0.04812954367949805
saF1008.837918887355
aa(lp138
(dp139
g3
I35
sg4
(lp140
F301.83809094633466
aF348.6412031997213
aF358.3586247412991
aF391.5843126554928
aF673.9992816903632
aF895.8775301240817
aF971.751958469348
asg6
F0.927502681786951
sg7
F0.2630036596386071
sg8
F0.3376261337483636
sg9
F1.9811155682688169
sg10
F0.18455408928240083
sg11
F0.04812954367949805
saF1008.837918887355
aa(lp141
(dp142
g3
I35
sg4
(lp143
F205.858598978195
aF353.5010061343403
aF446.6195077601162
aF479.5675310246677
aF480.019114957895
aF714.8644508956838
aF950.6858073141468
asg6
F0.9096243361398995
sg7
F0.2635758215953665
sg8
F0.33391611397842064
sg9
F1.9772295972451082
sg10
F0.1590682055244943
sg11
F0.047533432787171495
saF1005.9791128726515
aa(lp144
(dp145
g3
I35
sg4
(lp146
F211.3397744280935
aF310.7058379007535
aF483.8702461551875
aF496.2837562467671
aF533.0347205078065
aF685.6240339797077
aF988.6668833941042
asg6
F0.90283421000544
sg7
F0.2670684219057347
sg8
F0.3316177907312809
sg9
F1.9811155682688169
sg10
F0.15933464814424128
sg11
F0.04779967752586188
saF1005.9158584840345
aa(lp147
(dp148
g3
I35
sg4
(lp149
F211.3397744280935
aF310.7058379007535
aF483.8702461551875
aF496.2837562467671
aF533.0347205078065
aF685.6240339797077
aF988.6668833941042
asg6
F0.90283421000544
sg7
F0.2670684219057347
sg8
F0.3316177907312809
sg9
F1.9811155682688169
sg10
F0.15933464814424128
sg11
F0.04779967752586188
saF1005.9158584840345
aa(lp150
(dp151
g3
I35
sg4
(lp152
F202.4602497690969
aF399.779384974252
aF403.6311416363087
aF437.1131798462952
aF532.3430230624722
aF657.2262045397488
aF908.6945277046511
asg6
F0.9129232019995612
sg7
F0.2632027051477872
sg8
F0.3387800574438131
sg9
F1.9772295972451082
sg10
F0.15933464814424128
sg11
F0.04682940834003361
saF1005.8707763796576
aa(lp153
(dp154
g3
I35
sg4
(lp155
F191.1677378622826
aF367.35439244889335
aF446.7589490494506
aF490.48389657881035
aF494.5126576006744
aF657.7637011880929
aF1065.7995008968578
asg6
F0.90283421000544
sg7
F0.2632027051477872
sg8
F0.3349104431636846
sg9
F1.9733436262213995
sg10
F0.15933464814424128
sg11
F0.04732643461210767
saF1005.2810793606266
aa(lp156
(dp157
g3
I35
sg4
(lp158
F232.56124243878162
aF365.2190218359556
aF405.42627702183154
aF423.5068393551055
aF691.0809070137338
aF928.7652015650115
aF1023.1836555415775
asg6
F0.9334621303359683
sg7
F0.26369682796440697
sg8
F0.3387800574438131
sg9
F1.9731007530324176
sg10
F0.18455408928240083
sg11
F0.04810319809808117
saF1003.2065412965687
aa(lp159
(dp160
g3
I35
sg4
(lp161
F333.1792941363417
aF337.012378825862
aF346.4245460315756
aF398.36383341869896
aF564.6807632300656
aF901.6369216617429
aF928.7652015650115
asg6
F0.9199640006583065
sg7
F0.2635439591556322
sg8
F0.33189890654644094
sg9
F1.9811155682688169
sg10
F0.18455408928240083
sg11
F0.047533432787171495
saF1016.6162189937793
aa(lp162
(dp163
g3
I35
sg4
(lp164
F319.5184969785257
aF323.81513888088557
aF337.4401666672811
aF380.31189544419203
aF564.6807632300656
aF895.8775301240817
aF953.8295889331428
asg6
F0.9249581051823932
sg7
F0.2630036596386071
sg8
F0.3376261337483636
sg9
F1.9811155682688169
sg10
F0.18455408928240083
sg11
F0.04738167250106185
saF980.7738025266924
aa(lp165
(dp166
g3
I35
sg4
(lp167
F266.13956851541866
aF366.3693510457724
aF385.42299125781665
aF419.7673614812297
aF634.9317362730433
aF928.7652015650115
aF964.0653087841467
asg6
F0.9185635089634252
sg7
F0.2634304590441343
sg8
F0.33602381162992556
sg9
F1.9761973861919355
sg10
F0.18455408928240083
sg11
F0.047604653451035206
saF1017.9319108190077
aa(lp168
(dp169
g3
I35
sg4
(lp170
F211.33977442809555
aF339.87058311184046
aF423.0948781418499
aF480.019114957895
aF494.31895207176785
aF714.8644508956838
aF949.8723613591096
asg6
F0.9105192529550183
sg7
F0.26392382818740284
sg8
F0.3357863169477422
sg9
F1.9782010900010354
sg10
F0.15933464814424128
sg11
F0.047533432787171495
saF974.3052356817859
aa(lp171
(dp172
g3
I35
sg4
(lp173
F202.4602497690969
aF402.9167416346943
aF498.714945263524
aF512.696782818994
aF516.8648107083063
aF634.7275660578025
aF899.1510550661224
asg6
F0.899983331937685
sg7
F0.2636937721954695
sg8
F0.33292270334678087
sg9
F1.9811155682688169
sg10
F0.1600914335101507
sg11
F0.04682940834003361
saF1104.0919366673152
aa(lp174
(dp175
g3
I35
sg4
(lp176
F163.55804906392746
aF401.8802688346159
aF423.44437630641505
aF502.30327383879035
aF614.7474958959106
aF638.8483808996893
aF890.3642280788149
asg6
F0.9200884712757813
sg7
F0.26275834729431374
sg8
F0.3373066217390519
sg9
F1.9811155682688169
sg10
F0.1687986437751722
sg11
F0.046786042322259254
saF988.8826942049584
aa(lp177
(dp178
g3
I35
sg4
(lp179
F143.03960120018155
aF361.52505718233533
aF498.81856357732863
aF516.8648107083063
aF599.1285436327203
aF691.5833108675138
aF1000.548730444837
asg6
F0.9107695446446024
sg7
F0.2630036596386071
sg8
F0.33394650014712074
sg9
F1.9811155682688169
sg10
F0.1600914335101507
sg11
F0.047479476009765834
saF1003.3832219598455
aa(lp180
(dp181
g3
I35
sg4
(lp182
F292.3251722073594
aF337.6955612168397
aF381.2900937362972
aF450.99927555922886
aF484.80380667319946
aF881.1598929173108
aF957.6211939000416
asg6
F0.9199640006583065
sg7
F0.26319094798344056
sg8
F0.3350605135301109
sg9
F1.9811155682688169
sg10
F0.18455408928240083
sg11
F0.04603865185734701
saF1011.3108271604963
aa(lp183
(dp184
g3
I35
sg4
(lp185
F324.5292663229686
aF374.4575473238642
aF407.9083067377728
aF420.77177868603985
aF531.2976632457996
aF854.7998700420071
aF876.1187608516832
asg6
F0.9199640006583065
sg7
F0.26369682796440697
sg8
F0.33733880296885355
sg9
F1.9811155682688169
sg10
F0.18455408928240083
sg11
F0.046786042322259254
saF1106.8951203846057
aa(lp186
(dp187
g3
I148
sg4
(lp188
F-202.18806430353868
aF-121.6036732094966
aF-53.089210304482435
aF97.46981098161518
aF111.8293653319081
aF189.5588878884132
aF349.646686179419
asg6
F0.9081153039104756
sg7
F0.25767020000572727
sg8
F0.3350605135301109
sg9
F1.9723721334654725
sg10
F0.16611451601251181
sg11
F0.045702019658126224
saF-376.8809478175177
aa(lp189
(dp190
g3
I35
sg4
(lp191
F211.33977442809555
aF339.87058311184046
aF436.96655060643616
aF465.06942692802113
aF479.5675310246677
aF657.7637011880929
aF989.6656748562395
asg6
F0.9129232019995612
sg7
F0.2632027051477872
sg8
F0.3380433395914325
sg9
F1.9772295972451082
sg10
F0.15933464814424128
sg11
F0.047533432787171495
saF988.1769081463722
aa(lp192
(dp193
g3
I35
sg4
(lp194
F221.23419466084124
aF367.3543924488895
aF399.455156388756
aF444.01731952398586
aF561.8421544575212
aF612.5143580640595
aF889.6075824276065
asg6
F0.8965809841068115
sg7
F0.26450794697301006
sg8
F0.3345442485440261
sg9
F1.9811155682688169
sg10
F0.1590682055244943
sg11
F0.04682940834003361
saF988.0437434984867
aa(lp195
(dp196
g3
I35
sg4
(lp197
F189.68118954844454
aF346.6794493920909
aF359.23825475489775
aF458.23136089032164
aF672.3976015527344
aF757.0685819098355
aF977.9511039797981
asg6
F0.90283421000544
sg7
F0.2634187510216026
sg8
F0.33344219244666934
sg9
F1.9811155682688169
sg10
F0.17194436871332106
sg11
F0.04732643461210767
saF895.5988936954332
aa(lp198
(dp199
g3
I35
sg4
(lp200
F291.5270407018131
aF344.6752562208235
aF362.4028481303301
aF380.31189544419203
aF634.9317362730433
aF928.7652015650115
aF953.8295889331428
asg6
F0.9267130654971374
sg7
F0.26306416282312733
sg8
F0.3380433395914325
sg9
F1.9771081606506171
sg10
F0.18455408928240083
sg11
F0.047533432787171495
saF998.6051450529667
aa(lp201
(dp202
g3
I35
sg4
(lp203
F-32.584598032684994
aF-9.586157741355578
aF18.329044617470686
aF624.7829630439212
aF637.5916328982339
aF645.6146903802442
aF1165.6147438323242
asg6
F0.9202580599367767
sg7
F0.26369682796440697
sg8
F0.3373709841986552
sg9
F1.9811155682688169
sg10
F0.18455408928240083
sg11
F0.09362492116013366
saF-23.841711156569886
aa(lp204
(dp205
g3
I35
sg4
(lp206
F135.8687034317802
aF342.8895616521106
aF438.2811431201326
aF459.6323969403711
aF580.8488252973509
aF635.4742601959272
aF1141.7727695317467
asg6
F0.9334621303359683
sg7
F0.2606835139850671
sg8
F0.3387800574438131
sg9
F1.972736443248945
sg10
F0.16611451601251181
sg11
F0.045365387458905435
saF917.0394082040234
aa(lp207
(dp208
g3
I35
sg4
(lp209
F319.5184969785257
aF324.5292663229686
aF337.32345662456555
aF407.9083067377728
aF516.4306956414728
aF873.7263993281508
aF895.2628298399652
asg6
F0.9182038009936202
sg7
F0.26316409012386166
sg8
F0.3346219622398222
sg9
F1.9811155682688169
sg10
F0.18455408928240083
sg11
F0.047006233096011624
saF981.3712199260599
aa(lp210
(dp211
g3
I35
sg4
(lp212
F266.13956851541866
aF344.6752562208235
aF366.3693510457724
aF419.7673614812297
aF634.9317362730433
aF928.7652015650115
aF964.884675739911
asg6
F0.9202129418932561
sg7
F0.26369682796440697
sg8
F0.33602381162992556
sg9
F1.9761973861919355
sg10
F0.18455408928240083
sg11
F0.0475417156459169
saF977.1841757820146
aa(lp213
(dp214
g3
I35
sg4
(lp215
F212.95705869450148
aF217.47070161782017
aF230.9458729033281
aF394.4059034060274
aF559.1442521226072
aF625.1143122037893
aF1390.3814779756594
asg6
F0.9033074058213899
sg7
F0.262914548470511
sg8
F0.33404478423367107
sg9
F1.975286611733254
sg10
F0.1753343026474563
sg11
F0.03272832060545632
saF661.3736332156498
aa(lp216
(dp217
g3
I35
sg4
(lp218
F247.14703986502627
aF286.5800518302899
aF345.41816365384216
aF461.0385332324149
aF764.9074214721845
aF787.5483430246027
aF1016.271392665918
asg6
F0.9202129418932561
sg7
F0.2653221217505506
sg8
F0.3358237288103822
sg9
F1.9731007530324176
sg10
F0.17181114740344755
sg11
F0.04781831544262633
saF879.1452553491583
aa(lp219
(dp220
g3
I35
sg4
(lp221
F228.3458282087713
aF333.07662667095997
aF345.7750655259233
aF502.4201900082094
aF747.0800737805462
aF757.0685819098355
aF976.1337914360984
asg6
F0.9129232019995612
sg7
F0.2642233938790991
sg8
F0.3357863169477422
sg9
F1.9811155682688169
sg10
F0.17194436871332106
sg11
F0.04779967752586188
saF907.1975204056546
aa(lp222
(dp223
g3
I35
sg4
(lp224
F246.25407291234342
aF324.5292663229686
aF380.31189544419317
aF420.77177868603985
aF634.5530397370551
aF895.8775301240817
aF954.0289592993493
asg6
F0.9156035935661462
sg7
F0.26369682796440697
sg8
F0.3373709841986552
sg9
F1.9811155682688169
sg10
F0.18455408928240083
sg11
F0.047265115849207465
saF951.0952346795052
aa(lp225
(dp226
g3
I35
sg4
(lp227
F138.44199562999074
aF293.5545422168384
aF459.7742715157374
aF503.60033642666986
aF577.3489587138708
aF613.1110462217875
aF1077.324655555703
asg6
F0.9033074058213899
sg7
F0.26041714506479446
sg8
F0.3361835676345814
sg9
F1.9723721334654725
sg10
F0.16611451601251181
sg11
F0.046449410123038465
saF891.7708093625665
aa(lp228
(dp229
g3
I35
sg4
(lp230
F9.147832726291426
aF110.09602516594805
aF174.58647374695215
aF375.0027925922584
aF649.0377911344256
aF720.9511835451558
aF1115.4322647709841
asg6
F0.9060613156562355
sg7
F0.08142348954744882
sg8
F0.3329075102624308
sg9
F1.9811155682688169
sg10
F0.18455408928240083
sg11
F0.04603865185734701
saF293.8303316391916
aa(lp231
(dp232
g3
I35
sg4
(lp233
F257.6980170980869
aF344.63783055199633
aF358.39643230470756
aF398.36383341869896
aF618.4172742904875
aF928.7652015650115
aF934.2912930438113
asg6
F0.9199640006583065
sg7
F0.2635758215953665
sg8
F0.33775485866757016
sg9
F1.9791725827569624
sg10
F0.18455408928240083
sg11
F0.047533432787171495
saF960.7322799547908
aa(lp234
(dp235
g3
I35
sg4
(lp236
F247.14703986502627
aF286.5800518302899
aF389.38953665017675
aF446.28056825027124
aF705.7423331685554
aF717.6205979212539
aF990.5738160927317
asg6
F0.9202129418932561
sg7
F0.26363632477988674
sg8
F0.3341250091051234
sg9
F1.9712792041150542
sg10
F0.1718777580583843
sg11
F0.04781831544262633
saF923.1166283454929
aa(lp237
(dp238
g3
I35
sg4
(lp239
F241.40567380173434
aF267.1249942266329
aF344.63783055199633
aF446.1179027926198
aF707.7551160197388
aF814.2368709321397
aF1012.1970996416112
asg6
F0.9033074058213899
sg7
F0.2630036596386071
sg8
F0.33640409597663745
sg9
F1.9811155682688169
sg10
F0.18455408928240083
sg11
F0.04812954367949805
saF853.1684985803636
aa(lp240
(dp241
g3
I35
sg4
(lp242
F313.0380907490726
aF346.67404866551465
aF346.91622536395744
aF381.2900937362972
aF470.354567604762
aF894.9167060010614
aF924.5729711628946
asg6
F0.9334621303359683
sg7
F0.2640704861146923
sg8
F0.33519892408754703
sg9
F1.9811155682688169
sg10
F0.18455408928240083
sg11
F0.04603865185734701
saF1006.6283647785447
aa(lp243
(dp244
g3
I35
sg4
(lp245
F246.25407291234342
aF288.4970024664535
aF358.3586247412993
aF403.58502329871953
aF651.0636765020781
aF832.7494920640979
aF972.9435547806588
asg6
F0.9060613156562355
sg7
F0.2631776629346253
sg8
F0.3373066217390519
sg9
F1.9811155682688169
sg10
F0.18455408928240083
sg11
F0.047533432787171495
saF893.1097001200962
aa(lp246
(dp247
g3
I35
sg4
(lp248
F215.0748171135474
aF312.1175011778105
aF368.44396574590064
aF389.8869879400727
aF633.36743590744
aF787.5483430246027
aF957.9717998991928
asg6
F0.9334621303359683
sg7
F0.262914548470511
sg8
F0.3387800574438131
sg9
F1.975286611733254
sg10
F0.17194436871332106
sg11
F0.047533432787171495
saF895.6362840372585
aa(lp249
(dp250
g3
I76
sg4
(lp251
F-198.82537134426184
aF-117.01770004556056
aF-52.852512377351445
aF177.58822883072935
aF238.7202903073844
aF520.2076103478933
aF1327.1658695754932
asg6
F0.9033074058213899
sg7
F0.26369682796440697
sg8
F0.3373709841986552
sg9
F1.9811155682688169
sg10
F0.16611451601251181
sg11
F0.045365387458905435
saF-368.69558376717384
aa(lp252
(dp253
g3
I35
sg4
(lp254
F222.7197177299438
aF358.3586247412991
aF362.4028481303301
aF399.5599605563666
aF691.0809070137338
aF928.7652015650115
aF991.871876412918
asg6
F0.9199640006583065
sg7
F0.2624314976818477
sg8
F0.3365054606798329
sg9
F1.9771081606506171
sg10
F0.18455408928240083
sg11
F0.04781831544262633
saF943.481190601573
aa(lp255
(dp256
g3
I35
sg4
(lp257
F223.73352223970755
aF232.23391590652227
aF372.21942703457694
aF417.9073194548298
aF531.5918925286362
aF863.9375448995006
aF892.652928614295
asg6
F0.9033074058213899
sg7
F0.262914548470511
sg8
F0.3362443399719816
sg9
F1.9782010900010354
sg10
F0.18455408928240083
sg11
F0.04696366747626182
saF828.1868651808068
aa(lp258
(dp259
g3
I35
sg4
(lp260
F253.72643549075838
aF346.78316448467535
aF383.2559529486516
aF409.1279823919251
aF634.9317362730433
aF928.7652015650115
aF944.226265261078
asg6
F0.9334621303359683
sg7
F0.26316409012386166
sg8
F0.33663418559903946
sg9
F1.9731007530324176
sg10
F0.18455408928240083
sg11
F0.04781831544262633
saF983.7655529240853
aa(lp261
(dp262
g3
I35
sg4
(lp263
F43.62498108128125
aF90.53026189595562
aF342.40162484761186
aF352.9528441186035
aF391.68145898657644
aF425.5602815366931
aF1240.128475217914
asg6
F0.9175777589604269
sg7
F0.26369682796440697
sg8
F0.33344219244666934
sg9
F1.9811155682688169
sg10
F0.05773832945050259
sg11
F0.04781831544262633
saF476.5568678248487
aa(lp264
(dp265
g3
I35
sg4
(lp266
F291.6396780822215
aF362.4028481303301
aF380.31189544419203
aF406.4205485983041
aF618.4172742904875
aF895.8775301240817
aF953.8295889331368
asg6
F0.9199640006583065
sg7
F0.2624314976818477
sg8
F0.3373066217390519
sg9
F1.9811155682688169
sg10
F0.18455408928240083
sg11
F0.047533432787171495
saF1034.3544216567436
aa(lp267
(dp268
g3
I35
sg4
(lp269
F319.5184969785257
aF323.81513888088557
aF337.4401666672811
aF394.39671070382474
aF564.6807632300656
aF914.6022464709877
aF934.0939365196796
asg6
F0.9249581051823932
sg7
F0.2630036596386071
sg8
F0.3373709841986552
sg9
F1.9811155682688169
sg10
F0.18455408928240083
sg11
F0.047265115849207465
saF980.7738025266924
aa(lp270
(dp271
g3
I35
sg4
(lp272
F173.21043528144628
aF361.9244177296423
aF400.1525836369092
aF423.24009190492757
aF465.44482529804895
aF714.3084404738886
aF889.6075824276011
asg6
F0.90283421000544
sg7
F0.2649914851881229
sg8
F0.3316177907312809
sg9
F1.9782010900010354
sg10
F0.15933464814424128
sg11
F0.047096789845607015
saF935.2874366479978
aa(lp273
(dp274
g3
I35
sg4
(lp275
F324.5292663229686
aF354.34753842004625
aF366.3693510457724
aF406.4205485983041
aF634.5530397370551
aF895.8775301240817
aF934.2912930438113
asg6
F0.9165680719464087
sg7
F0.2642233938790991
sg8
F0.33602381162992556
sg9
F1.9811155682688169
sg10
F0.18455408928240083
sg11
F0.04746129125005693
saF1045.2461557887873
aa(lp276
(dp277
g3
I35
sg4
(lp278
F323.81513888088557
aF324.3941240654117
aF366.3693510457724
aF398.36383341869896
aF618.4172742904875
aF895.8775301240817
aF934.2912930438113
asg6
F0.9185635089634252
sg7
F0.26369682796440697
sg8
F0.3355767652193773
sg9
F1.9811155682688169
sg10
F0.18455408928240083
sg11
F0.0475375742165442
saF1014.5786139920697
aa(lp279
(dp280
g3
I35
sg4
(lp281
F324.3941240654117
aF366.3693510457724
aF384.6025687274466
aF398.36383341869896
aF618.4172742904875
aF895.8775301240817
aF934.2912930438113
asg6
F0.9202129418932561
sg7
F0.2634304590441343
sg8
F0.3367450946868167
sg9
F1.9811155682688169
sg10
F0.18455408928240083
sg11
F0.047533432787171495
saF1075.3660438386307
aa(lp282
(dp283
g3
I35
sg4
(lp284
F289.27087315556037
aF344.63783055199633
aF384.23894621245586
aF478.4184852881049
aF673.9992816903632
aF876.7272520420213
aF992.075128645198
asg6
F0.9185635089634252
sg7
F0.2634304590441343
sg8
F0.3376261337483636
sg9
F1.9811155682688169
sg10
F0.18455408928240083
sg11
F0.04812954367949805
saF1018.1476499200126
aa(lp285
(dp286
g3
I35
sg4
(lp287
F266.13956851541866
aF387.2831676434116
aF395.2189113980289
aF419.7673614812297
aF634.9317362730433
aF928.7652015650115
aF983.7157871111556
asg6
F0.927502681786951
sg7
F0.2636601883184872
sg8
F0.3369871097297402
sg9
F1.9731007530324176
sg10
F0.18455408928240083
sg11
F0.04767587411489892
saF1048.6416475568592
aa(lp288
(dp289
g3
I35
sg4
(lp290
F253.72643549075838
aF383.2559529486516
aF401.4391183336427
aF409.1279823919251
aF634.9317362730433
aF928.7652015650115
aF963.6782539080184
asg6
F0.9202129418932561
sg7
F0.2632027051477872
sg8
F0.3349104431636846
sg9
F1.9733436262213995
sg10
F0.18455408928240083
sg11
F0.04781831544262633
saF1038.4215067730527
aa(lp291
(dp292
g3
I35
sg4
(lp293
F148.36166003114454
aF423.2447189114471
aF468.4238959491281
aF536.9551887062366
aF596.9799357595637
aF624.308572271266
aF1001.6007544645329
asg6
F0.9030708079134149
sg7
F0.262914548470511
sg8
F0.3351820582049113
sg9
F1.9811155682688169
sg10
F0.16611451601251181
sg11
F0.046393902165352156
saF1040.0302748917197
aa(lp294
(dp295
g3
I35
sg4
(lp296
F137.3024412982213
aF139.28648343396344
aF212.39806064644154
aF308.44699383647
aF485.18231111610726
aF771.486961515548
aF1103.2986949139308
asg6
F0.9202129418932561
sg7
F0.43927391259712684
sg8
F0.3361835676345814
sg9
F1.9811155682688169
sg10
F0.18455408928240083
sg11
F0.046786042322259254
saF488.9869853786263
aa(lp297
(dp298
g3
I35
sg4
(lp299
F205.858598978195
aF341.9669408157631
aF430.44126534611155
aF432.79274623982224
aF490.1371917877941
aF714.8644508956838
aF950.6858073141468
asg6
F0.9199640006583065
sg7
F0.2635758215953665
sg8
F0.3322262065803212
sg9
F1.9772295972451082
sg10
F0.15920142683436778
sg11
F0.047533432787171495
saF978.2668051400697
aa(lp300
(dp301
g3
I35
sg4
(lp302
F324.3941240654117
aF344.63783055199633
aF398.36383341869896
aF420.771778686056
aF634.5530397370551
aF895.8775301240817
aF934.2912930438113
asg6
F0.9096243361398995
sg7
F0.26392382818740284
sg8
F0.33391611397842064
sg9
F1.9811155682688169
sg10
F0.18455408928240083
sg11
F0.047533432787171495
saF1067.395788036107
aa(lp303
(dp304
g3
I35
sg4
(lp305
F278.4813130179575
aF383.2559529486516
aF395.2189113980289
aF401.4391183336427
aF634.9317362730433
aF928.7652015650115
aF963.6782539080184
asg6
F0.927502681786951
sg7
F0.26306416282312733
sg8
F0.3369871097297402
sg9
F1.9731007530324176
sg10
F0.18455408928240083
sg11
F0.04767587411489892
saF1056.956177364638
aa(lp306
(dp307
g3
I35
sg4
(lp308
F324.5292663229686
aF352.4159807452668
aF407.9083067377728
aF420.77177868603985
aF515.8300100817023
aF876.1187608516832
aF892.652928614295
asg6
F0.9199640006583065
sg7
F0.26318492552029316
sg8
F0.33775485866757016
sg9
F1.9811155682688169
sg10
F0.18455408928240083
sg11
F0.0467119162557886
saF1084.8535538060082
aa.