(lp0
(lp1
(dp2
S'history_in_weeks'
p3
I35
sS'winnings'
p4
(lp5
F324.5292663229686
aF374.4575473238642
aF407.9083067377728
aF420.77177868603985
aF531.2976632457996
aF854.7998700420071
aF876.1187608516832
asS'end_weight'
p6
F0.9199640006583065
sS'close_match_threshold'
p7
F0.26369682796440697
sS'start_weight'
p8
F0.33733880296885355
sS'over_power_threshold'
p9
F1.9811155682688169
sS'over_power_extra'
p10
F0.18455408928240083
sS'close_match_trim'
p11
F0.046786042322259254
saF1106.8951203846057
aa(lp12
(dp13
g3
I35
sg4
(lp14
F202.4602497690969
aF402.9167416346943
aF498.714945263524
aF512.696782818994
aF516.8648107083063
aF634.7275660578025
aF899.1510550661224
asg6
F0.899983331937685
sg7
F0.2636937721954695
sg8
F0.33292270334678087
sg9
F1.9811155682688169
sg10
F0.1600914335101507
sg11
F0.04682940834003361
saF1104.0919366673152
aa(lp15
(dp16
g3
I35
sg4
(lp17
F337.4401666672811
aF339.11134738820783
aF420.77177868603985
aF422.2747180310191
aF531.2976632457996
aF876.1187608516832
aF892.652928614295
asg6
F0.9139328890135794
sg7
F0.26275834729431374
sg8
F0.3350605135301109
sg9
F1.9811155682688169
sg10
F0.18455408928240083
sg11
F0.04676366579955455
saF1097.3232927415288
aa(lp18
(dp19
g3
I35
sg4
(lp20
F324.3941240654117
aF366.3693510457724
aF398.36383341869896
aF406.4205485983041
aF618.4172742904875
aF895.8775301240817
aF934.2912930438113
asg6
F0.9199640006583065
sg7
F0.26362354867256743
sg8
F0.3373066217390519
sg9
F1.9811155682688169
sg10
F0.18455408928240083
sg11
F0.047533432787171495
saF1089.127308529883
aa(lp21
(dp22
g3
I35
sg4
(lp23
F324.5292663229686
aF352.4159807452668
aF407.9083067377728
aF420.77177868603985
aF515.8300100817023
aF876.1187608516832
aF892.652928614295
asg6
F0.9199640006583065
sg7
F0.26318492552029316
sg8
F0.33775485866757016
sg9
F1.9811155682688169
sg10
F0.18455408928240083
sg11
F0.0467119162557886
saF1084.8535538060082
aa(lp24
(dp25
g3
I35
sg4
(lp26
F324.5292663229686
aF352.4159807452668
aF407.9083067377728
aF420.77177868603985
aF515.8300100817023
aF876.1187608516832
aF892.652928614295
asg6
F0.9199640006583065
sg7
F0.26318492552029316
sg8
F0.33775485866757016
sg9
F1.9811155682688169
sg10
F0.18455408928240083
sg11
F0.0467119162557886
saF1084.8535538060082
aa(lp27
(dp28
g3
I35
sg4
(lp29
F190.63083265380715
aF402.9167416346943
aF484.3498063268471
aF528.1324642763293
aF532.3430230624722
aF673.9536887989022
aF879.9677110755665
asg6
F0.9199640006583065
sg7
F0.26375281407792156
sg8
F0.33733880296885355
sg9
F1.9811155682688169
sg10
F0.1600914335101507
sg11
F0.046786042322259254
saF1077.8973806153485
aa(lp30
(dp31
g3
I35
sg4
(lp32
F324.3941240654117
aF366.3693510457724
aF384.6025687274466
aF398.36383341869896
aF618.4172742904875
aF895.8775301240817
aF934.2912930438113
asg6
F0.9200884712757813
sg7
F0.26369682796440697
sg8
F0.33666521668448873
sg9
F1.9811155682688169
sg10
F0.18455408928240083
sg11
F0.04753550350185785
saF1075.3660438386307
aa(lp33
(dp34
g3
I35
sg4
(lp35
F324.3941240654117
aF366.3693510457724
aF384.6025687274466
aF398.36383341869896
aF618.4172742904875
aF895.8775301240817
aF934.2912930438113
asg6
F0.9200884712757813
sg7
F0.26369682796440697
sg8
F0.33666521668448873
sg9
F1.9811155682688169
sg10
F0.18455408928240083
sg11
F0.0475375742165442
saF1075.3660438386307
aa(lp36
(dp37
g3
I35
sg4
(lp38
F324.3941240654117
aF366.3693510457724
aF384.6025687274466
aF398.36383341869896
aF618.4172742904875
aF895.8775301240817
aF934.2912930438113
asg6
F0.9202129418932561
sg7
F0.2634304590441343
sg8
F0.3367450946868167
sg9
F1.9811155682688169
sg10
F0.18455408928240083
sg11
F0.047533432787171495
saF1075.3660438386307
aa(lp39
(dp40
g3
I35
sg4
(lp41
F324.5292663229686
aF354.34753842004625
aF393.68701071012265
aF398.7311663675241
aF516.4306956414728
aF873.7263993281508
aF895.2628298399652
asg6
F0.9219731415579424
sg7
F0.2637504725794133
sg8
F0.3373709841986552
sg9
F1.9811155682688169
sg10
F0.18455408928240083
sg11
F0.047006233096011624
saF1072.5638154531375
aa(lp42
(dp43
g3
I35
sg4
(lp44
F324.3941240654117
aF344.63783055199633
aF398.36383341869896
aF420.771778686056
aF634.5530397370551
aF895.8775301240817
aF933.4846836850479
asg6
F0.9024982951725715
sg7
F0.26392382818740284
sg8
F0.33189890654644094
sg9
F1.9811155682688169
sg10
F0.18455408928240083
sg11
F0.047533432787171495
saF1067.395788036107
aa(lp45
(dp46
g3
I35
sg4
(lp47
F324.3941240654117
aF344.63783055199633
aF398.36383341869896
aF420.771778686056
aF634.5530397370551
aF895.8775301240817
aF934.2912930438113
asg6
F0.9096243361398995
sg7
F0.26392382818740284
sg8
F0.33391611397842064
sg9
F1.9811155682688169
sg10
F0.18455408928240083
sg11
F0.047533432787171495
saF1067.395788036107
aa(lp48
(dp49
g3
I35
sg4
(lp50
F337.3037071053318
aF362.4028481303301
aF366.3693510457724
aF384.6025687274466
aF618.4172742904875
aF895.8775301240817
aF973.7666255549025
asg6
F0.9200884712757813
sg7
F0.26306416282312733
sg8
F0.33698591921177035
sg9
F1.9811155682688169
sg10
F0.18455408928240083
sg11
F0.047533432787171495
saF1066.0759062814343
aa(lp51
(dp52
g3
I35
sg4
(lp53
F324.5292663229686
aF354.34753842004625
aF380.31189544419317
aF420.77177868603985
aF580.2807708395337
aF914.6022464709877
aF934.2912930438113
asg6
F0.9146834016642476
sg7
F0.26427703849410544
sg8
F0.3357863169477422
sg9
F1.9811155682688169
sg10
F0.18455408928240083
sg11
F0.04723376217303428
saF1059.188700187208
aa(lp54
(dp55
g3
I35
sg4
(lp56
F324.5292663229686
aF354.34753842004625
aF380.31189544419317
aF420.77177868603985
aF564.6807632300656
aF914.6022464709877
aF934.2912930438113
asg6
F0.9202580599367767
sg7
F0.26369682796440697
sg8
F0.3373709841986552
sg9
F1.9811155682688169
sg10
F0.18455408928240083
sg11
F0.047265115849207465
saF1059.188700187208
aa(lp57
(dp58
g3
I35
sg4
(lp59
F324.5292663229686
aF354.34753842004625
aF380.31189544419317
aF392.5710109459344
aF634.5530397370551
aF895.8775301240817
aF934.2912930438113
asg6
F0.9129232019995612
sg7
F0.26474995979379123
sg8
F0.3357863169477422
sg9
F1.9811155682688169
sg10
F0.18455408928240083
sg11
F0.04738167250106185
saF1059.188700187208
aa(lp60
(dp61
g3
I35
sg4
(lp62
F278.4813130179575
aF383.2559529486516
aF395.2189113980289
aF401.4391183336427
aF634.9317362730433
aF928.7652015650115
aF963.6782539080184
asg6
F0.927502681786951
sg7
F0.26306416282312733
sg8
F0.3369871097297402
sg9
F1.9731007530324176
sg10
F0.18455408928240083
sg11
F0.04767587411489892
saF1056.956177364638
aa(lp63
(dp64
g3
I35
sg4
(lp65
F311.40986794712376
aF366.3693510457724
aF377.52790545694893
aF398.36383341869896
aF618.4172742904875
aF895.8775301240817
aF913.9545353649978
asg6
F0.927502681786951
sg7
F0.26369682796440697
sg8
F0.3373709841986552
sg9
F1.9811155682688169
sg10
F0.18455408928240083
sg11
F0.04781831544262633
saF1055.307124449845
aa(lp66
(dp67
g3
I35
sg4
(lp68
F324.3941240654117
aF363.93074915000375
aF366.3693510457724
aF398.36383341869896
aF618.4172742904875
aF895.8775301240817
aF933.4846836850479
asg6
F0.9185635089634252
sg7
F0.2634304590441343
sg8
F0.3344883137542658
sg9
F1.9811155682688169
sg10
F0.18455408928240083
sg11
F0.04767587411489892
saF1054.6942242611879
aa(lp69
(dp70
g3
I35
sg4
(lp71
F324.3941240654117
aF363.93074915000375
aF366.3693510457724
aF398.36383341869896
aF618.4172742904875
aF895.8775301240817
aF933.4846836850479
asg6
F0.927502681786951
sg7
F0.26369682796440697
sg8
F0.3373709841986552
sg9
F1.9811155682688169
sg10
F0.18455408928240083
sg11
F0.04767587411489892
saF1054.6942242611879
aa(lp72
(dp73
g3
I35
sg4
(lp74
F324.3941240654117
aF363.93074915000375
aF366.3693510457724
aF398.36383341869896
aF618.4172742904875
aF895.8775301240817
aF933.4846836850479
asg6
F0.9185635089634252
sg7
F0.2634304590441343
sg8
F0.3344883137542658
sg9
F1.9811155682688169
sg10
F0.18455408928240083
sg11
F0.04767587411489892
saF1054.6942242611879
aa(lp75
(dp76
g3
I35
sg4
(lp77
F324.3941240654117
aF362.4028481303301
aF366.3693510457724
aF406.4205485983041
aF618.4172742904875
aF895.8775301240817
aF973.7666255549025
asg6
F0.9199640006583065
sg7
F0.26316409012386166
sg8
F0.3373066217390519
sg9
F1.9811155682688169
sg10
F0.18455408928240083
sg11
F0.047533432787171495
saF1053.1663232415142
aa(lp78
(dp79
g3
I35
sg4
(lp80
F324.3941240654117
aF362.4028481303301
aF366.3693510457724
aF406.4205485983041
aF618.4172742904875
aF895.8775301240817
aF973.7666255549025
asg6
F0.9199640006583065
sg7
F0.26316409012386166
sg8
F0.33746637774370775
sg9
F1.9811155682688169
sg10
F0.18455408928240083
sg11
F0.047533432787171495
saF1053.1663232415142
aa(lp81
(dp82
g3
I35
sg4
(lp83
F253.72643549075838
aF387.2831676434116
aF409.1279823919251
aF419.7673614812297
aF634.9317362730433
aF928.7652015650115
aF963.6782539080184
asg6
F0.927502681786951
sg7
F0.26369682796440697
sg8
F0.3369871097297402
sg9
F1.9731007530324176
sg10
F0.18455408928240083
sg11
F0.04781831544262633
saF1050.137585526095
aa(lp84
(dp85
g3
I35
sg4
(lp86
F211.33977442809555
aF339.87058311184046
aF498.56203077058876
aF516.8648107083063
aF615.0719987038342
aF691.5833108675138
aF979.7173464819671
asg6
F0.8995396396396915
sg7
F0.26380880019143615
sg8
F0.33189890654644094
sg9
F1.9811155682688169
sg10
F0.1600914335101507
sg11
F0.047533432787171495
saF1049.7723883105248
aa(lp87
(dp88
g3
I35
sg4
(lp89
F266.13956851541866
aF387.2831676434116
aF395.2189113980289
aF434.2547835371606
aF634.9317362730433
aF840.4964922431432
aF1017.7795935564986
asg6
F0.9185635089634252
sg7
F0.26369682796440697
sg8
F0.33602381162992556
sg9
F1.9712792041150542
sg10
F0.18455408928240083
sg11
F0.04767587411489892
saF1048.6416475568592
aa(lp90
(dp91
g3
I35
sg4
(lp92
F266.13956851541866
aF387.2831676434116
aF395.2189113980289
aF419.7673614812297
aF634.9317362730433
aF928.7652015650115
aF983.7157871111556
asg6
F0.927502681786951
sg7
F0.2636601883184872
sg8
F0.3369871097297402
sg9
F1.9731007530324176
sg10
F0.18455408928240083
sg11
F0.04767587411489892
saF1048.6416475568592
aa(lp93
(dp94
g3
I35
sg4
(lp95
F173.21043528144628
aF375.4181700107281
aF498.714945263524
aF516.8648107083063
aF615.0719987038342
aF691.5833108675138
aF960.5377558359426
asg6
F0.9100981369154706
sg7
F0.26369682796440697
sg8
F0.3344732574883532
sg9
F1.9811155682688169
sg10
F0.1600914335101507
sg11
F0.04732386189132997
saF1047.3435505556984
aa(lp96
(dp97
g3
I35
sg4
(lp98
F313.17207422771935
aF337.6955612168397
aF395.38489061115865
aF436.34271722024596
aF484.80380667319946
aF881.1598929173108
aF957.6211939000416
asg6
F0.9238578118401035
sg7
F0.26369682796440697
sg8
F0.3373709841986552
sg9
F1.9811155682688169
sg10
F0.18455408928240083
sg11
F0.04603865185734701
saF1046.2525260557177
aa(lp99
(dp100
g3
I35
sg4
(lp101
F326.4364386138568
aF337.6955612168397
aF381.2900937362972
aF422.25125526380884
aF499.6074338583753
aF862.6061904523986
aF957.6211939000416
asg6
F0.9129232019995612
sg7
F0.26444414426497764
sg8
F0.3316177907312809
sg9
F1.9811155682688169
sg10
F0.18455408928240083
sg11
F0.04603865185734701
saF1045.4220935669937
aa(lp102
(dp103
g3
I35
sg4
(lp104
F324.5292663229686
aF354.34753842004625
aF366.3693510457724
aF406.4205485983041
aF618.4172742904875
aF895.8775301240817
aF934.2912930438113
asg6
F0.9076528361339028
sg7
F0.263634796895418
sg8
F0.33344219244666934
sg9
F1.9811155682688169
sg10
F0.18455408928240083
sg11
F0.04744392669635268
saF1045.2461557887873
aa(lp105
(dp106
g3
I35
sg4
(lp107
F324.5292663229686
aF354.34753842004625
aF366.3693510457724
aF406.4205485983041
aF634.5530397370551
aF895.8775301240817
aF934.2912930438113
asg6
F0.9165680719464087
sg7
F0.2642233938790991
sg8
F0.33602381162992556
sg9
F1.9811155682688169
sg10
F0.18455408928240083
sg11
F0.04746129125005693
saF1045.2461557887873
aa(lp108
(dp109
g3
I35
sg4
(lp110
F337.3037071053318
aF344.63783055199633
aF362.4028481303301
aF420.771778686056
aF618.4172742904875
aF895.8775301240817
aF972.9435547806588
asg6
F0.9185635089634252
sg7
F0.26316409012386166
sg8
F0.3373066217390519
sg9
F1.9811155682688169
sg10
F0.18455408928240083
sg11
F0.04756904311910335
saF1044.3443857876582
aa(lp111
(dp112
g3
I35
sg4
(lp113
F337.3037071053318
aF344.63783055199633
aF362.4028481303301
aF420.771778686056
aF618.4172742904875
aF895.8775301240817
aF972.9435547806588
asg6
F0.9096243361398995
sg7
F0.26316409012386166
sg8
F0.3344883137542658
sg9
F1.9811155682688169
sg10
F0.18455408928240083
sg11
F0.047533432787171495
saF1044.3443857876582
aa(lp114
(dp115
g3
I35
sg4
(lp116
F333.0882759682886
aF333.1792941363417
aF377.52790545694893
aF398.36383341869896
aF618.4172742904875
aF881.6434856120661
aF928.7652015650115
asg6
F0.9199640006583065
sg7
F0.26369682796440697
sg8
F0.33189890654644094
sg9
F1.9811155682688169
sg10
F0.18455408928240083
sg11
F0.04781831544262633
saF1043.7954755615792
aa(lp117
(dp118
g3
I35
sg4
(lp119
F253.72643549075838
aF365.2190218359556
aF423.5068393551055
aF434.2547835371606
aF691.0809070137338
aF840.4964922431432
aF1057.9251930609767
asg6
F0.9202129418932561
sg7
F0.26369682796440697
sg8
F0.33602381162992556
sg9
F1.9712792041150542
sg10
F0.18455408928240083
sg11
F0.04781831544262633
saF1042.4522966818195
aa(lp120
(dp121
g3
I35
sg4
(lp122
F266.13956851541866
aF365.2190218359556
aF409.4558390653481
aF419.7673614812297
aF634.9317362730433
aF928.7652015650115
aF983.7157871111556
asg6
F0.9202580599367767
sg7
F0.26369682796440697
sg8
F0.3369871097297402
sg9
F1.9731007530324176
sg10
F0.18455408928240083
sg11
F0.04767587411489892
saF1040.8144294167223
aa(lp123
(dp124
g3
I35
sg4
(lp125
F148.36166003114454
aF423.2447189114471
aF468.4238959491281
aF536.9551887062366
aF596.9799357595637
aF624.308572271266
aF1001.6007544645329
asg6
F0.9030708079134149
sg7
F0.262914548470511
sg8
F0.3351820582049113
sg9
F1.9811155682688169
sg10
F0.16611451601251181
sg11
F0.046393902165352156
saF1040.0302748917197
aa(lp126
(dp127
g3
I35
sg4
(lp128
F278.8559311068216
aF346.73903716406767
aF412.97647414185894
aF473.2084481443196
aF499.9548659249681
aF826.2087762790206
aF1042.968392920897
asg6
F0.9193882254283406
sg7
F0.26369682796440697
sg8
F0.3350605135301109
sg9
F1.9712792041150542
sg10
F0.18455408928240083
sg11
F0.04603865185734701
saF1038.5714424127482
aa(lp129
(dp130
g3
I35
sg4
(lp131
F253.72643549075838
aF383.2559529486516
aF401.4391183336427
aF409.1279823919251
aF634.9317362730433
aF928.7652015650115
aF963.6782539080184
asg6
F0.9202129418932561
sg7
F0.2632027051477872
sg8
F0.3349104431636846
sg9
F1.9733436262213995
sg10
F0.18455408928240083
sg11
F0.04781831544262633
saF1038.4215067730527
aa(lp132
(dp133
g3
I35
sg4
(lp134
F253.72643549075838
aF383.2559529486516
aF401.4391183336427
aF409.1279823919251
aF634.9317362730433
aF928.7652015650115
aF963.6782539080184
asg6
F0.9202129418932561
sg7
F0.2632027051477872
sg8
F0.3349104431636846
sg9
F1.9733436262213995
sg10
F0.18455408928240083
sg11
F0.04781831544262633
saF1038.4215067730527
aa(lp135
(dp136
g3
I35
sg4
(lp137
F291.6396780822215
aF362.4028481303301
aF380.31189544419203
aF406.4205485983041
aF618.4172742904875
aF895.8775301240817
aF953.8295889331368
asg6
F0.9199640006583065
sg7
F0.2624314976818477
sg8
F0.3373066217390519
sg9
F1.9811155682688169
sg10
F0.18455408928240083
sg11
F0.047533432787171495
saF1034.3544216567436
aa(lp138
(dp139
g3
I35
sg4
(lp140
F291.6396780822215
aF362.4028481303301
aF380.31189544419203
aF406.4205485983041
aF618.4172742904875
aF895.8775301240817
aF953.8295889331368
asg6
F0.9199640006583065
sg7
F0.2624314976818477
sg8
F0.3373066217390519
sg9
F1.9811155682688169
sg10
F0.18455408928240083
sg11
F0.047533432787171495
saF1034.3544216567436
aa(lp141
(dp142
g3
I35
sg4
(lp143
F291.6396780822215
aF362.4028481303301
aF380.31189544419203
aF420.771778686056
aF618.4172742904875
aF895.8775301240817
aF953.8295889331368
asg6
F0.9121611536657173
sg7
F0.2623139894408402
sg8
F0.33476252014740226
sg9
F1.9811155682688169
sg10
F0.18455408928240083
sg11
F0.047533432787171495
saF1034.3544216567436
aa(lp144
(dp145
g3
I35
sg4
(lp146
F291.6396780822215
aF362.4028481303301
aF380.31189544419203
aF406.4205485983041
aF618.4172742904875
aF895.8775301240817
aF953.8295889331368
asg6
F0.9199640006583065
sg7
F0.2624314976818477
sg8
F0.3373066217390519
sg9
F1.9811155682688169
sg10
F0.18455408928240083
sg11
F0.047533432787171495
saF1034.3544216567436
aa(lp147
(dp148
g3
I35
sg4
(lp149
F324.5292663229686
aF352.96437360001096
aF354.34753842004625
aF384.6025687274466
aF634.5530397370551
aF895.8775301240817
aF934.2912930438113
asg6
F0.9199640006583065
sg7
F0.26474995979379123
sg8
F0.3367062253480529
sg9
F1.9811155682688169
sg10
F0.18455408928240083
sg11
F0.04746129125005693
saF1031.8411783430258
aa(lp150
(dp151
g3
I35
sg4
(lp152
F324.3941240654117
aF344.63783055199633
aF362.4028481303301
aF463.8254689492701
aF618.4172742904875
aF895.8775301240817
aF972.9435547806588
asg6
F0.9199640006583065
sg7
F0.26316409012386166
sg8
F0.3374985589735094
sg9
F1.9811155682688169
sg10
F0.18455408928240083
sg11
F0.04767587411489892
saF1031.434802747738
aa(lp153
(dp154
g3
I35
sg4
(lp155
F324.3941240654117
aF344.63783055199633
aF362.4028481303301
aF420.771778686056
aF618.4172742904875
aF895.8775301240817
aF972.9435547806588
asg6
F0.9060613156562355
sg7
F0.2631776629346253
sg8
F0.3329075102624308
sg9
F1.9811155682688169
sg10
F0.18455408928240083
sg11
F0.047533432787171495
saF1031.434802747738
aa(lp156
(dp157
g3
I35
sg4
(lp158
F205.858598978195
aF345.43818902930843
aF479.224821242761
aF493.7161355712915
aF498.56203077058876
aF685.6240339797077
aF950.6858073141468
asg6
F0.9156035935661462
sg7
F0.2653221217505506
sg8
F0.3351419969409315
sg9
F1.9811155682688169
sg10
F0.1590682055244943
sg11
F0.04754090999905201
saF1030.5216092502644
aa(lp159
(dp160
g3
I35
sg4
(lp161
F333.1792941363417
aF337.012378825862
aF346.4245460315756
aF398.36383341869896
aF564.6807632300656
aF901.6369216617429
aF928.7652015650115
asg6
F0.9199640006583065
sg7
F0.26369682796440697
sg8
F0.33189890654644094
sg9
F1.9811155682688169
sg10
F0.18455408928240083
sg11
F0.047533432787171495
saF1016.6162189937793
aa(lp162
(dp163
g3
I35
sg4
(lp164
F319.71283661981215
aF333.0882759682886
aF377.52790545694893
aF398.36383341869896
aF618.4172742904875
aF900.843929342803
aF928.7652015650115
asg6
F0.9185635089634252
sg7
F0.26392382818740284
sg8
F0.33189890654644094
sg9
F1.9811155682688169
sg10
F0.18455408928240083
sg11
F0.04767587411489892
saF1030.3290180450497
aa(lp165
(dp166
g3
I35
sg4
(lp167
F253.66647058001763
aF291.6396780822215
aF358.3586247412991
aF406.4205485983041
aF634.7649235257438
aF832.7494920640979
aF972.9435547806588
asg6
F0.9060613156562355
sg7
F0.2624314976818477
sg8
F0.33510706600074136
sg9
F1.9811155682688169
sg10
F0.18455408928240083
sg11
F0.047533432787171495
saF903.6647734035382
aa(lp168
(dp169
g3
I35
sg4
(lp170
F324.5292663229686
aF354.34753842004625
aF380.31189544419317
aF420.77177868603985
aF531.5496457475654
aF873.7263993281508
aF895.2628298399652
asg6
F0.9199640006583065
sg7
F0.2639674426570422
sg8
F0.33775485866757016
sg9
F1.9811155682688169
sg10
F0.18455408928240083
sg11
F0.047046794378425225
saF1059.188700187208
aa(lp171
(dp172
g3
I35
sg4
(lp173
F266.13956851541866
aF365.2190218359556
aF409.4558390653481
aF434.2547835371606
aF634.9317362730433
aF840.4964922431432
aF1003.957784938817
asg6
F0.9096243361398995
sg7
F0.2634304590441343
sg8
F0.3344883137542658
sg9
F1.9731007530324176
sg10
F0.18455408928240083
sg11
F0.04767587411489892
saF1040.8144294167223
aa(lp174
(dp175
g3
I35
sg4
(lp176
F324.5292663229686
aF354.34753842004625
aF366.7701325142989
aF384.6025687274466
aF634.5530397370551
aF895.8775301240817
aF934.2912930438113
asg6
F0.9164436013289339
sg7
F0.26474995979379123
sg8
F0.3357863169477422
sg9
F1.9811155682688169
sg10
F0.18455408928240083
sg11
F0.04738167250106185
saF1045.6469372573138
aa(lp177
(dp178
g3
I35
sg4
(lp179
F253.72643549075838
aF366.3693510457724
aF398.36383341869896
aF399.23440578536156
aF634.9317362730433
aF913.9545353649978
aF928.7652015650115
asg6
F0.927502681786951
sg7
F0.2636601883184872
sg8
F0.3373709841986552
sg9
F1.9771081606506171
sg10
F0.18455408928240083
sg11
F0.04781831544262633
saF1018.4596199552298
aa(lp180
(dp181
g3
I35
sg4
(lp182
F-2.5471304231220984
aF54.119748820242876
aF168.97718729024018
aF279.6221425093129
aF448.8636137231847
aF515.8285827296427
aF1496.8706790584051
asg6
F0.5530126721793537
sg7
F0.2636937721954695
sg8
F0.3373709841986552
sg9
F1.9811155682688169
sg10
F0.1600914335101507
sg11
F0.04682940834003361
saF220.54980568736096
aa(lp183
(dp184
g3
I35
sg4
(lp185
F323.81513888088557
aF324.5292663229686
aF354.34753842004625
aF380.31189544419317
aF564.6807632300656
aF914.6022464709877
aF934.2912930438113
asg6
F0.9149411980383381
sg7
F0.26392382818740284
sg8
F0.33391611397842064
sg9
F1.9811155682688169
sg10
F0.18455408928240083
sg11
F0.047265115849207465
saF1002.6919436239004
aa(lp186
(dp187
g3
I35
sg4
(lp188
F253.72643549075838
aF383.2559529486516
aF395.2189113980289
aF401.4391183336427
aF634.9317362730433
aF840.4964922431432
aF963.6782539080184
asg6
F0.9202129418932561
sg7
F0.2632027051477872
sg8
F0.33546712739680506
sg9
F1.9723114151682268
sg10
F0.18455408928240083
sg11
F0.04774709477876263
saF1032.201299837439
aa(lp189
(dp190
g3
I35
sg4
(lp191
F323.81513888088557
aF336.62781145994495
aF337.90834982117894
aF398.36383341869896
aF634.5530397370551
aF895.8775301240817
aF934.2912930438113
asg6
F0.9199640006583065
sg7
F0.2653221217505506
sg8
F0.3351419969409315
sg9
F1.9811155682688169
sg10
F0.18455408928240083
sg11
F0.047537171393111755
saF998.3513001620095
aa(lp192
(dp193
g3
I35
sg4
(lp194
F253.72643549075838
aF319.78374447551073
aF365.2190218359556
aF395.2189113980289
aF691.0809070137338
aF840.4964922431432
aF1099.9236663887655
asg6
F0.9060613156562355
sg7
F0.26343724544951613
sg8
F0.3344656609461782
sg9
F1.9712792041150542
sg10
F0.18455408928240083
sg11
F0.04781831544262633
saF938.7292018022247
aa(lp195
(dp196
g3
I35
sg4
(lp197
F324.3941240654117
aF362.4028481303301
aF366.3693510457724
aF406.4205485983041
aF618.4172742904875
aF895.8775301240817
aF973.7666255549025
asg6
F0.9199640006583065
sg7
F0.26316409012386166
sg8
F0.33741868097118144
sg9
F1.9811155682688169
sg10
F0.18455408928240083
sg11
F0.047533432787171495
saF1053.1663232415142
aa(lp198
(dp199
g3
I35
sg4
(lp200
F323.81513888088557
aF324.5292663229686
aF366.3693510457724
aF398.36383341869896
aF618.4172742904875
aF895.8775301240817
aF934.2912930438113
asg6
F0.9200884712757813
sg7
F0.26369682796440697
sg8
F0.3344883137542658
sg9
F1.9811155682688169
sg10
F0.18455408928240083
sg11
F0.0475375742165442
saF1014.7137562496266
aa(lp201
(dp202
g3
I35
sg4
(lp203
F211.33977442809555
aF339.87058311184046
aF483.8702461551875
aF562.8304110328017
aF670.5391178512352
aF691.5833108675138
aF1019.105662221577
asg6
F0.9100981369154706
sg7
F0.26369682796440697
sg8
F0.3359221208435042
sg9
F1.9811155682688169
sg10
F0.1600914335101507
sg11
F0.04781831544262633
saF1035.0806036951235
aa(lp204
(dp205
g3
I35
sg4
(lp206
F337.3037071053318
aF362.4028481303301
aF366.3693510457724
aF384.6025687274466
aF618.4172742904875
aF895.8775301240817
aF973.7666255549025
asg6
F0.9200262359670439
sg7
F0.2631141264734945
sg8
F0.3371462704754111
sg9
F1.9811155682688169
sg10
F0.18455408928240083
sg11
F0.047533432787171495
saF1066.0759062814343
aa(lp207
(dp208
g3
I35
sg4
(lp209
F263.68428323947774
aF346.4245460315756
aF356.2351014657206
aF373.7092398543466
aF531.2976632457996
aF873.7263993281508
aF933.9197328626035
asg6
F0.9199640006583065
sg7
F0.2634378209734127
sg8
F0.3316177907312809
sg9
F1.9811155682688169
sg10
F0.18455408928240083
sg11
F0.046786042322259254
saF966.3439307367739
aa(lp210
(dp211
g3
I35
sg4
(lp212
F246.25407291234342
aF276.05857209222404
aF358.3586247412993
aF389.76340810129454
aF651.0636765020781
aF832.7494920640979
aF973.1448755515466
asg6
F0.8995396396396915
sg7
F0.26380880019143615
sg8
F0.33396135908818325
sg9
F1.9811155682688169
sg10
F0.18455408928240083
sg11
F0.04749736201861421
saF880.6712697458668
aa(lp213
(dp214
g3
I35
sg4
(lp215
F308.405962022691
aF324.5292663229686
aF407.9083067377728
aF420.77177868603985
aF515.8300100817023
aF876.1187608516832
aF892.652928614295
asg6
F0.9200884712757813
sg7
F0.26318492552029316
sg8
F0.33737038893967025
sg9
F1.9811155682688169
sg10
F0.18455408928240083
sg11
F0.0467119162557886
saF1040.8435350834325
aa(lp216
(dp217
g3
I35
sg4
(lp218
F323.81513888088557
aF337.90834982117894
aF366.3693510457724
aF398.36383341869896
aF564.6807632300656
aF895.8775301240817
aF934.2912930438113
asg6
F0.9185635089634252
sg7
F0.26353262796977617
sg8
F0.33344219244666934
sg9
F1.9811155682688169
sg10
F0.18455408928240083
sg11
F0.0475599004056258
saF1028.092839747837
aa(lp219
(dp220
g3
I35
sg4
(lp221
F278.8559311068216
aF346.73903716406767
aF412.97647414185894
aF436.34271722024596
aF499.9548659249681
aF913.792258406695
aF988.5835699260078
asg6
F0.9202129418932561
sg7
F0.26369682796440697
sg8
F0.3350605135301109
sg9
F1.9761973861919355
sg10
F0.18455408928240083
sg11
F0.04603865185734701
saF1038.5714424127482
aa(lp222
(dp223
g3
I35
sg4
(lp224
F324.3941240654117
aF344.63783055199633
aF398.36383341869896
aF420.771778686056
aF634.5530397370551
aF895.8775301240817
aF933.4846836850479
asg6
F0.9100981369154706
sg7
F0.26369682796440697
sg8
F0.3344732574883532
sg9
F1.9811155682688169
sg10
F0.18455408928240083
sg11
F0.04753550350185785
saF1067.395788036107
aa(lp225
(dp226
g3
I35
sg4
(lp227
F253.72643549075838
aF383.2559529486516
aF401.4391183336427
aF409.1279823919251
aF634.9317362730433
aF928.7652015650115
aF943.8431200301588
asg6
F0.9238578118401035
sg7
F0.2632027051477872
sg8
F0.3359487764467124
sg9
F1.9731007530324176
sg10
F0.18455408928240083
sg11
F0.04781831544262633
saF1038.4215067730527
aa(lp228
(dp229
g3
I35
sg4
(lp230
F324.3941240654117
aF363.93074915000375
aF366.3693510457724
aF398.36383341869896
aF618.4172742904875
aF895.8775301240817
aF933.4846836850479
asg6
F0.9193259901196033
sg7
F0.26369682796440697
sg8
F0.3355767652193773
sg9
F1.9811155682688169
sg10
F0.18455408928240083
sg11
F0.04767587411489892
saF1054.6942242611879
aa(lp231
(dp232
g3
I46
sg4
(lp233
F-85.21847611485975
aF43.64502797204136
aF86.93861626339299
aF427.3725004583853
aF433.5092996178132
aF1205.4747990390188
aF1447.6347548966114
asg6
F0.9200884712757813
sg7
F0.26306416282312733
sg8
F0.33698591921177035
sg9
F1.9811155682688169
sg10
F0.18455408928240083
sg11
F0.047533432787171495
saF45.365168120574594
aa(lp234
(dp235
g3
I35
sg4
(lp236
F308.405962022691
aF324.5292663229686
aF356.2351014657206
aF407.9083067377728
aF531.2976632457996
aF873.5352222646575
aF876.1187608516832
asg6
F0.9199640006583065
sg7
F0.2631745078220774
sg8
F0.336121586210918
sg9
F1.9811155682688169
sg10
F0.18455408928240083
sg11
F0.0467119162557886
saF989.1703298113803
aa(lp237
(dp238
g3
I108
sg4
(lp239
F-99.80180819225154
aF-98.40384147513782
aF43.94927250914293
aF102.96843833228127
aF148.89991189033208
aF813.1840161381449
aF932.6584657634703
asg6
F0.914794168399103
sg7
F0.2624314976818477
sg8
F0.33391611397842064
sg9
F1.9811155682688169
sg10
F0.18455408928240083
sg11
F0.047533432787171495
saF-154.25637715824644
aa(lp240
(dp241
g3
I35
sg4
(lp242
F207.89059551091964
aF286.3781034959468
aF373.9730322741698
aF380.1285035713893
aF633.36743590744
aF786.9687663078198
aF958.1715929400002
asg6
F0.9185635089634252
sg7
F0.2636937721954695
sg8
F0.33602381162992556
sg9
F1.9761973861919355
sg10
F0.17232276139627578
sg11
F0.047252641227466266
saF868.2417312810362
aa(lp243
(dp244
g3
I35
sg4
(lp245
F291.6396780822215
aF362.4028481303301
aF380.31189544419203
aF406.4205485983041
aF618.4172742904875
aF895.8775301240817
aF953.8295889331368
asg6
F0.9160625771620119
sg7
F0.262372743561344
sg8
F0.3360345709432271
sg9
F1.9811155682688169
sg10
F0.18455408928240083
sg11
F0.047533432787171495
saF1034.3544216567436
aa(lp246
(dp247
g3
I35
sg4
(lp248
F125.40576587281294
aF155.36917428706283
aF210.65630025161272
aF383.52665797116515
aF490.5033653504631
aF640.1660744244541
aF1476.4671745930746
asg6
F0.9237333412226287
sg7
F0.26369682796440697
sg8
F0.3369871097297402
sg9
F2.2959976220018947
sg10
F0.18455408928240083
sg11
F0.04781831544262633
saF491.4312404114885
aa(lp249
(dp250
g3
I35
sg4
(lp251
F200.02960028733264
aF389.45304929655117
aF448.82381927335905
aF482.12348004036903
aF508.13442796726576
aF697.867312924597
aF936.3966105671275
asg6
F0.9030708079134149
sg7
F0.26336167433097357
sg8
F0.33354048237567613
sg9
F1.9811155682688169
sg10
F0.16310297476133126
sg11
F0.04696366747626182
saF1038.3064688572429
aa(lp252
(dp253
g3
I35
sg4
(lp254
F286.75733028199556
aF324.3941240654117
aF344.63783055199633
aF406.4205485983041
aF634.5530397370551
aF895.8775301240817
aF972.9435547806588
asg6
F0.9060613156562355
sg7
F0.2634189256265562
sg8
F0.3349473099960855
sg9
F1.9811155682688169
sg10
F0.18455408928240083
sg11
F0.047533432787171495
saF955.7892848994036
aa(lp255
(dp256
g3
I35
sg4
(lp257
F150.15215271153215
aF176.16641947774474
aF286.38323793659697
aF356.1440090734384
aF696.0577787357802
aF705.108104566388
aF1154.162343180296
asg6
F0.7916730276171537
sg7
F0.2624314976818477
sg8
F0.33666521668448873
sg9
F1.9811155682688169
sg10
F0.18455408928240083
sg11
F0.04746129125005693
saF612.7018101258739
aa(lp258
(dp259
g3
I35
sg4
(lp260
F324.3941240654117
aF363.93074915000375
aF366.3693510457724
aF398.36383341869896
aF618.4172742904875
aF895.8775301240817
aF933.4846836850479
asg6
F0.927502681786951
sg7
F0.26369682796440697
sg8
F0.3373709841986552
sg9
F1.9811155682688169
sg10
F0.18455408928240083
sg11
F0.04767587411489892
saF1054.6942242611879
aa(lp261
(dp262
g3
I35
sg4
(lp263
F266.26876643057494
aF368.00125556342846
aF415.4340060510633
aF423.7412174951994
aF562.3461122136737
aF821.314902209474
aF935.6643264269348
asg6
F0.9193882254283406
sg7
F0.26474995979379123
sg8
F0.3367062253480529
sg9
F1.9712792041150542
sg10
F0.18455408928240083
sg11
F0.046749971553701974
saF1049.7040280450667
aa(lp264
(dp265
g3
I35
sg4
(lp266
F324.3941240654117
aF366.3693510457724
aF384.6025687274466
aF398.36383341869896
aF618.4172742904875
aF895.8775301240817
aF934.2912930438113
asg6
F0.9200884712757813
sg7
F0.26356364350427064
sg8
F0.3367450946868167
sg9
F1.9811155682688169
sg10
F0.18455408928240083
sg11
F0.047533432787171495
saF1075.3660438386307
aa(lp267
(dp268
g3
I35
sg4
(lp269
F324.5292663229686
aF354.34753842004625
aF380.31189544419317
aF398.7311663675241
aF516.4306956414728
aF873.7263993281508
aF914.6022464709877
asg6
F0.9182660363023576
sg7
F0.26370415969969613
sg8
F0.33602381162992556
sg9
F1.9811155682688169
sg10
F0.18455408928240083
sg11
F0.047086603752922764
saF1059.188700187208
aa(lp270
(dp271
g3
I35
sg4
(lp272
F264.75905763134574
aF324.5292663229686
aF389.76340810128886
aF394.39671070382474
aF531.3933811168379
aF832.1552597808536
aF873.7263993281508
asg6
F0.9030708079134149
sg7
F0.2638322541321511
sg8
F0.3351820582049113
sg9
F1.9811155682688169
sg10
F0.18455408928240083
sg11
F0.04692759670770454
saF979.0517320556032
aa(lp273
(dp274
g3
I35
sg4
(lp275
F324.5292663229686
aF374.4575473238642
aF398.7311663675241
aF407.9083067377728
aF531.2976632457996
aF854.7998700420071
aF876.1187608516832
asg6
F0.921910906249205
sg7
F0.26369682796440697
sg8
F0.33733880296885355
sg9
F1.9811155682688169
sg10
F0.18455408928240083
sg11
F0.046786042322259254
saF1097.717980014357
aa(lp276
(dp277
g3
I35
sg4
(lp278
F231.6411972805397
aF319.78374447551073
aF365.2190218359556
aF382.62979974318637
aF725.1930660593143
aF779.2125059278526
aF1099.9236663887655
asg6
F0.8995396396396915
sg7
F0.2632027051477872
sg8
F0.3349104431636846
sg9
F1.9733436262213995
sg10
F0.18455408928240083
sg11
F0.04781831544262633
saF916.643963592006
aa(lp279
(dp280
g3
I35
sg4
(lp281
F337.3037071053318
aF358.3586247412991
aF362.4028481303301
aF463.8254689492701
aF618.4172742904875
aF895.8775301240817
aF972.9435547806588
asg6
F0.9121611536657173
sg7
F0.2627390397823509
sg8
F0.33476252014740226
sg9
F1.9811155682688169
sg10
F0.18455408928240083
sg11
F0.047604653451035206
saF1058.065179976961
aa(lp282
(dp283
g3
I35
sg4
(lp284
F197.70851431645178
aF311.8320296478694
aF354.15804559483126
aF469.94638851410787
aF527.0060551615693
aF712.7975965036906
aF988.8929891572641
asg6
F0.8995396396396915
sg7
F0.26361962961778523
sg8
F0.33189890654644094
sg9
F1.9811155682688169
sg10
F0.146392839722434
sg11
F0.047533432787171495
saF863.6985895591524
aa(lp285
(dp286
g3
I35
sg4
(lp287
F324.3941240654117
aF363.93074915000375
aF366.3693510457724
aF398.36383341869896
aF618.4172742904875
aF895.8775301240817
aF933.4846836850479
asg6
F0.911231147915439
sg7
F0.2635439591556322
sg8
F0.33189890654644094
sg9
F1.9811155682688169
sg10
F0.18455408928240083
sg11
F0.04767587411489892
saF1054.6942242611879
aa(lp288
(dp289
g3
I35
sg4
(lp290
F337.3037071053318
aF362.4028481303301
aF363.93074915000375
aF380.31189544419203
aF618.4172742904875
aF895.8775301240817
aF953.0148320051001
asg6
F0.9237955765313661
sg7
F0.26306416282312733
sg8
F0.33698591921177035
sg9
F1.9811155682688169
sg10
F0.18455408928240083
sg11
F0.047604653451035206
saF1063.6373043856656
aa(lp291
(dp292
g3
I35
sg4
(lp293
F278.8559311068216
aF333.13561254624847
aF357.52683240251554
aF412.97647414185894
aF514.9095505304006
aF894.9167060010614
aF1008.8752390068867
asg6
F0.927502681786951
sg7
F0.26444414426497764
sg8
F0.33430245023051053
sg9
F1.9731007530324176
sg10
F0.18455408928240083
sg11
F0.04603865185734701
saF969.5183760555856
aa(lp294
(dp295
g3
I35
sg4
(lp296
F108.39137934997439
aF245.58289691339996
aF305.0465024367809
aF335.13884835776344
aF663.2010347018104
aF687.1005063935904
aF1153.6369889848079
asg6
F0.8098777331281986
sg7
F0.2636601883184872
sg8
F0.3369871097297402
sg9
F1.9731007530324176
sg10
F0.18455408928240083
sg11
F0.04767587411489892
saF659.0207787001552
aa(lp297
(dp298
g3
I35
sg4
(lp299
F266.13956851541866
aF366.3693510457724
aF385.42299125781665
aF419.7673614812297
aF634.9317362730433
aF928.7652015650115
aF964.0653087841467
asg6
F0.9202129418932561
sg7
F0.26369682796440697
sg8
F0.33602381162992556
sg9
F1.9761973861919355
sg10
F0.18455408928240083
sg11
F0.04767587411489892
saF1017.9319108190077
aa(lp300
(dp301
g3
I35
sg4
(lp302
F324.3941240654117
aF366.3693510457724
aF398.36383341869896
aF406.4205485983041
aF618.4172742904875
aF895.8775301240817
aF934.2912930438113
asg6
F0.9200884712757813
sg7
F0.26369682796440697
sg8
F0.33746637774370775
sg9
F1.9811155682688169
sg10
F0.18455408928240083
sg11
F0.04753550350185785
saF1089.127308529883
aa(lp303
(dp304
g3
I35
sg4
(lp305
F276.05857209222404
aF286.75733028199556
aF344.63783055199633
aF431.8774507710307
aF707.7668734728561
aF832.7494920640979
aF1012.4024258762729
asg6
F0.8995396396396915
sg7
F0.26375281407792156
sg8
F0.33396135908818325
sg9
F1.9811155682688169
sg10
F0.18455408928240083
sg11
F0.04767587411489892
saF907.4537329262159
aa(lp306
(dp307
g3
I35
sg4
(lp308
F291.6396780822215
aF323.81513888088557
aF362.4028481303301
aF380.31189544419203
aF618.4172742904875
aF895.8775301240817
aF953.8295889331368
asg6
F0.9156035935661462
sg7
F0.2623139894408402
sg8
F0.33476252014740226
sg9
F1.9811155682688169
sg10
F0.18455408928240083
sg11
F0.047537171393111755
saF977.8576650934372
aa.