(lp0
(lp1
(dp2
S'history_in_weeks'
p3
I86
sS'end_weight'
p4
F0.8798356971021233
sS'close_match_threshold'
p5
F0.2942792843692874
sS'start_weight'
p6
F0.5683611836396184
sS'over_power_threshold'
p7
F1.3018010513269362
sS'over_power_extra'
p8
F0.09565023466153683
sS'close_match_trim'
p9
F0.0219593504096392
saF1054.1393766982274
aa(lp10
(dp11
g3
I86
sg4
F0.8798356971021233
sg5
F0.2942792843692874
sg6
F0.5683611836396184
sg7
F1.3018010513269362
sg8
F0.09565023466153683
sg9
F0.0219593504096392
saF1054.1393766982274
aa(lp12
(dp13
g3
I28
sg4
F0.9891536343594272
sg5
F0.10611761470124667
sg6
F0.5386358857572038
sg7
F4.460541596954712
sg8
F0.14871289853034378
sg9
F0.02176839654431876
saF202.0048512979106
aa(lp14
(dp15
g3
I97
sg4
F1.0
sg5
F0.2942792843692874
sg6
F0.5683611836396184
sg7
F1.8747627665687023
sg8
F0.09565023466153683
sg9
F0.020465109975122853
saF201.30304495534347
aa(lp16
(dp17
g3
I112
sg4
F1.0
sg5
F0.2643857983586441
sg6
F0.26612804553845215
sg7
F2.9743929251757084
sg8
F0.06987820258692523
sg9
F0.0036332301103510823
saF191.6711671048099
aa(lp18
(dp19
g3
I20
sg4
F0.9173715334471989
sg5
F0.06036957022654213
sg6
F0.5386358857572038
sg7
F4.243814800320855
sg8
F0.0977006810436688
sg9
F0.019395596647531474
saF169.01343230383964
aa(lp20
(dp21
g3
I20
sg4
F0.9891536343594272
sg5
F0.10611761470124667
sg6
F0.5386358857572038
sg7
F4.243814800320855
sg8
F0.11531345338669169
sg9
F0.027887032130081327
saF151.79104825928903
aa(lp22
(dp23
g3
I20
sg4
F0.9891536343594272
sg5
F0.10611761470124667
sg6
F0.5386358857572038
sg7
F4.243814800320855
sg8
F0.11531345338669169
sg9
F0.027887032130081327
saF151.79104825928903
aa(lp24
(dp25
g3
I28
sg4
F0.9342567060005725
sg5
F0.10611761470124667
sg6
F0.5386358857572038
sg7
F4.243814800320855
sg8
F0.11531345338669169
sg9
F0.017522678803043833
saF141.99807950027184
aa(lp26
(dp27
g3
I24
sg4
F0.9245998610260737
sg5
F0.10611761470124667
sg6
F0.5386358857572038
sg7
F4.250670860216142
sg8
F0.11414632629885235
sg9
F0.02346765293438846
saF140.58046813004466
aa(lp28
(dp29
g3
I20
sg4
F0.9891536343594272
sg5
F0.1185769477988401
sg6
F0.5386358857572038
sg7
F4.243814800320855
sg8
F0.08008790870064592
sg9
F0.019395596647531474
saF126.57940800039296
aa(lp30
(dp31
g3
I112
sg4
F0.654028078590676
sg5
F0.36211338459754416
sg6
F0.26612804553845215
sg7
F2.9743929251757084
sg8
F0.08008790870064592
sg9
F0.006728448811039267
saF113.54937040494042
aa(lp32
(dp33
g3
I28
sg4
F0.9216129441459326
sg5
F0.11824841624499355
sg6
F0.506235427170669
sg7
F4.991163252552154
sg8
F0.18211234367399587
sg9
F0.02176839654431876
saF109.0713430677472
aa(lp34
(dp35
g3
I28
sg4
F0.9089691822912926
sg5
F0.03293241048559252
sg6
F0.5386358857572038
sg7
F4.460541596954712
sg8
F0.14871289853034378
sg9
F0.018709078751437475
saF97.61876686955748
aa(lp36
(dp37
g3
I20
sg4
F0.9006283351012132
sg5
F0.004384231381176662
sg6
F0.5241193236551391
sg7
F4.441933927150204
sg8
F0.18211234367399587
sg9
F0.01097502623111668
saF81.11828785708758
aa(lp38
(dp39
g3
I24
sg4
F0.9216129441459326
sg5
F0.23211260110881043
sg6
F0.551729085800213
sg7
F4.991163252552154
sg8
F0.18211234367399587
sg9
F0.02176839654431876
saF79.61501102880175
aa(lp40
(dp41
g3
I112
sg4
F0.9116807737014359
sg5
F0.36211338459754416
sg6
F0.26612804553845215
sg7
F2.9743929251757084
sg8
F0.12631884310961616
sg9
F0.006300291503677169
saF57.27928906298257
aa(lp42
(dp43
g3
I112
sg4
F0.8615767813815675
sg5
F0.36211338459754416
sg6
F0.26612804553845215
sg7
F2.9743929251757084
sg8
F0.08008790870064592
sg9
F0.006300291503677169
saF52.053344733879385
aa(lp44
(dp45
g3
I94
sg4
F0.8287847302231581
sg5
F0.004384231381176662
sg6
F0.6225242309524771
sg7
F4.568133491766776
sg8
F0.1028098088730985
sg9
F0.019395596647531474
saF50.765534106626774
aa(lp46
(dp47
g3
I28
sg4
F0.8408440009280831
sg5
F0.004384231381176662
sg6
F0.45966347351203357
sg7
F4.991163252552154
sg8
F0.17254977751858638
sg9
F0.13635373319674657
saF46.614048102299876
aa(lp48
(dp49
g3
I22
sg4
F0.9794967893849283
sg5
F0.16281040597663204
sg6
F0.5386358857572038
sg7
F4.186681302279078
sg8
F0.11531345338669169
sg9
F0.02346765293438846
saF39.12293871681413
aa(lp50
(dp51
g3
I97
sg4
F0.8512038228067774
sg5
F0.0011427475884757121
sg6
F0.5246851789800276
sg7
F1.8747627665687023
sg8
F0.11734969225288075
sg9
F0.020465109975122853
saF34.18745210093243
aa(lp52
(dp53
g3
I28
sg4
F0.9089691822912926
sg5
F0.004384231381176662
sg6
F0.46074176854112514
sg7
F4.991163252552154
sg8
F0.18211234367399587
sg9
F0.01564976095855619
saF23.454894828377064
aa(lp54
(dp55
g3
I124
sg4
F0.905870929495312
sg5
F0.46982668849177683
sg6
F0.2127479336628133
sg7
F4.243814800320855
sg8
F0.100501097796824
sg9
F0.010729483226310288
saF18.393186712546367
aa(lp56
(dp57
g3
I23
sg4
F0.9210086837263948
sg5
F0.10611761470124667
sg6
F0.8041931494337211
sg7
F4.6174890264365045
sg8
F0.12900420267560514
sg9
F0.023453590844155547
saF16.477467839416136
aa(lp58
(dp59
g3
I28
sg4
F0.8287847302231581
sg5
F0.004384231381176662
sg6
F0.46074176854112514
sg7
F4.991163252552154
sg8
F0.18211234367399587
sg9
F0.01564976095855619
saF10.752168247188365
aa(lp60
(dp61
g3
I28
sg4
F0.8287847302231581
sg5
F0.004384231381176662
sg6
F0.46074176854112514
sg7
F4.991163252552154
sg8
F0.18211234367399587
sg9
F0.01564976095855619
saF10.752168247188365
aa(lp62
(dp63
g3
I28
sg4
F0.8287847302231581
sg5
F0.004384231381176662
sg6
F0.46074176854112514
sg7
F4.991163252552154
sg8
F0.18211234367399587
sg9
F0.01564976095855619
saF10.752168247188365
aa(lp64
(dp65
g3
I28
sg4
F0.8287847302231581
sg5
F0.004384231381176662
sg6
F0.46074176854112514
sg7
F4.991163252552154
sg8
F0.18211234367399587
sg9
F0.01564976095855619
saF10.752168247188365
aa(lp66
(dp67
g3
I20
sg4
F0.9891536343594272
sg5
F0.1185769477988401
sg6
F0.5191623564531841
sg7
F4.243814800320855
sg8
F0.08008790870064592
sg9
F0.03354713425506145
saF-3.7793761848560052
aa(lp68
(dp69
g3
I20
sg4
F0.9089691822912926
sg5
F0.1185769477988401
sg6
F0.49968882714916446
sg7
F4.441933927150204
sg8
F0.08008790870064592
sg9
F0.04769867186259143
saF-5.416712923817499
aa(lp70
(dp71
g3
I29
sg4
F0.8793597776417179
sg5
F0.10611761470124667
sg6
F0.5386358857572038
sg7
F4.6174890264365045
sg8
F0.11414632629885235
sg9
F0.017093661816879248
saF-13.762145235886464
aa(lp72
(dp73
g3
I24
sg4
F0.9245998610260737
sg5
F0.4598409708364442
sg6
F0.69086790869083
sg7
F4.250670860216142
sg8
F0.08483424984379034
sg9
F0.02346765293438846
saF-14.620527894986708
aa(lp74
(dp75
g3
I25
sg4
F0.8278993847592481
sg5
F0.03293241048559252
sg6
F0.46074176854112514
sg7
F4.974465003390277
sg8
F0.1629872113631769
sg9
F0.01564976095855619
saF-14.93823552495553
aa(lp76
(dp77
g3
I25
sg4
F0.8287847302231581
sg5
F0.03293241048559252
sg6
F0.46074176854112514
sg7
F4.708199465270241
sg8
F0.15421559339180602
sg9
F0.01564976095855619
saF-15.032014490357824
aa(lp78
(dp79
g3
I20
sg4
F0.9794967893849283
sg5
F0.13446401033893934
sg6
F0.5386358857572038
sg7
F4.271493733589819
sg8
F0.11472988984277202
sg9
F0.02346765293438846
saF-18.40170518057039
aa(lp80
(dp81
g3
I112
sg4
F0.8287847302231581
sg5
F0.4598409708364442
sg6
F0.26612804553845215
sg7
F4.7999001856180925
sg8
F0.08008790870064592
sg9
F0.006300291503677169
saF-18.562963189786956
aa(lp82
(dp83
g3
I24
sg4
F0.9891536343594272
sg5
F0.1163549090719076
sg6
F0.7064125761477504
sg7
F4.363373534624986
sg8
F0.11531345338669169
sg9
F0.02176839654431876
saF-18.58548637503884
aa(lp84
(dp85
g3
I97
sg4
F0.5451506272603244
sg5
F0.03075615890750892
sg6
F0.5246851789800276
sg7
F3.276015580078636
sg8
F0.11734969225288075
sg9
F0.020465109975122853
saF-18.680330417802452
aa(lp86
(dp87
g3
I124
sg4
F0.918249019434654
sg5
F0.46982668849177683
sg6
F0.37569190971000854
sg7
F4.278998640645388
sg8
F0.100501097796824
sg9
F0.015062539936920881
saF-34.19581885141065
aa(lp88
(dp89
g3
I112
sg4
F0.8287847302231581
sg5
F0.23789353701038726
sg6
F0.5619683364671768
sg7
F4.982814127971215
sg8
F0.1629872113631769
sg9
F0.01118910488479773
saF-39.72285091172307
aa(lp90
(dp91
g3
I29
sg4
F0.8793597776417179
sg5
F0.33523013209447217
sg6
F0.7034402932923036
sg7
F4.991163252552154
sg8
F0.11297919921101303
sg9
F0.006300291503677169
saF-43.07944163099546
aa(lp92
(dp93
g3
I25
sg4
F0.8493012934813533
sg5
F0.0945127404394208
sg6
F0.4101103375874185
sg7
F4.991163252552154
sg8
F0.07745171545966108
sg9
F0.01564976095855619
saF-44.30339050523446
aa(lp94
(dp95
g3
I20
sg4
F0.8793597776417179
sg5
F0.10611761470124667
sg6
F0.5386358857572038
sg7
F4.243814800320855
sg8
F0.11531345338669169
sg9
F0.019395596647531474
saF-45.45952700316775
aa(lp96
(dp97
g3
I28
sg4
F0.7672956367445872
sg5
F0.004384231381176662
sg6
F0.458585178482942
sg7
F4.991163252552154
sg8
F0.18211234367399587
sg9
F0.13635373319674657
saF-47.01240450586488
aa(lp98
(dp99
g3
I112
sg4
F0.827014039295338
sg5
F0.23789353701038726
sg6
F0.5619683364671768
sg7
F4.974465003390277
sg8
F0.1629872113631769
sg9
F0.006728448811039267
saF-51.39570506549853
aa(lp100
(dp101
g3
I112
sg4
F0.9891536343594272
sg5
F0.36211338459754416
sg6
F0.5386358857572038
sg7
F4.243814800320855
sg8
F0.0977006810436688
sg9
F0.01097502623111668
saF-53.61631256023372
aa(lp102
(dp103
g3
I20
sg4
F0.8793597776417179
sg5
F0.10611761470124667
sg6
F0.5242292078980121
sg7
F4.243814800320855
sg8
F0.11531345338669169
sg9
F0.019395596647531474
saF-54.99411879087279
aa(lp104
(dp105
g3
I29
sg4
F0.8793597776417179
sg5
F0.10611761470124667
sg6
F0.5386358857572038
sg7
F4.243814800320855
sg8
F0.11531345338669169
sg9
F0.01824462923220536
saF-58.376466602599976
aa(lp106
(dp107
g3
I20
sg4
F0.8793597776417179
sg5
F0.06036957022654213
sg6
F0.5386358857572038
sg7
F4.243814800320855
sg8
F0.11531345338669169
sg9
F0.017522678803043833
saF-59.057581390677456
aa(lp108
(dp109
g3
I124
sg4
F1.0
sg5
F0.3820529864305321
sg6
F0.8377168717749399
sg7
F4.278998640645388
sg8
F0.0980756662291804
sg9
F0.017763824956021867
saF-250.64367912783973
aa(lp110
(dp111
g3
I66
sg4
F1.0
sg5
F0.2643857983586441
sg6
F0.5386358857572038
sg7
F4.243814800320855
sg8
F0.08378944181529702
sg9
F0.0036332301103510823
saF-692.5524719179505
aa(lp112
(dp113
g3
I112
sg4
F0.6129909558368891
sg5
F0.36211338459754416
sg6
F0.5386358857572038
sg7
F4.568133491766776
sg8
F0.1028098088730985
sg9
F0.01097502623111668
saF-255.2453634473119
aa(lp114
(dp115
g3
I112
sg4
F0.654028078590676
sg5
F0.0011427475884757121
sg6
F0.3954066122592399
sg7
F2.4245778458722054
sg8
F0.07469478452075706
sg9
F0.01359677939308106
saF-459.25020813443905
aa(lp116
(dp117
g3
I20
sg4
F0.9089691822912926
sg5
F0.11234728125004338
sg6
F0.5386358857572038
sg7
F4.243814800320855
sg8
F0.11531345338669169
sg9
F0.032610675332817626
saF-42.48364095761906
aa(lp118
(dp119
g3
I28
sg4
F0.7817939193372305
sg5
F0.13446401033893934
sg6
F0.5386358857572038
sg7
F4.271493733589819
sg8
F0.11472988984277202
sg9
F0.02261802473935361
saF-194.55946837869192
aa(lp120
(dp121
g3
I28
sg4
F0.8615767813815675
sg5
F0.1832488079893604
sg6
F0.36343490703978865
sg7
F4.991163252552154
sg8
F0.18211234367399587
sg9
F0.006300291503677169
saF-326.13993901742333
aa(lp122
(dp123
g3
I112
sg4
F0.827014039295338
sg5
F0.2511396676845157
sg6
F0.26612804553845215
sg7
F2.9743929251757084
sg8
F0.06987820258692523
sg9
F0.006728448811039267
saF55.916306926623975
aa(lp124
(dp125
g3
I112
sg4
F0.8615767813815675
sg5
F0.2942792843692874
sg6
F0.4172446145890353
sg7
F1.8747627665687023
sg8
F0.08008790870064592
sg9
F0.020465109975122853
saF-260.39676276075227
aa(lp126
(dp127
g3
I20
sg4
F0.9891536343594272
sg5
F0.07575467914221631
sg6
F0.5191623564531841
sg7
F4.476007132795548
sg8
F0.11715175104622597
sg9
F0.02459844760680882
saF262.508453969888
aa(lp128
(dp129
g3
I22
sg4
F0.9794967893849283
sg5
F0.004384231381176662
sg6
F0.5386358857572038
sg7
F4.186681302279078
sg8
F0.14871289853034378
sg9
F0.019558706946472326
saF-228.77332754542067
aa(lp130
(dp131
g3
I74
sg4
F0.9199309817902933
sg5
F0.46982668849177683
sg6
F0.551729085800213
sg7
F4.278998640645388
sg8
F0.100501097796824
sg9
F0.01841546824061982
saF-564.1952088414973
aa(lp132
(dp133
g3
I24
sg4
F0.9342567060005725
sg5
F0.055250923041211666
sg6
F0.5241193236551391
sg7
F4.34287436373553
sg8
F0.14871289853034378
sg9
F0.014248852517080256
saF-94.0303219912596
aa(lp134
(dp135
g3
I58
sg4
F0.9201787285831022
sg5
F0.1185769477988401
sg6
F0.5191623564531841
sg7
F4.243814800320855
sg8
F0.1653562963061609
sg9
F0.020465109975122853
saF-751.1074543547059
aa(lp136
(dp137
g3
I20
sg4
F0.8798356971021233
sg5
F0.17732442729791476
sg6
F0.5386358857572038
sg7
F4.243814800320855
sg8
F0.0977006810436688
sg9
F0.0219593504096392
saF-329.275526686357
aa(lp138
(dp139
g3
I20
sg4
F0.9210086837263948
sg5
F0.1185769477988401
sg6
F0.8041931494337211
sg7
F4.6174890264365045
sg8
F0.08008790870064592
sg9
F0.023453590844155547
saF-410.98436467324893
aa(lp140
(dp141
g3
I101
sg4
F0.9143990414331409
sg5
F0.16281040597663204
sg6
F0.5386358857572038
sg7
F4.588922277415616
sg8
F0.11531345338669169
sg9
F0.01564976095855619
saF-608.9138754418856
aa(lp142
(dp143
g3
I28
sg4
F0.9116807737014359
sg5
F0.36211338459754416
sg6
F0.26612804553845215
sg7
F2.9743929251757084
sg8
F0.1339745794558366
sg9
F0.006300291503677169
saF-625.043192436221
aa(lp144
(dp145
g3
I24
sg4
F0.9245998610260737
sg5
F0.23411549964939543
sg6
F0.5386358857572038
sg7
F4.243814800320855
sg8
F0.0977006810436688
sg9
F0.01722133958275257
saF-13.886895496932766
aa(lp146
(dp147
g3
I124
sg4
F0.654028078590676
sg5
F0.36211338459754416
sg6
F0.23943798960063273
sg7
F2.035469501911519
sg8
F0.100501097796824
sg9
F0.008728966018674778
saF-437.78806348229114
aa(lp148
(dp149
g3
I72
sg4
F0.9173715334471989
sg5
F0.46982668849177683
sg6
F0.5386358857572038
sg7
F4.278998640645388
sg8
F0.09910088942024639
sg9
F0.015062539936920881
saF-680.3986404749405
aa(lp150
(dp151
g3
I37
sg4
F0.952048325205501
sg5
F0.4598409708364442
sg6
F0.69086790869083
sg7
F4.21867608124761
sg8
F0.11531345338669169
sg9
F0.02346765293438846
saF-660.576854334666
aa(lp152
(dp153
g3
I28
sg4
F0.8278993847592481
sg5
F0.004384231381176662
sg6
F0.46074176854112514
sg7
F4.982814127971215
sg8
F0.17254977751858638
sg9
F0.3516770629309818
saF-174.0274307838722
aa(lp154
(dp155
g3
I76
sg4
F0.918249019434654
sg5
F0.46982668849177683
sg6
F0.41821683912556684
sg7
F4.991163252552154
sg8
F0.18211234367399587
sg9
F0.01564976095855619
saF-655.3099076118708
aa(lp156
(dp157
g3
I20
sg4
F0.9891536343594272
sg5
F0.1185769477988401
sg6
F0.49968882714916446
sg7
F4.34287436373553
sg8
F0.08889429487215736
sg9
F0.029336849046854054
saF-129.09240640539008
aa(lp158
(dp159
g3
I20
sg4
F0.8793597776417179
sg5
F0.11234728125004338
sg6
F0.5386358857572038
sg7
F4.243814800320855
sg8
F0.11531345338669169
sg9
F0.019395596647531474
saF-138.0741780099172
aa(lp160
(dp161
g3
I23
sg4
F0.8493012934813533
sg5
F0.10611761470124667
sg6
F0.6071517435105698
sg7
F4.6174890264365045
sg8
F0.07745171545966108
sg9
F0.01955167590135587
saF-98.08353558600459
aa(lp162
(dp163
g3
I86
sg4
F0.8798356971021233
sg5
F0.2942792843692874
sg6
F0.514012328575826
sg7
F4.991163252552154
sg8
F0.13410000609006162
sg9
F0.13635373319674657
saF-854.081995275567
aa(lp164
(dp165
g3
I24
sg4
F0.5828867525344847
sg5
F0.36211338459754416
sg6
F0.26612804553845215
sg7
F3.6688832299003473
sg8
F0.11531345338669169
sg9
F0.006300291503677169
saF-562.0677744070081
aa(lp166
(dp167
g3
I24
sg4
F0.9794967893849283
sg5
F0.10611761470124667
sg6
F0.5386358857572038
sg7
F4.271493733589819
sg8
F0.11502167161473185
sg9
F0.01824462923220536
saF-84.3887710649251
aa(lp168
(dp169
g3
I112
sg4
F0.5451506272603244
sg5
F0.36211338459754416
sg6
F0.5246851789800276
sg7
F2.9743929251757084
sg8
F0.11246896174645327
sg9
F0.01338270073940001
saF-403.54084588873206
aa(lp170
(dp171
g3
I26
sg4
F0.8278993847592481
sg5
F0.01865832093338459
sg6
F0.46074176854112514
sg7
F4.974465003390277
sg8
F0.18211234367399587
sg9
F0.01564976095855619
saF29.060647592669056
aa(lp172
(dp173
g3
I23
sg4
F0.9245998610260737
sg5
F0.16281040597663204
sg6
F0.5386358857572038
sg7
F4.186681302279078
sg8
F0.10007385161524102
sg9
F0.08088301779201089
saF-464.6322657526257
aa(lp174
(dp175
g3
I24
sg4
F0.9245998610260737
sg5
F0.23211260110881043
sg6
F0.5451824857787084
sg7
F4.6209170563841475
sg8
F0.1481293349864241
sg9
F0.02346765293438846
saF-130.9334520087374
aa(lp176
(dp177
g3
I66
sg4
F0.9089691822912926
sg5
F0.4598409708364442
sg6
F0.26612804553845215
sg7
F4.7999001856180925
sg8
F0.11531345338669169
sg9
F0.027887032130081327
saF-625.1245553350432
aa(lp178
(dp179
g3
I124
sg4
F0.905870929495312
sg5
F0.46982668849177683
sg6
F0.49968882714916446
sg7
F4.34287436373553
sg8
F0.08008790870064592
sg9
F0.029214077544450857
saF-555.8256413640561
aa(lp180
(dp181
g3
I22
sg4
F0.9891536343594272
sg5
F0.10611761470124667
sg6
F0.5386358857572038
sg7
F4.250670860216142
sg8
F0.11531345338669169
sg9
F0.02346765293438846
saF243.3398637818832
aa(lp182
(dp183
g3
I20
sg4
F0.9116807737014359
sg5
F0.36211338459754416
sg6
F0.26612804553845215
sg7
F3.609103862748282
sg8
F0.11531345338669169
sg9
F0.019395596647531474
saF-775.9405192739633
aa(lp184
(dp185
g3
I25
sg4
F0.8390430118522557
sg5
F0.06372257546250666
sg6
F0.4101103375874185
sg7
F4.708199465270241
sg8
F0.15421559339180602
sg9
F0.01564976095855619
saF195.81667621651786
aa(lp186
(dp187
g3
I124
sg4
F0.7255107783778182
sg5
F0.46982668849177683
sg6
F0.2127479336628133
sg7
F3.7599151901997456
sg8
F0.11734969225288075
sg9
F0.01559729660071657
saF-337.2225372910892
aa(lp188
(dp189
g3
I118
sg4
F0.786138549012665
sg5
F0.46982668849177683
sg6
F0.37569190971000854
sg7
F3.626695782910548
sg8
F0.100501097796824
sg9
F0.010895494373980075
saF-230.54841696386575
aa(lp190
(dp191
g3
I28
sg4
F0.7672956367445872
sg5
F0.4598409708364442
sg6
F0.458585178482942
sg7
F4.895531719085123
sg8
F0.08008790870064592
sg9
F0.13635373319674657
saF-878.4014999100815
aa(lp192
(dp193
g3
I97
sg4
F0.9794967893849283
sg5
F0.08197657678255388
sg6
F0.5246851789800276
sg7
F1.8747627665687023
sg8
F0.11734969225288075
sg9
F0.02346765293438846
saF-454.16748323458467
aa(lp194
(dp195
g3
I124
sg4
F0.8287847302231581
sg5
F0.23710545993647675
sg6
F0.2127479336628133
sg7
F4.243814800320855
sg8
F0.100501097796824
sg9
F0.01564976095855619
saF-289.23253492930337
aa(lp196
(dp197
g3
I29
sg4
F0.8704682795116427
sg5
F0.10611761470124667
sg6
F0.40238196564782797
sg7
F4.243814800320855
sg8
F0.11531345338669169
sg9
F0.006300291503677169
saF-399.2573538242897
aa(lp198
(dp199
g3
I28
sg4
F0.9089691822912926
sg5
F0.055250923041211666
sg6
F0.49968882714916446
sg7
F4.250670860216142
sg8
F0.1481293349864241
sg9
F0.019558706946472326
saF345.0790763212308
aa(lp200
(dp201
g3
I20
sg4
F0.9342567060005725
sg5
F0.10611761470124667
sg6
F0.531432546827608
sg7
F4.243814800320855
sg8
F0.11531345338669169
sg9
F0.02176839654431876
saF36.91190660522739
aa(lp202
(dp203
g3
I124
sg4
F0.918249019434654
sg5
F0.10611761470124667
sg6
F0.37569190971000854
sg7
F4.278998640645388
sg8
F0.100501097796824
sg9
F0.01824462923220536
saF-581.356791457152
aa(lp204
(dp205
g3
I57
sg4
F0.9173715334471989
sg5
F0.06036957022654213
sg6
F0.5805800583548404
sg7
F4.405974146043816
sg8
F0.1028098088730985
sg9
F0.019395596647531474
saF-358.8550794813175
aa(lp206
(dp207
g3
I72
sg4
F0.8793597776417179
sg5
F0.28797215159651174
sg6
F0.45716389773360616
sg7
F4.278998640645388
sg8
F0.100501097796824
sg9
F0.015062539936920881
saF-627.9335172134349
aa.