(lp0
(lp1
(dp2
S'history_in_weeks'
p3
I86
sS'end_weight'
p4
F0.8798356971021233
sS'close_match_threshold'
p5
F0.2942792843692874
sS'start_weight'
p6
F0.5683611836396184
sS'over_power_threshold'
p7
F1.3018010513269362
sS'over_power_extra'
p8
F0.09565023466153683
sS'close_match_trim'
p9
F0.0219593504096392
saF1054.1393766982274
aa(lp10
(dp11
g3
I86
sg4
F0.8798356971021233
sg5
F0.2942792843692874
sg6
F0.5683611836396184
sg7
F1.3018010513269362
sg8
F0.09565023466153683
sg9
F0.0219593504096392
saF1054.1393766982274
aa(lp12
(dp13
g3
I28
sg4
F0.9891536343594272
sg5
F0.10611761470124667
sg6
F0.5386358857572038
sg7
F4.460541596954712
sg8
F0.14871289853034378
sg9
F0.02176839654431876
saF202.0048512979106
aa(lp14
(dp15
g3
I97
sg4
F1.0
sg5
F0.2942792843692874
sg6
F0.5683611836396184
sg7
F1.8747627665687023
sg8
F0.09565023466153683
sg9
F0.020465109975122853
saF201.30304495534347
aa(lp16
(dp17
g3
I112
sg4
F1.0
sg5
F0.2643857983586441
sg6
F0.26612804553845215
sg7
F2.9743929251757084
sg8
F0.06987820258692523
sg9
F0.0036332301103510823
saF191.6711671048099
aa(lp18
(dp19
g3
I20
sg4
F0.9891536343594272
sg5
F0.10611761470124667
sg6
F0.5386358857572038
sg7
F4.243814800320855
sg8
F0.11531345338669169
sg9
F0.027887032130081327
saF151.79104825928903
aa(lp20
(dp21
g3
I20
sg4
F0.9891536343594272
sg5
F0.10611761470124667
sg6
F0.5386358857572038
sg7
F4.243814800320855
sg8
F0.11531345338669169
sg9
F0.027887032130081327
saF151.79104825928903
aa(lp22
(dp23
g3
I20
sg4
F0.9891536343594272
sg5
F0.1185769477988401
sg6
F0.5386358857572038
sg7
F4.243814800320855
sg8
F0.08008790870064592
sg9
F0.019395596647531474
saF126.57940800039296
aa(lp24
(dp25
g3
I112
sg4
F0.654028078590676
sg5
F0.36211338459754416
sg6
F0.26612804553845215
sg7
F2.9743929251757084
sg8
F0.08008790870064592
sg9
F0.006728448811039267
saF113.54937040494042
aa(lp26
(dp27
g3
I20
sg4
F0.9006283351012132
sg5
F0.004384231381176662
sg6
F0.5241193236551391
sg7
F4.441933927150204
sg8
F0.18211234367399587
sg9
F0.01097502623111668
saF81.11828785708758
aa(lp28
(dp29
g3
I24
sg4
F0.9216129441459326
sg5
F0.23211260110881043
sg6
F0.551729085800213
sg7
F4.991163252552154
sg8
F0.18211234367399587
sg9
F0.02176839654431876
saF79.61501102880175
aa(lp30
(dp31
g3
I112
sg4
F0.9116807737014359
sg5
F0.36211338459754416
sg6
F0.26612804553845215
sg7
F2.9743929251757084
sg8
F0.12631884310961616
sg9
F0.006300291503677169
saF57.27928906298257
aa(lp32
(dp33
g3
I112
sg4
F0.8615767813815675
sg5
F0.36211338459754416
sg6
F0.26612804553845215
sg7
F2.9743929251757084
sg8
F0.08008790870064592
sg9
F0.006300291503677169
saF52.053344733879385
aa(lp34
(dp35
g3
I28
sg4
F0.8408440009280831
sg5
F0.004384231381176662
sg6
F0.45966347351203357
sg7
F4.991163252552154
sg8
F0.17254977751858638
sg9
F0.13635373319674657
saF46.614048102299876
aa(lp36
(dp37
g3
I22
sg4
F0.9794967893849283
sg5
F0.16281040597663204
sg6
F0.5386358857572038
sg7
F4.186681302279078
sg8
F0.11531345338669169
sg9
F0.02346765293438846
saF39.12293871681413
aa(lp38
(dp39
g3
I97
sg4
F0.8512038228067774
sg5
F0.0011427475884757121
sg6
F0.5246851789800276
sg7
F1.8747627665687023
sg8
F0.11734969225288075
sg9
F0.020465109975122853
saF34.18745210093243
aa(lp40
(dp41
g3
I124
sg4
F0.905870929495312
sg5
F0.46982668849177683
sg6
F0.2127479336628133
sg7
F4.243814800320855
sg8
F0.100501097796824
sg9
F0.010729483226310288
saF18.393186712546367
aa(lp42
(dp43
g3
I23
sg4
F0.9210086837263948
sg5
F0.10611761470124667
sg6
F0.8041931494337211
sg7
F4.6174890264365045
sg8
F0.12900420267560514
sg9
F0.023453590844155547
saF16.477467839416136
aa(lp44
(dp45
g3
I28
sg4
F0.8287847302231581
sg5
F0.004384231381176662
sg6
F0.46074176854112514
sg7
F4.991163252552154
sg8
F0.18211234367399587
sg9
F0.01564976095855619
saF10.752168247188365
aa(lp46
(dp47
g3
I28
sg4
F0.8287847302231581
sg5
F0.004384231381176662
sg6
F0.46074176854112514
sg7
F4.991163252552154
sg8
F0.18211234367399587
sg9
F0.01564976095855619
saF10.752168247188365
aa(lp48
(dp49
g3
I20
sg4
F0.9891536343594272
sg5
F0.1185769477988401
sg6
F0.5191623564531841
sg7
F4.243814800320855
sg8
F0.08008790870064592
sg9
F0.03354713425506145
saF-3.7793761848560052
aa(lp50
(dp51
g3
I20
sg4
F0.9089691822912926
sg5
F0.1185769477988401
sg6
F0.49968882714916446
sg7
F4.441933927150204
sg8
F0.08008790870064592
sg9
F0.04769867186259143
saF-5.416712923817499
aa(lp52
(dp53
g3
I29
sg4
F0.8793597776417179
sg5
F0.10611761470124667
sg6
F0.5386358857572038
sg7
F4.6174890264365045
sg8
F0.11414632629885235
sg9
F0.017093661816879248
saF-13.762145235886464
aa(lp54
(dp55
g3
I24
sg4
F0.9245998610260737
sg5
F0.4598409708364442
sg6
F0.69086790869083
sg7
F4.250670860216142
sg8
F0.08483424984379034
sg9
F0.02346765293438846
saF-14.620527894986708
aa(lp56
(dp57
g3
I25
sg4
F0.8287847302231581
sg5
F0.03293241048559252
sg6
F0.46074176854112514
sg7
F4.708199465270241
sg8
F0.15421559339180602
sg9
F0.01564976095855619
saF-15.032014490357824
aa(lp58
(dp59
g3
I112
sg4
F0.8287847302231581
sg5
F0.4598409708364442
sg6
F0.26612804553845215
sg7
F4.7999001856180925
sg8
F0.08008790870064592
sg9
F0.006300291503677169
saF-18.562963189786956
aa(lp60
(dp61
g3
I24
sg4
F0.9891536343594272
sg5
F0.1163549090719076
sg6
F0.7064125761477504
sg7
F4.363373534624986
sg8
F0.11531345338669169
sg9
F0.02176839654431876
saF-18.58548637503884
aa(lp62
(dp63
g3
I97
sg4
F0.5451506272603244
sg5
F0.03075615890750892
sg6
F0.5246851789800276
sg7
F3.276015580078636
sg8
F0.11734969225288075
sg9
F0.020465109975122853
saF-18.680330417802452
aa(lp64
(dp65
g3
I124
sg4
F0.918249019434654
sg5
F0.46982668849177683
sg6
F0.37569190971000854
sg7
F4.278998640645388
sg8
F0.100501097796824
sg9
F0.015062539936920881
saF-34.19581885141065
aa(lp66
(dp67
g3
I29
sg4
F0.8793597776417179
sg5
F0.33523013209447217
sg6
F0.7034402932923036
sg7
F4.991163252552154
sg8
F0.11297919921101303
sg9
F0.006300291503677169
saF-43.07944163099546
aa(lp68
(dp69
g3
I25
sg4
F0.8493012934813533
sg5
F0.0945127404394208
sg6
F0.4101103375874185
sg7
F4.991163252552154
sg8
F0.07745171545966108
sg9
F0.01564976095855619
saF-44.30339050523446
aa(lp70
(dp71
g3
I20
sg4
F0.8793597776417179
sg5
F0.10611761470124667
sg6
F0.5386358857572038
sg7
F4.243814800320855
sg8
F0.11531345338669169
sg9
F0.019395596647531474
saF-45.45952700316775
aa(lp72
(dp73
g3
I28
sg4
F0.7672956367445872
sg5
F0.004384231381176662
sg6
F0.458585178482942
sg7
F4.991163252552154
sg8
F0.18211234367399587
sg9
F0.13635373319674657
saF-47.01240450586488
aa(lp74
(dp75
g3
I112
sg4
F0.827014039295338
sg5
F0.23789353701038726
sg6
F0.5619683364671768
sg7
F4.974465003390277
sg8
F0.1629872113631769
sg9
F0.006728448811039267
saF-51.39570506549853
aa(lp76
(dp77
g3
I112
sg4
F0.9891536343594272
sg5
F0.36211338459754416
sg6
F0.5386358857572038
sg7
F4.243814800320855
sg8
F0.0977006810436688
sg9
F0.01097502623111668
saF-53.61631256023372
aa(lp78
(dp79
g3
I29
sg4
F0.8793597776417179
sg5
F0.10611761470124667
sg6
F0.5386358857572038
sg7
F4.243814800320855
sg8
F0.11531345338669169
sg9
F0.01824462923220536
saF-58.376466602599976
aa(lp80
(dp81
g3
I20
sg4
F0.8793597776417179
sg5
F0.06036957022654213
sg6
F0.5386358857572038
sg7
F4.243814800320855
sg8
F0.11531345338669169
sg9
F0.017522678803043833
saF-59.057581390677456
aa(lp82
(dp83
g3
I124
sg4
F0.930627109373996
sg5
F0.35096964480029363
sg6
F0.5386358857572038
sg7
F4.3141824809699205
sg8
F0.100501097796824
sg9
F0.015062539936920881
saF-59.70398664318873
aa(lp84
(dp85
g3
I23
sg4
F0.844366845196876
sg5
F0.10611761470124667
sg6
F0.8041931494337211
sg7
F4.243814800320855
sg8
F0.11531345338669169
sg9
F0.023453590844155547
saF-70.26576511613348
aa(lp86
(dp87
g3
I20
sg4
F0.9553832892526799
sg5
F0.23211260110881043
sg6
F0.5386358857572038
sg7
F4.384550161618987
sg8
F0.08008790870064592
sg9
F0.019395596647531474
saF-73.44681934682023
aa(lp88
(dp89
g3
I112
sg4
F0.8793597776417179
sg5
F0.14824398420826126
sg6
F0.7064125761477504
sg7
F4.33636679791546
sg8
F0.06895107441710631
sg9
F0.014883972219032815
saF-74.83473047280984
aa(lp90
(dp91
g3
I112
sg4
F0.8615767813815675
sg5
F0.36211338459754416
sg6
F0.5241193236551391
sg7
F2.9743929251757084
sg8
F0.08008790870064592
sg9
F0.01097502623111668
saF-84.43964017365874
aa(lp92
(dp93
g3
I112
sg4
F0.8793597776417179
sg5
F0.40533754273973244
sg6
F0.47976209466196823
sg7
F4.466002460789552
sg8
F0.08008790870064592
sg9
F0.008602226334329393
saF-85.77839731945267
aa(lp94
(dp95
g3
I23
sg4
F1.0
sg5
F0.24296645687589438
sg6
F0.8578086273959015
sg7
F4.281639880702032
sg8
F0.1438620790523579
sg9
F0.023453590844155547
saF-88.09732901783013
aa(lp96
(dp97
g3
I20
sg4
F0.8793597776417179
sg5
F0.10611761470124667
sg6
F0.5386358857572038
sg7
F4.43065191337868
sg8
F0.11472988984277202
sg9
F0.01824462923220536
saF-92.4462689437944
aa(lp98
(dp99
g3
I22
sg4
F0.9116807737014359
sg5
F0.06148058959000838
sg6
F0.46074176854112514
sg7
F4.708199465270241
sg8
F0.12631884310961616
sg9
F0.04769867186259143
saF-98.00566317103448
aa(lp100
(dp101
g3
I112
sg4
F0.8793597776417179
sg5
F0.36211338459754416
sg6
F0.591601193977136
sg7
F4.991163252552154
sg8
F0.11297919921101303
sg9
F0.008602226334329393
saF-99.74514975693842
aa(lp102
(dp103
g3
I94
sg4
F0.8287847302231581
sg5
F0.004384231381176662
sg6
F0.7064125761477504
sg7
F4.568133491766776
sg8
F0.12553170904555108
sg9
F0.01564976095855619
saF-101.16279271312715
aa(lp104
(dp105
g3
I20
sg4
F0.8793597776417179
sg5
F0.10611761470124667
sg6
F0.47976209466196823
sg7
F4.247242830268499
sg8
F0.11531345338669169
sg9
F0.010904161164981618
saF-109.13994469354395
aa(lp106
(dp107
g3
I20
sg4
F0.8793597776417179
sg5
F0.10611761470124667
sg6
F0.5098225300388204
sg7
F4.243814800320855
sg8
F0.11531345338669169
sg9
F0.017522678803043833
saF-111.33920605736898
aa(lp108
(dp109
g3
I28
sg4
F0.9089691822912926
sg5
F0.004384231381176662
sg6
F0.46074176854112514
sg7
F4.991163252552154
sg8
F0.18211234367399587
sg9
F0.01564976095855619
saF23.454894828377064
aa(lp110
(dp111
g3
I112
sg4
F0.654028078590676
sg5
F0.10611761470124667
sg6
F0.26612804553845215
sg7
F3.7025224192771944
sg8
F0.11472988984277202
sg9
F0.01824462923220536
saF-288.0730071011004
aa(lp112
(dp113
g3
I20
sg4
F0.9891536343594272
sg5
F0.17454203578857053
sg6
F0.8578086273959015
sg7
F4.281639880702032
sg8
F0.11531345338669169
sg9
F0.027887032130081327
saF-527.3262396352613
aa(lp114
(dp115
g3
I112
sg4
F0.9307883906907837
sg5
F0.36211338459754416
sg6
F0.5241193236551391
sg7
F2.9743929251757084
sg8
F0.08008790870064592
sg9
F0.007304128170733881
saF-462.405661343611
aa(lp116
(dp117
g3
I20
sg4
F0.8793597776417179
sg5
F0.10611761470124667
sg6
F0.5242292078980121
sg7
F4.243814800320855
sg8
F0.11531345338669169
sg9
F0.019395596647531474
saF-54.99411879087279
aa(lp118
(dp119
g3
I62
sg4
F0.9204220004640415
sg5
F0.004384231381176662
sg6
F0.514012328575826
sg7
F1.8747627665687023
sg8
F0.13410000609006162
sg9
F0.13635373319674657
saF-652.460792334294
aa(lp120
(dp121
g3
I23
sg4
F0.9116807737014359
sg5
F0.06148058959000838
sg6
F0.43542605306427185
sg7
F4.849681358911197
sg8
F0.07745171545966108
sg9
F0.01564976095855619
saF-185.77317602205767
aa(lp122
(dp123
g3
I29
sg4
F0.8793597776417179
sg5
F0.33523013209447217
sg6
F0.2127479336628133
sg7
F4.991163252552154
sg8
F0.11297919921101303
sg9
F0.008514887364993728
saF-403.88255987835873
aa(lp124
(dp125
g3
I25
sg4
F0.8278993847592481
sg5
F0.03293241048559252
sg6
F0.46074176854112514
sg7
F4.974465003390277
sg8
F0.1629872113631769
sg9
F0.01564976095855619
saF-14.93823552495553
aa(lp126
(dp127
g3
I66
sg4
F0.8615767813815675
sg5
F0.1832488079893604
sg6
F0.5241193236551391
sg7
F4.441933927150204
sg8
F0.18211234367399587
sg9
F0.01097502623111668
saF-790.0518485881211
aa(lp128
(dp129
g3
I70
sg4
F1.0
sg5
F0.10611761470124667
sg6
F0.9593397584140556
sg7
F2.9743929251757084
sg8
F0.09711711749974913
sg9
F0.01097502623111668
saF-696.9753701630498
aa(lp130
(dp131
g3
I112
sg4
F0.8615767813815675
sg5
F0.36211338459754416
sg6
F0.591601193977136
sg7
F3.982778088863931
sg8
F0.09653355395582947
sg9
F0.047474749397044616
saF-682.185478558663
aa(lp132
(dp133
g3
I112
sg4
F0.8287847302231581
sg5
F0.23789353701038726
sg6
F0.5619683364671768
sg7
F4.982814127971215
sg8
F0.1629872113631769
sg9
F0.01118910488479773
saF-39.72285091172307
aa(lp134
(dp135
g3
I45
sg4
F0.9116807737014359
sg5
F0.4598409708364442
sg6
F0.26612804553845215
sg7
F3.8871465553969005
sg8
F0.12631884310961616
sg9
F0.006300291503677169
saF-817.4511621318712
aa(lp136
(dp137
g3
I20
sg4
F0.8793597776417179
sg5
F0.10611761470124667
sg6
F0.5386358857572038
sg7
F4.432365928352501
sg8
F0.11472988984277202
sg9
F0.010904161164981618
saF-141.47752275859034
aa(lp138
(dp139
g3
I94
sg4
F0.8287847302231581
sg5
F0.004384231381176662
sg6
F0.6225242309524771
sg7
F4.568133491766776
sg8
F0.1028098088730985
sg9
F0.019395596647531474
saF50.765534106626774
aa(lp140
(dp141
g3
I68
sg4
F0.8793597776417179
sg5
F0.30404247752235275
sg6
F0.7064125761477504
sg7
F4.2935188290658015
sg8
F0.08483424984379034
sg9
F0.019175812576710638
saF-663.8323461957539
aa(lp142
(dp143
g3
I24
sg4
F0.9245998610260737
sg5
F0.10611761470124667
sg6
F0.5386358857572038
sg7
F4.250670860216142
sg8
F0.11414632629885235
sg9
F0.02346765293438846
saF140.58046813004466
aa(lp144
(dp145
g3
I110
sg4
F0.905870929495312
sg5
F0.46982668849177683
sg6
F0.2127479336628133
sg7
F1.8747627665687023
sg8
F0.10892539502485238
sg9
F0.020465109975122853
saF-472.6202990298003
aa(lp146
(dp147
g3
I29
sg4
F0.9001842306840564
sg5
F0.10611761470124667
sg6
F0.8041931494337211
sg7
F4.43065191337868
sg8
F0.12215882803114841
sg9
F0.020849110038180456
saF-207.64795323582246
aa(lp148
(dp149
g3
I112
sg4
F1.0
sg5
F0.36211338459754416
sg6
F0.8744963065328302
sg7
F2.9743929251757084
sg8
F0.08008790870064592
sg9
F0.006514370157358218
saF-334.55255388661215
aa(lp150
(dp151
g3
I28
sg4
F0.8287847302231581
sg5
F0.004384231381176662
sg6
F0.45966347351203357
sg7
F4.568133491766776
sg8
F0.17254977751858638
sg9
F0.07600174707765138
saF-125.08465743561783
aa(lp152
(dp153
g3
I20
sg4
F0.9891536343594272
sg5
F0.10611761470124667
sg6
F0.6714145175954624
sg7
F4.6174890264365045
sg8
F0.12900420267560514
sg9
F0.023453590844155547
saF-201.27670214592683
aa(lp154
(dp155
g3
I28
sg4
F0.8287847302231581
sg5
F0.004384231381176662
sg6
F0.46074176854112514
sg7
F4.991163252552154
sg8
F0.18211234367399587
sg9
F0.01564976095855619
saF10.752168247188365
aa(lp156
(dp157
g3
I20
sg4
F0.9173715334471989
sg5
F0.06036957022654213
sg6
F0.5386358857572038
sg7
F4.243814800320855
sg8
F0.0977006810436688
sg9
F0.019395596647531474
saF169.01343230383964
aa(lp158
(dp159
g3
I97
sg4
F0.5451506272603244
sg5
F0.09678328244207049
sg6
F0.5246851789800276
sg7
F3.276015580078636
sg8
F0.11633157281978622
sg9
F0.020465109975122853
saF-509.99421538958785
aa(lp160
(dp161
g3
I94
sg4
F0.8287847302231581
sg5
F0.004384231381176662
sg6
F0.7064125761477504
sg7
F4.568133491766776
sg8
F0.12553170904555108
sg9
F0.01564976095855619
saF-101.16279271312715
aa(lp162
(dp163
g3
I112
sg4
F0.853186908468528
sg5
F0.32161553987505986
sg6
F0.5208652155645725
sg7
F4.720233732089914
sg8
F0.1215375600319114
sg9
F0.008602226334329393
saF-117.32341593897581
aa(lp164
(dp165
g3
I28
sg4
F0.9089691822912926
sg5
F0.03293241048559252
sg6
F0.5386358857572038
sg7
F4.460541596954712
sg8
F0.14871289853034378
sg9
F0.018709078751437475
saF97.61876686955748
aa(lp166
(dp167
g3
I25
sg4
F0.8348143655756206
sg5
F0.03293241048559252
sg6
F0.45966347351203357
sg7
F4.708199465270241
sg8
F0.15421559339180602
sg9
F0.13635373319674657
saF-301.2162663229683
aa(lp168
(dp169
g3
I68
sg4
F0.8287847302231581
sg5
F0.03293241048559252
sg6
F0.36343490703978865
sg7
F3.8412961952229745
sg8
F0.11715175104622597
sg9
F0.01564976095855619
saF-710.1266741424586
aa(lp170
(dp171
g3
I118
sg4
F0.8793597776417179
sg5
F0.10056794486499637
sg6
F0.7064125761477504
sg7
F4.278998640645388
sg8
F0.06895107441710631
sg9
F0.015062539936920881
saF-237.30666287504948
aa(lp172
(dp173
g3
I28
sg4
F0.8233277071931526
sg5
F0.055250923041211666
sg6
F0.4986105321200729
sg7
F4.991163252552154
sg8
F0.18211234367399587
sg9
F0.0767236975068129
saF-382.7580483453456
aa(lp174
(dp175
g3
I124
sg4
F0.872631529364996
sg5
F0.23789353701038726
sg6
F0.4688301230885927
sg7
F4.626731822017833
sg8
F0.13174415458000044
sg9
F0.006728448811039267
saF-475.3230672865319
aa(lp176
(dp177
g3
I61
sg4
F0.7672956367445872
sg5
F0.004384231381176662
sg6
F0.7064125761477504
sg7
F4.568133491766776
sg8
F0.12553170904555108
sg9
F0.059630255630063904
saF-711.3519846786924
aa(lp178
(dp179
g3
I28
sg4
F0.9342567060005725
sg5
F0.10611761470124667
sg6
F0.5386358857572038
sg7
F4.243814800320855
sg8
F0.11531345338669169
sg9
F0.017522678803043833
saF141.99807950027184
aa(lp180
(dp181
g3
I20
sg4
F0.8899940563714656
sg5
F0.055250923041211666
sg6
F0.5241193236551391
sg7
F4.441933927150204
sg8
F0.14871289853034378
sg9
F0.01097502623111668
saF-126.64271576807505
aa(lp182
(dp183
g3
I28
sg4
F0.9216129441459326
sg5
F0.11824841624499355
sg6
F0.506235427170669
sg7
F4.991163252552154
sg8
F0.18211234367399587
sg9
F0.02176839654431876
saF109.0713430677472
aa(lp184
(dp185
g3
I23
sg4
F0.844366845196876
sg5
F0.4598409708364442
sg6
F0.8041931494337211
sg7
F4.243814800320855
sg8
F0.11531345338669169
sg9
F0.023453590844155547
saF-165.44189828289404
aa(lp186
(dp187
g3
I20
sg4
F0.9794967893849283
sg5
F0.13446401033893934
sg6
F0.5386358857572038
sg7
F4.271493733589819
sg8
F0.11472988984277202
sg9
F0.02346765293438846
saF-18.40170518057039
aa(lp188
(dp189
g3
I20
sg4
F0.939679888820859
sg5
F0.18525170652994538
sg6
F0.5098225300388204
sg7
F2.9743929251757084
sg8
F0.09259582798680846
sg9
F0.017522678803043833
saF-518.6039291691594
aa(lp190
(dp191
g3
I103
sg4
F0.8287847302231581
sg5
F0.36211338459754416
sg6
F0.4862703108431013
sg7
F3.7712632084712423
sg8
F0.12592527607758364
sg9
F0.01564976095855619
saF-621.5455406033607
aa(lp192
(dp193
g3
I28
sg4
F0.8144362090630773
sg5
F0.36211338459754416
sg6
F0.26612804553845215
sg7
F2.9743929251757084
sg8
F0.18211234367399587
sg9
F0.006300291503677169
saF-605.7773075824255
aa(lp194
(dp195
g3
I97
sg4
F0.9116807737014359
sg5
F0.36211338459754416
sg6
F0.26612804553845215
sg7
F2.4245778458722054
sg8
F0.11734969225288075
sg9
F0.01338270073940001
saF-365.01660605416134
aa(lp196
(dp197
g3
I72
sg4
F0.905870929495312
sg5
F0.004384231381176662
sg6
F0.5241193236551391
sg7
F2.791377720850354
sg8
F0.18211234367399587
sg9
F0.01097502623111668
saF-516.1049281190049
aa(lp198
(dp199
g3
I28
sg4
F0.8287847302231581
sg5
F0.14824398420826126
sg6
F0.7064125761477504
sg7
F4.663765025233807
sg8
F0.09593672433101455
sg9
F0.014883972219032815
saF-441.9815488699894
aa(lp200
(dp201
g3
I112
sg4
F0.7672956367445872
sg5
F0.36211338459754416
sg6
F0.458585178482942
sg7
F3.982778088863931
sg8
F0.12631884310961616
sg9
F0.07132701235021187
saF-844.7386511290476
aa(lp202
(dp203
g3
I69
sg4
F0.8512038228067774
sg5
F0.10611761470124667
sg6
F0.47976209466196823
sg7
F1.8747627665687023
sg8
F0.11734969225288075
sg9
F0.015684635570052237
saF-703.062163183735
aa(lp204
(dp205
g3
I26
sg4
F0.9001842306840564
sg5
F0.10611761470124667
sg6
F0.7034402932923036
sg7
F4.804326139494329
sg8
F0.12099170094330908
sg9
F0.014876941173916358
saF-180.82433627471778
aa(lp206
(dp207
g3
I28
sg4
F0.8287847302231581
sg5
F0.004384231381176662
sg6
F0.46074176854112514
sg7
F4.991163252552154
sg8
F0.18211234367399587
sg9
F0.01564976095855619
saF10.752168247188365
aa.