(lp0
(lp1
(dp2
S'history_in_weeks'
p3
I142
sS'end_weight'
p4
F0.905870929495312
sS'close_match_threshold'
p5
F0.46982668849177683
sS'start_weight'
p6
F0.2127479336628133
sS'over_power_threshold'
p7
F2.662242443329407
sS'over_power_extra'
p8
F0.0712814061539535
sS'close_match_trim'
p9
F0.015158674948943407
saF-208.4349504372192
aa(lp10
(dp11
g3
I88
sg4
F0.9527369482328248
sg5
F0.388485226576217
sg6
F0.0783814679670829
sg7
F4.35320899337597
sg8
F0.10313558071462142
sg9
F0.042807748519751866
saF-350.5105031660762
aa(lp12
(dp13
g3
I106
sg4
F1.0
sg5
F0.09588032033058574
sg6
F0.9158224939974634
sg7
F4.6086371186840305
sg8
F0.100501097796824
sg9
F0.006300291503677169
saF-384.13684919589184
aa(lp14
(dp15
g3
I49
sg4
F0.9695688530411049
sg5
F0.02599927973495464
sg6
F0.6935507585112359
sg7
F4.104609791685609
sg8
F0.10623920328540185
sg9
F0.30192517256951645
saF-449.1570017416583
aa(lp16
(dp17
g3
I114
sg4
F1.0
sg5
F0.40660624121555594
sg6
F0.5683611836396184
sg7
F1.8747627665687023
sg8
F0.022780250375511346
sg9
F0.031008439160247248
saF-457.8754008157439
aa(lp18
(dp19
g3
I117
sg4
F0.9166740572055467
sg5
F0.1163549090719076
sg6
F0.7064125761477504
sg7
F3.000634885448808
sg8
F0.11531345338669169
sg9
F0.049473772756485485
saF-466.03411513068363
aa(lp20
(dp21
g3
I112
sg4
F0.6186198909790674
sg5
F0.02843071876411618
sg6
F0.26612804553845215
sg7
F3.654858035532247
sg8
F0.06987820258692523
sg9
F0.0036332301103510823
saF-500.4130261284478
aa(lp22
(dp23
g3
I138
sg4
F1.0
sg5
F0.21379098323168894
sg6
F0.8539145172588957
sg7
F3.155004257402766
sg8
F0.12202539370224737
sg9
F0.010580732328964705
saF-504.33004195689523
aa(lp24
(dp25
g3
I15
sg4
F0.9891536343594272
sg5
F0.19642238036673237
sg6
F0.7291731536136409
sg7
F4.986856741528232
sg8
F0.09440244016750501
sg9
F0.10091203350227365
saF-507.0216319499332
aa(lp26
(dp27
g3
I104
sg4
F0.7559877735674726
sg5
F0.019878300397297266
sg6
F0.7289571437725703
sg7
F3.9821044751760972
sg8
F0.1902938169562876
sg9
F0.01916552779380396
saF-507.73793809847433
aa(lp28
(dp29
g3
I32
sg4
F0.8287847302231581
sg5
F0.2817435149473172
sg6
F0.46074176854112514
sg7
F4.727390218116501
sg8
F0.18211234367399587
sg9
F0.01564976095855619
saF-527.5615351018497
aa(lp30
(dp31
g3
I112
sg4
F0.7587195552834358
sg5
F0.43479743451967884
sg6
F0.08673066620203396
sg7
F3.7968931944626694
sg8
F0.059674719604467845
sg9
F0.001725153118094669
saF-534.4186198571672
aa(lp32
(dp33
g3
I61
sg4
F0.566947347884552
sg5
F0.4598409708364442
sg6
F0.5291464459572062
sg7
F3.9913995344679574
sg8
F0.034000225627416024
sg9
F0.02346765293438846
saF-563.8761159016562
aa(lp34
(dp35
g3
I63
sg4
F0.525892960269575
sg5
F0.028965338897280313
sg6
F0.4981397683972869
sg7
F3.6065997382746127
sg8
F0.09135978212893961
sg9
F0.0008922135535969656
saF-578.3610252668826
aa(lp36
(dp37
g3
I13
sg4
F0.881240106104862
sg5
F0.05448329787830519
sg6
F0.7266265002261802
sg7
F1.9193594335347226
sg8
F0.11067093991501042
sg9
F0.0010866214648874272
saF-607.6837097801068
aa(lp38
(dp39
g3
I80
sg4
F1.0
sg5
F0.18195232752301882
sg6
F0.9429021798436342
sg7
F4.424456655059073
sg8
F0.09565023466153683
sg9
F0.009921780789998459
saF-607.7108033024014
aa(lp40
(dp41
g3
I25
sg4
F0.8135573611728949
sg5
F0.004384231381176662
sg6
F0.7091102293980498
sg7
F4.991163252552154
sg8
F0.09974222598271452
sg9
F0.3790312370932949
saF-614.632402594624
aa(lp42
(dp43
g3
I16
sg4
F0.7033663445381415
sg5
F0.08157626544638863
sg6
F0.36152418992520574
sg7
F2.554219724990842
sg8
F0.06796477126607177
sg9
F0.32941665435863354
saF-617.0874670382123
aa(lp44
(dp45
g3
I75
sg4
F0.6624285325740669
sg5
F0.012476839697454278
sg6
F0.31054745946312967
sg7
F1.6021057902137938
sg8
F0.06309275101991652
sg9
F0.10641885934454667
saF-624.0621129798615
aa(lp46
(dp47
g3
I46
sg4
F1.0
sg5
F0.2643857983586441
sg6
F0.7622238770181902
sg7
F2.9743929251757084
sg8
F0.037401051037388625
sg9
F0.022673676640099717
saF-635.5340401969606
aa(lp48
(dp49
g3
I94
sg4
F0.9442153407071008
sg5
F0.03381687057979216
sg6
F0.48579743393052943
sg7
F1.2342810232173171
sg8
F0.14565219127488988
sg9
F0.02220946218753488
saF-635.5415481781147
aa(lp50
(dp51
g3
I28
sg4
F0.961226752328475
sg5
F0.14992126815765328
sg6
F0.07677656081153095
sg7
F2.096168891872561
sg8
F0.12454426499394454
sg9
F0.15979735743551216
saF-645.1988321029482
aa(lp52
(dp53
g3
I122
sg4
F0.9222690714973276
sg5
F0.05797895822640614
sg6
F0.7026332599678304
sg7
F3.6478428044405726
sg8
F0.06124383017708823
sg9
F0.36132002355480036
saF-654.8525281885551
aa(lp54
(dp55
g3
I111
sg4
F0.6198401264375177
sg5
F0.038770551729573055
sg6
F0.27465673930286294
sg7
F1.7828836181896583
sg8
F0.1865486919092644
sg9
F0.05293971537532545
saF-661.0551926897106
aa(lp56
(dp57
g3
I103
sg4
F0.9103875536791721
sg5
F0.20766520551588336
sg6
F0.16848232100328642
sg7
F3.2884203307520052
sg8
F0.1466048857534209
sg9
F0.08703693614057646
saF-664.2424693209343
aa(lp58
(dp59
g3
I44
sg4
F1.0
sg5
F0.2550219409372602
sg6
F0.8578086273959015
sg7
F4.957766754228401
sg8
F0.16047137045719387
sg9
F0.023453590844155547
saF-705.1383234879268
aa(lp60
(dp61
g3
I31
sg4
F1.0
sg5
F0.21061929335250007
sg6
F0.9461388180434822
sg7
F3.764725485874126
sg8
F0.10962863576876443
sg9
F0.10839971764019288
saF-711.857870888411
aa(lp62
(dp63
g3
I20
sg4
F0.7673606777000322
sg5
F0.24466482705205844
sg6
F0.35947890663371185
sg7
F4.243814800320855
sg8
F0.16478701059385198
sg9
F0.27356799922591385
saF-714.7617813015714
aa(lp64
(dp65
g3
I46
sg4
F1.0
sg5
F0.0018983601880989132
sg6
F0.8485918473767113
sg7
F4.321913145061096
sg8
F0.05463251695526226
sg9
F0.3990795635906968
saF-727.7679596461451
aa(lp66
(dp67
g3
I46
sg4
F1.0
sg5
F0.20618577735915466
sg6
F0.6037886771750836
sg7
F3.794009669028551
sg8
F0.1017426129542747
sg9
F0.007548408718183675
saF-747.024343663096
aa(lp68
(dp69
g3
I133
sg4
F0.7058065432660163
sg5
F0.4408765340648763
sg6
F0.458585178482942
sg7
F1.9457479422812827
sg8
F0.06703483847175691
sg9
F0.13635373319674657
saF-747.2384153222342
aa(lp70
(dp71
g3
I137
sg4
F0.99992012344233
sg5
F0.08270130950702803
sg6
F0.10703273476995223
sg7
F1.40492338819333
sg8
F0.1190217295253545
sg9
F0.08838704139470842
saF-749.5824267934481
aa(lp72
(dp73
g3
I114
sg4
F0.501584661055096
sg5
F0.21857927554547268
sg6
F0.3335373744021667
sg7
F1.932630490707406
sg8
F0.04151565256291843
sg9
F0.10573386008266046
saF-763.7571811201523
aa(lp74
(dp75
g3
I17
sg4
F0.8470718951500393
sg5
F0.4096025949325831
sg6
F0.410940064706231
sg7
F1.9438794448716612
sg8
F0.010972643140862881
sg9
F0.2756384923200654
saF-776.9846466709931
aa(lp76
(dp77
g3
I64
sg4
F1.0
sg5
F0.05704610160590862
sg6
F0.576705039010657
sg7
F1.830830076414375
sg8
F0.14492497726585468
sg9
F0.1674381751045595
saF-785.078065179288
aa(lp78
(dp79
g3
I146
sg4
F0.9533443476102638
sg5
F0.03090129248402812
sg6
F0.6870257382108773
sg7
F2.08777309175694
sg8
F0.023803623147381405
sg9
F0.1727346878092277
saF-787.2977483326747
aa(lp80
(dp81
g3
I109
sg4
F0.5350716706696597
sg5
F0.07308531367507626
sg6
F0.09531047772096113
sg7
F3.629122507181492
sg8
F0.029086795911399267
sg9
F0.27429336943054805
saF-787.7750785532962
aa(lp82
(dp83
g3
I94
sg4
F1.0
sg5
F0.10043789510110085
sg6
F0.9126064283029389
sg7
F1.253975825823951
sg8
F0.1510214491735994
sg9
F0.01104094997204399
saF-799.6895495654542
aa(lp84
(dp85
g3
I108
sg4
F1.0
sg5
F0.14972048090034934
sg6
F0.8807659433077115
sg7
F4.005928772570849
sg8
F0.06262385013318349
sg9
F0.14402977870033476
saF-801.9210898360936
aa(lp86
(dp87
g3
I139
sg4
F1.0
sg5
F0.2229085676133249
sg6
F0.6485859592385492
sg7
F3.32660765937522
sg8
F0.06606325834496365
sg9
F0.077871404000124
saF-824.6251881880866
aa(lp88
(dp89
g3
I144
sg4
F0.7261283886756125
sg5
F0.13085038026339813
sg6
F0.014255108558067109
sg7
F3.1839879485498654
sg8
F0.027867407316219974
sg9
F0.3224933254872569
saF-845.1852883415276
aa(lp90
(dp91
g3
I118
sg4
F0.6292335688273109
sg5
F0.12408148020490956
sg6
F0.49625596135740246
sg7
F3.604693513717727
sg8
F0.10451761153871958
sg9
F0.3473140521128813
saF-845.5678923597856
aa(lp92
(dp93
g3
I123
sg4
F1.0
sg5
F0.010199465339289615
sg6
F0.859614236761675
sg7
F3.3717746539061997
sg8
F0.14289372627897953
sg9
F0.23304658685721438
saF-857.2190052151402
aa(lp94
(dp95
g3
I56
sg4
F0.8462219264344191
sg5
F0.022486797322474827
sg6
F0.5170008806951938
sg7
F3.8850811350679053
sg8
F0.1553218564370387
sg9
F0.06570850758128262
saF-858.9629933542232
aa(lp96
(dp97
g3
I69
sg4
F0.5781925793093143
sg5
F0.38096384977763265
sg6
F0.20471744086469412
sg7
F2.0022231574131037
sg8
F0.1678927559722064
sg9
F0.16076647338994887
saF-859.1897897165516
aa(lp98
(dp99
g3
I55
sg4
F0.7236529922813497
sg5
F0.05704846675431702
sg6
F0.37770848738080387
sg7
F1.935694764053502
sg8
F0.17869510572795866
sg9
F0.04183873528094795
saF-862.8229166991626
aa(lp100
(dp101
g3
I96
sg4
F0.6503454423359643
sg5
F0.23049102678202577
sg6
F0.6447516707616383
sg7
F3.500403611391659
sg8
F0.15244622566480573
sg9
F0.1407784858073575
saF-867.3246950992742
aa(lp102
(dp103
g3
I50
sg4
F0.5406954794813199
sg5
F0.3506459744919395
sg6
F0.31768169747194663
sg7
F3.367573336531507
sg8
F0.06567618562517262
sg9
F0.11422650396875791
saF-875.7349903442448
aa(lp104
(dp105
g3
I131
sg4
F0.7554949452939437
sg5
F0.1903218464750735
sg6
F0.009003792496815599
sg7
F3.2659977530667876
sg8
F0.12282290611596769
sg9
F0.3130022629753648
saF-875.9469234382598
aa(lp106
(dp107
g3
I23
sg4
F0.7369260550186286
sg5
F0.23091097281452855
sg6
F0.05702675156026349
sg7
F4.281639880702032
sg8
F0.1438620790523579
sg9
F0.30600670633120264
saF-876.5006068096827
aa(lp108
(dp109
S'history_in_weeks'
p110
I112
sS'end_weight'
p111
F0.8793597776417179
sS'close_match_threshold'
p112
F0.09588032033058574
sS'start_weight'
p113
F0.5012765800997487
sS'over_power_threshold'
p114
F4.6086371186840305
sS'over_power_extra'
p115
F0.08008790870064592
sS'close_match_trim'
p116
F0.006300291503677169
saF-395.6371967157743
aa(lp117
(dp118
g110
I20
sg111
F0.8462219264344191
sg112
F0.13357581218726663
sg113
F0.35947890663371185
sg114
F4.243814800320855
sg115
F0.1553218564370387
sg116
F0.16963825340359823
saF-651.7615289798591
aa(lp119
(dp120
g110
I31
sg111
F1.0
sg112
F0.21379098323168894
sg113
F0.900026667651189
sg114
F3.764725485874126
sg115
F0.1158270147355059
sg116
F0.05949022498457879
saF-729.0390874702189
aa(lp121
(dp122
g110
I77
sg111
F0.5406954794813199
sg112
F0.11342779655216795
sg113
F0.5233194206222584
sg114
F3.367573336531507
sg115
F0.06567618562517262
sg116
F0.01916552779380396
saF-805.9280351541993
aa(lp123
(dp124
g110
I142
sg111
F0.7261283886756125
sg112
F0.13085038026339813
sg113
F0.2127479336628133
sg114
F2.923115195939636
sg115
F0.049574406735086736
sg116
F0.3224933254872569
saF-842.6731537230322
aa(lp125
(dp126
g110
I94
sg111
F0.9721076703535504
sg112
F0.21061929335250007
sg113
F0.932690754782905
sg114
F3.764725485874126
sg115
F0.14565219127488988
sg116
F0.10839971764019288
saF-813.3380859391368
aa(lp127
(dp128
g110
I23
sg111
F1.0
sg112
F0.24296645687589438
sg113
F0.8578086273959015
sg114
F4.281639880702032
sg115
F0.1438620790523579
sg116
F0.023453590844155547
saF-88.09732901783013
aa(lp129
(dp130
g110
I139
sg111
F0.8630641943378062
sg112
F0.2229085676133249
sg113
F0.6485859592385492
sg114
F3.1839879485498654
sg115
F0.06606325834496365
sg116
F0.077871404000124
saF-797.5602416812136
aa(lp131
(dp132
g110
I23
sg111
F0.8470718951500393
sg112
F0.23091097281452855
sg113
F0.23398340813324725
sg114
F4.281639880702032
sg115
F0.010972643140862881
sg116
F0.24065348030279565
saF-689.5727584027304
aa(lp133
(dp134
g110
I142
sg111
F0.9222690714973276
sg112
F0.05797895822640614
sg113
F0.7026332599678304
sg114
F3.6478428044405726
sg115
F0.0712814061539535
sg116
F0.18823934925187188
saF-722.1185612631568
aa(lp135
(dp136
g110
I91
sg111
F0.8376876981535606
sg112
F0.4408765340648763
sg113
F0.6935507585112359
sg114
F3.0251788669834454
sg115
F0.08663702087857938
sg116
F0.30192517256951645
saF-987.6873046035871
aa(lp137
(dp138
g110
I84
sg111
F0.9442153407071008
sg112
F0.012476839697454278
sg113
F0.48579743393052943
sg114
F1.6021057902137938
sg115
F0.06309275101991652
sg116
F0.02220946218753488
saF-591.4214124483526
aa(lp139
(dp140
g110
I140
sg111
F1.0
sg112
F0.34636762805255084
sg113
F0.43066694645068127
sg114
F3.32660765937522
sg115
F0.06606325834496365
sg116
F0.077871404000124
saF-836.1650429359667
aa(lp141
(dp142
g110
I20
sg111
F0.654028078590676
sg112
F0.297655400771999
sg113
F0.35947890663371185
sg114
F4.243814800320855
sg115
F0.16478701059385198
sg116
F0.1938972515973359
saF-716.8044827796829
aa(lp143
(dp144
g110
I103
sg111
F1.0
sg112
F0.3330133740977994
sg113
F0.5291464459572062
sg114
F3.892704601748254
sg115
F0.1017426129542747
sg116
F0.015508030826286068
saF-661.2821718855823
aa(lp145
(dp146
g110
I10
sg111
F0.6186198909790674
sg112
F0.24466482705205844
sg113
F0.26612804553845215
sg114
F3.949336417926551
sg115
F0.16478701059385198
sg116
F0.0036332301103510823
saF-784.3189723010021
aa(lp147
(dp148
g110
I34
sg111
F0.6186198909790674
sg112
F0.02843071876411618
sg113
F0.26612804553845215
sg114
F3.654858035532247
sg115
F0.12428665415744194
sg116
F0.0036332301103510823
saF-864.4756916111628
aa(lp149
(dp150
g110
I96
sg111
F0.8057860973322196
sg112
F0.14992126815765328
sg113
F0.3607641157865846
sg114
F2.79828625163211
sg115
F0.12454426499394454
sg116
F0.1407784858073575
saF-874.1731264641326
aa(lp151
(dp152
g110
I101
sg111
F1.0
sg112
F0.2609283393713317
sg113
F0.9158224939974634
sg114
F3.500403611391659
sg115
F0.12647366173081487
sg116
F0.07353938865551733
saF-762.0116793711825
aa(lp153
(dp154
g110
I44
sg111
F0.8093099454895337
sg112
F0.02843071876411618
sg113
F0.5619683364671768
sg114
F4.894310792888206
sg115
F0.06987820258692523
sg116
F0.023453590844155547
saF-790.9916260768211
aa(lp155
(dp156
g110
I144
sg111
F0.5350716706696597
sg112
F0.10196784696923719
sg113
F0.05478279313951412
sg114
F3.629122507181492
sg115
F0.02847710161380962
sg116
F0.27429336943054805
saF-693.1567989722278
aa(lp157
(dp158
g110
I83
sg111
F0.9166740572055467
sg112
F0.02599927973495464
sg113
F0.6999816673294932
sg114
F3.000634885448808
sg115
F0.11077632833604677
sg116
F0.17569947266300096
saF-855.9368760671082
aa(lp159
(dp160
g110
I128
sg111
F0.67237413982734
sg112
F0.02843071876411618
sg113
F0.014255108558067109
sg114
F3.4194229920410564
sg115
F0.048872804951572604
sg116
F0.163063277798804
saF-480.4896365696235
aa(lp161
(dp162
g110
I88
sg111
F0.7654647637710696
sg112
F0.388485226576217
sg113
F0.0783814679670829
sg114
F2.0022231574131037
sg115
F0.028522868916916758
sg116
F0.10178711095485037
saF-811.8128467228946
aa(lp163
(dp164
g110
I20
sg111
F1.0
sg112
F0.18195232752301882
sg113
F0.35947890663371185
sg114
F4.243814800320855
sg115
F0.16478701059385198
sg116
F0.27356799922591385
saF-814.6649784162162
aa(lp165
(dp166
g110
I138
sg111
F1.0
sg112
F0.019878300397297266
sg113
F0.791435830515733
sg114
F3.9821044751760972
sg115
F0.1902938169562876
sg116
F0.34448206715949103
saF-829.3520110799005
aa(lp167
(dp168
g110
I44
sg111
F1.0
sg112
F0.23282061714488014
sg113
F0.8578086273959015
sg114
F4.957766754228401
sg115
F0.16047137045719387
sg116
F0.023453590844155547
saF-661.3675476411464
aa(lp169
(dp170
g110
I80
sg111
F0.5802678029594188
sg112
F0.19470826311075629
sg113
F0.27465673930286294
sg114
F3.367573336531507
sg115
F0.1865486919092644
sg116
F0.05293971537532545
saF-860.5156274842651
aa(lp171
(dp172
g110
I139
sg111
F1.0
sg112
F0.2229085676133249
sg113
F0.6485859592385492
sg114
F3.32660765937522
sg115
F0.10857262510354766
sg116
F0.04270990635915384
saF-766.0913661884609
aa(lp173
(dp174
g110
I88
sg111
F0.5350716706696597
sg112
F0.23078527012564662
sg113
F0.08684597284402201
sg114
F4.35320899337597
sg115
F0.10313558071462142
sg116
F0.15855055897514997
saF-906.6940451644144
aa(lp175
(dp176
g110
I97
sg111
F1.0
sg112
F0.2942792843692874
sg113
F0.5683611836396184
sg114
F1.8747627665687023
sg115
F0.09565023466153683
sg116
F0.020465109975122853
saF201.30304495534347
aa(lp177
(dp178
g110
I109
sg111
F1.0
sg112
F0.2550219409372602
sg113
F0.8578086273959015
sg114
F4.293444630704947
sg115
F0.09477908318429656
sg116
F0.27429336943054805
saF-984.8399474165807
aa(lp179
(dp180
g110
I112
sg111
F0.9763285358375775
sg112
F0.08270130950702803
sg113
F0.10703273476995223
sg114
F2.87906619078465
sg115
F0.11107865511998796
sg116
F0.06559739495723015
saF-681.1364124435065
aa(lp181
(dp182
g110
I46
sg111
F1.0
sg112
F0.20618577735915466
sg113
F0.6037886771750836
sg114
F3.794009669028551
sg115
F0.05463251695526226
sg116
F0.20331398615444024
saF-907.9288500647677
aa(lp183
(dp184
g110
I25
sg111
F0.6292335688273109
sg112
F0.06423285579304311
sg113
F0.49625596135740246
sg114
F4.29792838313494
sg115
F0.10212991876071706
sg116
F0.3473140521128813
saF-905.1693172948906
aa(lp185
(dp186
g110
I76
sg111
F1.0
sg112
F0.2643857983586441
sg113
F0.8390231855078267
sg114
F4.6086371186840305
sg115
F0.06895107441710631
sg116
F0.022673676640099717
saF-562.0505048621417
aa(lp187
(dp188
g110
I50
sg111
F0.9222690714973276
sg112
F0.14972048090034934
sg113
F0.7026332599678304
sg114
F4.005928772570849
sg115
F0.06262385013318349
sg116
F0.14402977870033476
saF-793.4817860390199
aa(lp189
(dp190
g110
I44
sg111
F0.6186198909790674
sg112
F0.1417263298506882
sg113
F0.26612804553845215
sg114
F4.306312394880324
sg115
F0.19988524459437776
sg116
F0.013543410477253316
saF-776.064997174851
aa(lp191
(dp192
g110
I56
sg111
F1.0
sg112
F0.0018983601880989132
sg113
F0.6827963640359526
sg114
F4.321913145061096
sg115
F0.05463251695526226
sg116
F0.06570850758128262
saF-805.3413112930464
aa(lp193
(dp194
g110
I89
sg111
F0.6292335688273109
sg112
F0.12408148020490956
sg113
F0.5127012036573043
sg114
F3.7980465240928423
sg115
F0.034000225627416024
sg116
F0.02346765293438846
saF-831.5637406080151
aa(lp195
(dp196
g110
I54
sg111
F1.0
sg112
F0.18195232752301882
sg113
F0.9429021798436342
sg114
F3.260312773465817
sg115
F0.09565023466153683
sg116
F0.009921780789998459
saF-852.1755250385472
aa(lp197
(dp198
g110
I94
sg111
F0.7673606777000322
sg112
F0.24466482705205844
sg113
F0.35947890663371185
sg114
F1.2342810232173171
sg115
F0.16478701059385198
sg116
F0.14788873070672437
saF-959.7432351130697
aa(lp199
(dp200
g110
I88
sg111
F0.9527369482328248
sg112
F0.23049102678202577
sg113
F0.3615665693643606
sg114
F4.35320899337597
sg115
F0.1277909031897136
sg116
F0.09179311716355468
saF-873.9644001904101
aa(lp201
(dp202
g110
I73
sg111
F0.8684630275093144
sg112
F0.23091097281452855
sg113
F0.05702675156026349
sg114
F3.3717746539061997
sg115
F0.14337790266566872
sg116
F0.30600670633120264
saF-977.8265389587697
aa(lp203
(dp204
g110
I117
sg111
F0.7418107025450493
sg112
F0.1163549090719076
sg113
F0.7064125761477504
sg114
F3.9913995344679574
sg115
F0.034000225627416024
sg116
F0.02346765293438846
saF-448.42155011816953
aa(lp205
(dp206
g110
I61
sg111
F0.7601458477474079
sg112
F0.24537113166023616
sg113
F0.6870257382108773
sg114
F2.08777309175694
sg115
F0.023803623147381405
sg116
F0.09810117037180809
saF-894.5171518271533
aa(lp207
(dp208
g110
I28
sg111
F0.8287847302231581
sg112
F0.004384231381176662
sg113
F0.46074176854112514
sg114
F4.991163252552154
sg115
F0.18211234367399587
sg116
F0.01564976095855619
saF10.752168247188365
aa(lp209
(dp210
g110
I144
sg111
F0.525892960269575
sg112
F0.028965338897280313
sg113
F0.014255108558067109
sg114
F3.3952938434122393
sg115
F0.027867407316219974
sg116
F0.16169276952042694
saF-809.458103393112
aa(lp211
(dp212
g110
I35
sg111
F1.0
sg112
F0.004384231381176662
sg113
F0.7091102293980498
sg114
F2.9743929251757084
sg115
F0.06857163851005157
sg116
F0.2008524568666973
saF-937.0315516609602
aa(lp213
(dp214
g110
I112
sg111
F0.7587195552834358
sg112
F0.3227083639360895
sg113
F0.08673066620203396
sg114
F3.780809340168398
sg115
F0.08465167768661613
sg116
F0.05506243537914377
saF-705.3051865398127
aa.