(lp0
(lp1
(dp2
S'history_in_weeks'
p3
I97
sS'end_weight'
p4
F1.0
sS'close_match_threshold'
p5
F0.2942792843692874
sS'start_weight'
p6
F0.5683611836396184
sS'over_power_threshold'
p7
F1.8747627665687023
sS'over_power_extra'
p8
F0.09565023466153683
sS'close_match_trim'
p9
F0.020465109975122853
saF201.30304495534347
aa(lp10
(dp11
g3
I112
sg4
F1.0
sg5
F0.2643857983586441
sg6
F0.26612804553845215
sg7
F2.9743929251757084
sg8
F0.06987820258692523
sg9
F0.0036332301103510823
saF191.6711671048099
aa(lp12
(dp13
g3
I112
sg4
F0.8615767813815675
sg5
F0.36211338459754416
sg6
F0.26612804553845215
sg7
F2.9743929251757084
sg8
F0.08008790870064592
sg9
F0.006300291503677169
saF52.053344733879385
aa(lp14
(dp15
g3
I28
sg4
F0.8287847302231581
sg5
F0.004384231381176662
sg6
F0.46074176854112514
sg7
F4.991163252552154
sg8
F0.18211234367399587
sg9
F0.01564976095855619
saF10.752168247188365
aa(lp16
(dp17
g3
I29
sg4
F0.8793597776417179
sg5
F0.33523013209447217
sg6
F0.7034402932923036
sg7
F4.991163252552154
sg8
F0.11297919921101303
sg9
F0.006300291503677169
saF-43.07944163099546
aa(lp18
(dp19
g3
I28
sg4
F0.7672956367445872
sg5
F0.004384231381176662
sg6
F0.458585178482942
sg7
F4.991163252552154
sg8
F0.18211234367399587
sg9
F0.13635373319674657
saF-47.01240450586488
aa(lp20
(dp21
g3
I112
sg4
F0.8793597776417179
sg5
F0.14824398420826126
sg6
F0.7064125761477504
sg7
F4.33636679791546
sg8
F0.06895107441710631
sg9
F0.014883972219032815
saF-74.83473047280984
aa(lp22
(dp23
g3
I112
sg4
F0.8793597776417179
sg5
F0.40533754273973244
sg6
F0.47976209466196823
sg7
F4.466002460789552
sg8
F0.08008790870064592
sg9
F0.008602226334329393
saF-85.77839731945267
aa(lp24
(dp25
g3
I23
sg4
F1.0
sg5
F0.24296645687589438
sg6
F0.8578086273959015
sg7
F4.281639880702032
sg8
F0.1438620790523579
sg9
F0.023453590844155547
saF-88.09732901783013
aa(lp26
(dp27
g3
I29
sg4
F0.9143923651115791
sg5
F0.21061929335250007
sg6
F0.7034402932923036
sg7
F4.991163252552154
sg8
F0.14587048972138014
sg9
F0.01564976095855619
saF-120.93312436737995
aa(lp28
(dp29
g3
I28
sg4
F0.8420173674527895
sg5
F0.2195031972520174
sg6
F0.8041931494337211
sg7
F4.004270143097491
sg8
F0.11531345338669169
sg9
F0.03256176685752084
saF-177.44057045858483
aa(lp30
(dp31
g3
I20
sg4
F0.8287847302231581
sg5
F0.004384231381176662
sg6
F0.46074176854112514
sg7
F4.441933927150204
sg8
F0.18211234367399587
sg9
F0.07600174707765138
saF-206.92859702485407
aa(lp32
(dp33
S'history_in_weeks'
p34
I142
sS'end_weight'
p35
F0.905870929495312
sS'close_match_threshold'
p36
F0.46982668849177683
sS'start_weight'
p37
F0.2127479336628133
sS'over_power_threshold'
p38
F2.662242443329407
sS'over_power_extra'
p39
F0.0712814061539535
sS'close_match_trim'
p40
F0.015158674948943407
saF-208.4349504372192
aa(lp41
(dp42
g3
I86
sg4
F1.0
sg5
F0.23282061714488014
sg6
F0.8578086273959015
sg7
F1.3018010513269362
sg8
F0.048872804951572604
sg9
F0.023453590844155547
saF-216.2153355259286
aa(lp43
(dp44
g3
I29
sg4
F0.9143923651115791
sg5
F0.14666030142976405
sg6
F0.6037886771750836
sg7
F4.397195728501364
sg8
F0.16399141669768802
sg9
F0.02813666945822468
saF-219.08289814706893
aa(lp45
(dp46
g3
I112
sg4
F0.8793597776417179
sg5
F0.4598409708364442
sg6
F0.47976209466196823
sg7
F4.250670860216142
sg8
F0.08008790870064592
sg9
F0.010904161164981618
saF-222.6328059306802
aa(lp47
(dp48
g3
I28
sg4
F0.9143923651115791
sg5
F0.23282061714488014
sg6
F0.8578086273959015
sg7
F4.974465003390277
sg8
F0.18211234367399587
sg9
F0.01564976095855619
saF-237.07828350181558
aa(lp49
(dp50
g3
I23
sg4
F0.9605043418631973
sg5
F0.21379098323168894
sg6
F0.7064125761477504
sg7
F3.708865798957105
sg8
F0.1438620790523579
sg9
F0.010580732328964705
saF-242.77410270423798
aa(lp51
(dp52
g3
I76
sg4
F0.8287847302231581
sg5
F0.004384231381176662
sg6
F0.649882477024476
sg7
F4.7999001856180925
sg8
F0.18211234367399587
sg9
F0.01564976095855619
saF-243.81303506984102
aa(lp53
(dp54
g3
I25
sg4
F1.0
sg5
F0.23789353701038726
sg6
F0.8578086273959015
sg7
F4.974465003390277
sg8
F0.1629872113631769
sg9
F0.01955167590135587
saF-248.68718040867316
aa(lp55
(dp56
g3
I20
sg4
F0.654028078590676
sg5
F0.2156156064796328
sg6
F0.35947890663371185
sg7
F4.243814800320855
sg8
F0.1553218564370387
sg9
F0.008012920733125562
saF-251.11751749527411
aa(lp57
(dp58
g3
I20
sg4
F0.8420173674527895
sg5
F0.10611761470124667
sg6
F0.35947890663371185
sg7
F4.243814800320855
sg8
F0.11531345338669169
sg9
F0.027887032130081327
saF-253.70839542525664
aa(lp59
(dp60
g3
I106
sg4
F1.0
sg5
F0.09588032033058574
sg6
F0.35947890663371185
sg7
F4.6086371186840305
sg8
F0.100501097796824
sg9
F0.006300291503677169
saF-263.44742110524464
aa(lp61
(dp62
g3
I28
sg4
F0.7418107025450493
sg5
F0.1163549090719076
sg6
F0.7064125761477504
sg7
F4.482932268929117
sg8
F0.18211234367399587
sg9
F0.01564976095855619
saF-267.1397464083682
aa(lp63
(dp64
g3
I112
sg4
F0.654028078590676
sg5
F0.09588032033058574
sg6
F0.5012765800997487
sg7
F4.243814800320855
sg8
F0.1553218564370387
sg9
F0.007156606118401365
saF-270.7604526840138
aa(lp65
(dp66
g3
I103
sg4
F0.5760305610039516
sg5
F0.18464124949766494
sg6
F0.5012765800997487
sg7
F4.6086371186840305
sg8
F0.09598595601445348
sg9
F0.010580732328964705
saF-272.20761895398584
aa(lp67
(dp68
g3
I28
sg4
F1.0
sg5
F0.15769175879130157
sg6
F0.6307263146767018
sg7
F3.764725485874126
sg8
F0.10506486678279421
sg9
F0.01097502623111668
saF-298.95498771157645
aa(lp69
(dp70
g3
I15
sg4
F0.8654821684522382
sg5
F0.3341831429533306
sg6
F0.7177928648806957
sg7
F3.9913995344679574
sg8
F0.034000225627416024
sg9
F0.02346765293438846
saF-303.67660110856093
aa(lp71
(dp72
g3
I117
sg4
F0.9166740572055467
sg5
F0.1163549090719076
sg6
F0.7064125761477504
sg7
F3.4960172099583824
sg8
F0.034000225627416024
sg9
F0.03647071284543697
saF-306.12915387079374
aa(lp73
(dp74
g3
I28
sg4
F0.9143923651115791
sg5
F0.1163549090719076
sg6
F0.782110601771826
sg7
F4.243814800320855
sg8
F0.18211234367399587
sg9
F0.01564976095855619
saF-310.4645825446662
aa(lp75
(dp76
g3
I29
sg4
F0.9517729997355031
sg5
F0.19642238036673237
sg6
F0.7163067234529723
sg7
F4.991163252552154
sg8
F0.09440244016750501
sg9
F0.048680727945182994
saF-320.9932492030508
aa(lp77
(dp78
g3
I29
sg4
F0.788410448842823
sg5
F0.012476839697454278
sg6
F0.5069938763777166
sg7
F3.2966345213829737
sg8
F0.14587048972138014
sg9
F0.06103431015155143
saF-336.62297751332846
aa(lp79
(dp80
g3
I20
sg4
F0.8420173674527895
sg5
F0.1163549090719076
sg6
F0.7064125761477504
sg7
F4.243814800320855
sg8
F0.11531345338669169
sg9
F0.049473772756485485
saF-342.8817000081456
aa(lp81
(dp82
g3
I112
sg4
F0.7231535627631349
sg5
F0.4598409708364442
sg6
F0.5291464459572062
sg7
F4.300018326575994
sg8
F0.08008790870064592
sg9
F0.006300291503677169
saF-349.979239845199
aa(lp83
(dp84
g34
I88
sg35
F0.9527369482328248
sg36
F0.388485226576217
sg37
F0.0783814679670829
sg38
F4.35320899337597
sg39
F0.10313558071462142
sg40
F0.042807748519751866
saF-350.5105031660762
aa(lp85
(dp86
g3
I20
sg4
F0.9891536343594272
sg5
F0.1163549090719076
sg6
F0.7177928648806957
sg7
F4.243814800320855
sg8
F0.11531345338669169
sg9
F0.07519290312937957
saF-352.6044923927932
aa(lp87
(dp88
g3
I28
sg4
F1.0
sg5
F0.2195031972520174
sg6
F0.9019737227196918
sg7
F3.764725485874126
sg8
F0.10962863576876443
sg9
F0.01564976095855619
saF-353.7610188833612
aa(lp89
(dp90
g3
I76
sg4
F0.8470718951500393
sg5
F0.2643857983586441
sg6
F0.29673115738347955
sg7
F4.6086371186840305
sg8
F0.06895107441710631
sg9
F0.022673676640099717
saF-374.9519420023631
aa(lp91
(dp92
g3
I30
sg4
F0.8715885476673686
sg5
F0.1163549090719076
sg6
F0.5961104696796222
sg7
F4.243814800320855
sg8
F0.1553218564370387
sg9
F0.013740550902198534
saF-380.29647939072686
aa(lp93
(dp94
g34
I106
sg35
F1.0
sg36
F0.09588032033058574
sg37
F0.9158224939974634
sg38
F4.6086371186840305
sg39
F0.100501097796824
sg40
F0.006300291503677169
saF-384.13684919589184
aa(lp95
(dp96
g3
I22
sg4
F0.9881642679187888
sg5
F0.14824614636935848
sg6
F0.8539145172588957
sg7
F3.155004257402766
sg8
F0.1589189065463348
sg9
F0.03808906364309743
saF-388.10415198712803
aa(lp97
(dp98
g3
I20
sg4
F0.7672956367445872
sg5
F0.004384231381176662
sg6
F0.458585178482942
sg7
F3.892704601748254
sg8
F0.1576885777240296
sg9
F0.13635373319674657
saF-395.40079930360014
aa(lp99
(dp100
g3
I112
sg4
F0.8793597776417179
sg5
F0.09588032033058574
sg6
F0.5012765800997487
sg7
F4.6086371186840305
sg8
F0.08008790870064592
sg9
F0.006300291503677169
saF-395.6371967157743
aa(lp101
(dp102
g3
I114
sg4
F1.0
sg5
F0.40660624121555594
sg6
F0.5683611836396184
sg7
F3.432963009560428
sg8
F0.18211234367399587
sg9
F0.023329100059401718
saF-399.0461000337084
aa(lp103
(dp104
g3
I117
sg4
F0.7418107025450493
sg5
F0.08157626544638863
sg6
F0.5339683830364781
sg7
F2.554219724990842
sg8
F0.06796477126607177
sg9
F0.176442153646511
saF-399.7350549321136
aa(lp105
(dp106
g3
I117
sg4
F0.7418107025450493
sg5
F0.08157626544638863
sg6
F0.5339683830364781
sg7
F2.554219724990842
sg8
F0.06796477126607177
sg9
F0.176442153646511
saF-399.7350549321136
aa(lp107
(dp108
g3
I112
sg4
F0.9025566330303678
sg5
F0.08270130950702803
sg6
F0.6037886771750836
sg7
F3.8032282044505754
sg8
F0.18211234367399587
sg9
F0.04062357795789317
saF-409.52030219813616
aa(lp109
(dp110
g3
I20
sg4
F0.6582283055823714
sg5
F0.012476839697454278
sg6
F0.31054745946312967
sg7
F2.9229602952673246
sg8
F0.06309275101991652
sg9
F0.05721589003883612
saF-409.79148676209434
aa(lp111
(dp112
g3
I32
sg4
F0.8287847302231581
sg5
F0.2817435149473172
sg6
F0.4101103375874185
sg7
F4.243814800320855
sg8
F0.1553218564370387
sg9
F0.011831340845840876
saF-428.26372425257046
aa(lp113
(dp114
g3
I112
sg4
F0.8793597776417179
sg5
F0.18013305934461493
sg6
F0.8390231855078267
sg7
F4.681334061362962
sg8
F0.06895107441710631
sg9
F0.006300291503677169
saF-431.3380909813251
aa(lp115
(dp116
g3
I28
sg4
F0.939679888820859
sg5
F0.2195031972520174
sg6
F0.9019737227196918
sg7
F4.186681302279078
sg8
F0.10962863576876443
sg9
F0.006300291503677169
saF-321.3403976482481
aa(lp117
(dp118
g3
I29
sg4
F0.9143923651115791
sg5
F0.46982668849177683
sg6
F0.4217567830488177
sg7
F2.662242443329407
sg8
F0.14587048972138014
sg9
F0.01564976095855619
saF-741.8033175391379
aa(lp119
(dp120
g3
I71
sg4
F1.0
sg5
F0.27663327132266
sg6
F0.5683611836396184
sg7
F3.915079369030896
sg8
F0.17305188018584194
sg9
F0.02813666945822468
saF-405.25069739657147
aa(lp121
(dp122
g3
I22
sg4
F0.7418107025450493
sg5
F0.08157626544638863
sg6
F0.7064125761477504
sg7
F3.399017262655849
sg8
F0.11531345338669169
sg9
F0.11295796320149824
saF-591.0148776215276
aa(lp123
(dp124
g3
I88
sg4
F0.9527369482328248
sg5
F0.24218277345340136
sg6
F0.2898290240334158
sg7
F4.480923056030001
sg8
F0.09161174470763367
sg9
F0.042807748519751866
saF-735.8818188200395
aa(lp125
(dp126
g3
I22
sg4
F0.8793597776417179
sg5
F0.3347066375239014
sg6
F0.7034402932923036
sg7
F3.9913995344679574
sg8
F0.11297919921101303
sg9
F0.02346765293438846
saF-540.4747277438213
aa(lp127
(dp128
g3
I29
sg4
F0.9891536343594272
sg5
F0.33523013209447217
sg6
F0.7106165790864997
sg7
F4.991163252552154
sg8
F0.11531345338669169
sg9
F0.006300291503677169
saF-241.6731822292802
aa(lp129
(dp130
g3
I86
sg4
F1.0
sg5
F0.23282061714488014
sg6
F0.5069938763777166
sg7
F3.2966345213829737
sg8
F0.048872804951572604
sg9
F0.06103431015155143
saF-768.1103874393727
aa(lp131
(dp132
g3
I76
sg4
F0.8793597776417179
sg5
F0.36211338459754416
sg6
F0.29673115738347955
sg7
F4.250670860216142
sg8
F0.08008790870064592
sg9
F0.010904161164981618
saF-568.379416373489
aa(lp133
(dp134
g3
I60
sg4
F0.8287847302231581
sg5
F0.004384231381176662
sg6
F0.46074176854112514
sg7
F4.991163252552154
sg8
F0.18211234367399587
sg9
F0.01564976095855619
saF-746.109658833583
aa(lp135
(dp136
g3
I66
sg4
F0.9025566330303678
sg5
F0.012476839697454278
sg6
F0.31054745946312967
sg7
F3.36309424985895
sg8
F0.052682358695757284
sg9
F0.05721589003883612
saF-780.2355335632478
aa(lp137
(dp138
g3
I20
sg4
F0.8287847302231581
sg5
F0.3245302569888828
sg6
F0.46074176854112514
sg7
F4.441933927150204
sg8
F0.14130672073540992
sg9
F0.006300291503677169
saF-298.25776553436776
aa(lp139
(dp140
g3
I114
sg4
F1.0
sg5
F0.2942792843692874
sg6
F0.5683611836396184
sg7
F3.4945939924081797
sg8
F0.18211234367399587
sg9
F0.020465109975122853
saF-468.3025095694736
aa(lp141
(dp142
g3
I68
sg4
F1.0
sg5
F0.23789353701038726
sg6
F0.8732252977673788
sg7
F2.9743929251757084
sg8
F0.1215375600319114
sg9
F0.01292598370251652
saF-701.3860904655676
aa(lp143
(dp144
g3
I117
sg4
F0.7418107025450493
sg5
F0.08157626544638863
sg6
F0.35947890663371185
sg7
F3.399017262655849
sg8
F0.09163911232638172
sg9
F0.18621365108721544
saF-740.3311383667523
aa(lp145
(dp146
g3
I106
sg4
F0.9571961825557895
sg5
F0.1532498068415429
sg6
F0.5314595999630077
sg7
F4.7999001856180925
sg8
F0.100501097796824
sg9
F0.006300291503677169
saF-573.386282506182
aa(lp147
(dp148
g3
I112
sg4
F0.8615767813815675
sg5
F0.36211338459754416
sg6
F0.5241193236551391
sg7
F2.9743929251757084
sg8
F0.08008790870064592
sg9
F0.01097502623111668
saF-84.43964017365874
aa(lp149
(dp150
g3
I52
sg4
F0.8632158363958786
sg5
F0.29980796522655817
sg6
F0.29673115738347955
sg7
F4.991163252552154
sg8
F0.11297919921101303
sg9
F0.014486984071888443
saF-698.8788565079594
aa(lp151
(dp152
g3
I25
sg4
F1.0
sg5
F0.23789353701038726
sg6
F0.8578086273959015
sg7
F4.974465003390277
sg8
F0.1629872113631769
sg9
F0.01955167590135587
saF-248.68718040867316
aa(lp153
(dp154
g3
I90
sg4
F0.8470718951500393
sg5
F0.2063148912834527
sg6
F0.7064125761477504
sg7
F4.33636679791546
sg8
F0.06895107441710631
sg9
F0.014883972219032815
saF-659.1712750664684
aa(lp155
(dp156
g3
I20
sg4
F0.9891536343594272
sg5
F0.10611761470124667
sg6
F0.5386358857572038
sg7
F4.243814800320855
sg8
F0.11531345338669169
sg9
F0.027887032130081327
saF151.79104825928903
aa(lp157
(dp158
g3
I20
sg4
F0.7672956367445872
sg5
F0.08157626544638863
sg6
F0.49627678075971005
sg7
F3.892704601748254
sg8
F0.11282667449505068
sg9
F0.176442153646511
saF-775.767882187171
aa(lp159
(dp160
g3
I88
sg4
F0.8793597776417179
sg5
F0.09588032033058574
sg6
F0.5012765800997487
sg7
F4.35320899337597
sg8
F0.10313558071462142
sg9
F0.006300291503677169
saF-547.6746761522811
aa(lp161
(dp162
g3
I106
sg4
F0.8715885476673686
sg5
F0.10611761470124667
sg6
F0.7559664818385428
sg7
F4.243814800320855
sg8
F0.100501097796824
sg9
F0.006300291503677169
saF-295.201225411021
aa(lp163
(dp164
g3
I70
sg4
F0.8793597776417179
sg5
F0.18827771985567365
sg6
F0.8390231855078267
sg7
F4.681334061362962
sg8
F0.08167675729230567
sg9
F0.02749050972443008
saF-688.3513420886748
aa(lp165
(dp166
g3
I66
sg4
F0.654028078590676
sg5
F0.09588032033058574
sg6
F0.5012765800997487
sg7
F4.441933927150204
sg8
F0.1553218564370387
sg9
F0.041579176598026374
saF-738.6172222991368
aa(lp167
(dp168
g3
I21
sg4
F1.0
sg5
F0.2459374508723161
sg6
F0.6742595897786987
sg7
F3.764725485874126
sg8
F0.06953254620510511
sg9
F0.02346765293438846
saF-259.53121484751773
aa(lp169
(dp170
g3
I71
sg4
F1.0
sg5
F0.28214900000342874
sg6
F0.5995437491581601
sg7
F3.432963009560428
sg8
F0.10506486678279421
sg9
F0.0171520631452592
saF-531.7912077007894
aa(lp171
(dp172
g3
I32
sg4
F0.9143923651115791
sg5
F0.24296645687589438
sg6
F0.8578086273959015
sg7
F4.281639880702032
sg8
F0.1553218564370387
sg9
F0.017642465844998213
saF-387.9331406246673
aa(lp173
(dp174
g3
I112
sg4
F0.939679888820859
sg5
F0.09588032033058574
sg6
F0.5012765800997487
sg7
F4.6086371186840305
sg8
F0.08008790870064592
sg9
F0.014876941173916358
saF-459.6230214503412
aa(lp175
(dp176
g3
I70
sg4
F0.7418107025450493
sg5
F0.09588032033058574
sg6
F0.7064125761477504
sg7
F4.363373534624986
sg8
F0.1553218564370387
sg9
F0.007156606118401365
saF-283.66130993731895
aa(lp177
(dp178
g3
I24
sg4
F0.9891536343594272
sg5
F0.1163549090719076
sg6
F0.7121027205142231
sg7
F4.482932268929117
sg8
F0.11531345338669169
sg9
F0.07519290312937957
saF-619.2204963375117
aa(lp179
(dp180
g3
I22
sg4
F0.9143923651115791
sg5
F0.3341831429533306
sg6
F0.7177928648806957
sg7
F3.9913995344679574
sg8
F0.14587048972138014
sg9
F0.01564976095855619
saF-547.2890635441785
aa(lp181
(dp182
g3
I29
sg4
F0.9517729997355031
sg5
F0.18827771985567365
sg6
F0.8390231855078267
sg7
F4.681334061362962
sg8
F0.09440244016750501
sg9
F0.006300291503677169
saF-435.6148097361016
aa(lp183
(dp184
g3
I94
sg4
F0.8287847302231581
sg5
F0.004384231381176662
sg6
F0.649882477024476
sg7
F4.7999001856180925
sg8
F0.18211234367399587
sg9
F0.01564976095855619
saF-188.10567973925833
aa(lp185
(dp186
g3
I28
sg4
F0.8568029575600791
sg5
F0.1679290531619625
sg6
F0.5961104696796222
sg7
F4.243814800320855
sg8
F0.1553218564370387
sg9
F0.023151158879859687
saF-317.1512623611196
aa(lp187
(dp188
g3
I24
sg4
F0.7418107025450493
sg5
F0.1163549090719076
sg6
F0.7064125761477504
sg7
F4.363373534624986
sg8
F0.11531345338669169
sg9
F0.01564976095855619
saF-171.70565545195996
aa(lp189
(dp190
g3
I53
sg4
F0.8287847302231581
sg5
F0.06036957022654213
sg6
F0.6229964733520491
sg7
F4.521857492969474
sg8
F0.1553218564370387
sg9
F0.013740550902198534
saF-775.533606288686
aa(lp191
(dp192
g3
I85
sg4
F0.905870929495312
sg5
F0.31820066096554456
sg6
F0.2127479336628133
sg7
F4.243814800320855
sg8
F0.0712814061539535
sg9
F0.015158674948943407
saF-548.1370216830487
aa(lp193
(dp194
g3
I76
sg4
F0.8287847302231581
sg5
F0.2643857983586441
sg6
F0.37873646296230234
sg7
F4.991163252552154
sg8
F0.12553170904555108
sg9
F0.01564976095855619
saF-565.3138430373334
aa(lp195
(dp196
g3
I117
sg4
F1.0
sg5
F0.150539731349203
sg6
F0.5339683830364781
sg7
F3.1594726054324838
sg8
F0.0887967035174181
sg9
F0.01564976095855619
saF-586.6893607852078
aa(lp197
(dp198
g3
I76
sg4
F0.8470718951500393
sg5
F0.08157626544638863
sg6
F0.4153497702099788
sg7
F3.581428421837436
sg8
F0.06845792284158904
sg9
F0.176442153646511
saF-903.8061065455302
aa(lp199
(dp200
g3
I142
sg4
F1.0
sg5
F0.2643857983586441
sg6
F0.26612804553845215
sg7
F2.9743929251757084
sg8
F0.0712814061539535
sg9
F0.015158674948943407
saF-628.2509077623043
aa(lp201
(dp202
g3
I67
sg4
F0.9337620227802533
sg5
F0.14824614636935848
sg6
F0.8539145172588957
sg7
F3.810503359096159
sg8
F0.08008790870064592
sg9
F0.008602226334329393
saF-460.93110194807434
aa(lp203
(dp204
g3
I30
sg4
F0.8715885476673686
sg5
F0.1163549090719076
sg6
F0.749042096199657
sg7
F4.243814800320855
sg8
F0.10962863576876443
sg9
F0.01564976095855619
saF-364.72692705431416
aa(lp205
(dp206
g3
I105
sg4
F1.0
sg5
F0.3504427627924217
sg6
F0.5683611836396184
sg7
F2.653862888064565
sg8
F0.09565023466153683
sg9
F0.021897105017262285
saF-738.5269291443069
aa(lp207
(dp208
g3
I112
sg4
F0.854072253932438
sg5
F0.23211260110881043
sg6
F0.5648222858432221
sg7
F4.525285522917118
sg8
F0.08008790870064592
sg9
F0.01564976095855619
saF-260.6742499068672
aa(lp209
(dp210
g3
I142
sg4
F0.6582283055823714
sg5
F0.24115176409461556
sg6
F0.2616476965629715
sg7
F2.662242443329407
sg8
F0.0712814061539535
sg9
F0.05721589003883612
saF-705.7139088905928
aa(lp211
(dp212
g3
I20
sg4
F0.9891536343594272
sg5
F0.09588032033058574
sg6
F0.6095347224902222
sg7
F4.243814800320855
sg8
F0.11531345338669169
sg9
F0.07519290312937957
saF-473.98807705691354
aa(lp213
(dp214
g3
I57
sg4
F0.788410448842823
sg5
F0.12264872842116721
sg6
F0.682401251886809
sg7
F1.3018010513269362
sg8
F0.09737164733647638
sg9
F0.06103431015155143
saF-738.614360078783
aa.