(lp0
(lp1
(dp2
S'history_in_weeks'
p3
I97
sS'end_weight'
p4
F1.0
sS'close_match_threshold'
p5
F0.2942792843692874
sS'start_weight'
p6
F0.5683611836396184
sS'over_power_threshold'
p7
F1.8747627665687023
sS'over_power_extra'
p8
F0.09565023466153683
sS'close_match_trim'
p9
F0.020465109975122853
saF201.30304495534347
aa(lp10
(dp11
g3
I112
sg4
F1.0
sg5
F0.2643857983586441
sg6
F0.26612804553845215
sg7
F2.9743929251757084
sg8
F0.06987820258692523
sg9
F0.0036332301103510823
saF191.6711671048099
aa(lp12
(dp13
g3
I28
sg4
F0.8287847302231581
sg5
F0.004384231381176662
sg6
F0.46074176854112514
sg7
F4.991163252552154
sg8
F0.18211234367399587
sg9
F0.01564976095855619
saF10.752168247188365
aa(lp14
(dp15
g3
I28
sg4
F0.7672956367445872
sg5
F0.004384231381176662
sg6
F0.458585178482942
sg7
F4.991163252552154
sg8
F0.18211234367399587
sg9
F0.13635373319674657
saF-47.01240450586488
aa(lp16
(dp17
g3
I23
sg4
F1.0
sg5
F0.24296645687589438
sg6
F0.8578086273959015
sg7
F4.281639880702032
sg8
F0.1438620790523579
sg9
F0.023453590844155547
saF-88.09732901783013
aa(lp18
(dp19
g3
I29
sg4
F0.9143923651115791
sg5
F0.21061929335250007
sg6
F0.7034402932923036
sg7
F4.991163252552154
sg8
F0.14587048972138014
sg9
F0.01564976095855619
saF-120.93312436737995
aa(lp20
(dp21
S'history_in_weeks'
p22
I142
sS'end_weight'
p23
F0.905870929495312
sS'close_match_threshold'
p24
F0.46982668849177683
sS'start_weight'
p25
F0.2127479336628133
sS'over_power_threshold'
p26
F2.662242443329407
sS'over_power_extra'
p27
F0.0712814061539535
sS'close_match_trim'
p28
F0.015158674948943407
saF-208.4349504372192
aa(lp29
(dp30
g3
I86
sg4
F1.0
sg5
F0.23282061714488014
sg6
F0.8578086273959015
sg7
F1.3018010513269362
sg8
F0.048872804951572604
sg9
F0.023453590844155547
saF-216.2153355259286
aa(lp31
(dp32
g3
I112
sg4
F0.8793597776417179
sg5
F0.4598409708364442
sg6
F0.47976209466196823
sg7
F4.250670860216142
sg8
F0.08008790870064592
sg9
F0.010904161164981618
saF-222.6328059306802
aa(lp33
(dp34
g3
I28
sg4
F0.9143923651115791
sg5
F0.23282061714488014
sg6
F0.8578086273959015
sg7
F4.974465003390277
sg8
F0.18211234367399587
sg9
F0.01564976095855619
saF-237.07828350181558
aa(lp35
(dp36
g3
I76
sg4
F0.8287847302231581
sg5
F0.004384231381176662
sg6
F0.649882477024476
sg7
F4.7999001856180925
sg8
F0.18211234367399587
sg9
F0.01564976095855619
saF-243.81303506984102
aa(lp37
(dp38
g3
I25
sg4
F1.0
sg5
F0.23789353701038726
sg6
F0.8578086273959015
sg7
F4.974465003390277
sg8
F0.1629872113631769
sg9
F0.01955167590135587
saF-248.68718040867316
aa(lp39
(dp40
g3
I20
sg4
F0.654028078590676
sg5
F0.2156156064796328
sg6
F0.35947890663371185
sg7
F4.243814800320855
sg8
F0.1553218564370387
sg9
F0.008012920733125562
saF-251.11751749527411
aa(lp41
(dp42
g3
I106
sg4
F1.0
sg5
F0.09588032033058574
sg6
F0.35947890663371185
sg7
F4.6086371186840305
sg8
F0.100501097796824
sg9
F0.006300291503677169
saF-263.44742110524464
aa(lp43
(dp44
g3
I103
sg4
F0.5760305610039516
sg5
F0.18464124949766494
sg6
F0.5012765800997487
sg7
F4.6086371186840305
sg8
F0.09598595601445348
sg9
F0.010580732328964705
saF-272.20761895398584
aa(lp45
(dp46
g3
I28
sg4
F0.9143923651115791
sg5
F0.1163549090719076
sg6
F0.782110601771826
sg7
F4.243814800320855
sg8
F0.18211234367399587
sg9
F0.01564976095855619
saF-310.4645825446662
aa(lp47
(dp48
g3
I29
sg4
F0.9517729997355031
sg5
F0.19642238036673237
sg6
F0.7163067234529723
sg7
F4.991163252552154
sg8
F0.09440244016750501
sg9
F0.048680727945182994
saF-320.9932492030508
aa(lp49
(dp50
g3
I29
sg4
F0.788410448842823
sg5
F0.012476839697454278
sg6
F0.5069938763777166
sg7
F3.2966345213829737
sg8
F0.14587048972138014
sg9
F0.06103431015155143
saF-336.62297751332846
aa(lp51
(dp52
g3
I20
sg4
F0.8420173674527895
sg5
F0.1163549090719076
sg6
F0.7064125761477504
sg7
F4.243814800320855
sg8
F0.11531345338669169
sg9
F0.049473772756485485
saF-342.8817000081456
aa(lp53
(dp54
g3
I112
sg4
F0.7231535627631349
sg5
F0.4598409708364442
sg6
F0.5291464459572062
sg7
F4.300018326575994
sg8
F0.08008790870064592
sg9
F0.006300291503677169
saF-349.979239845199
aa(lp55
(dp56
g22
I88
sg23
F0.9527369482328248
sg24
F0.388485226576217
sg25
F0.0783814679670829
sg26
F4.35320899337597
sg27
F0.10313558071462142
sg28
F0.042807748519751866
saF-350.5105031660762
aa(lp57
(dp58
g3
I28
sg4
F1.0
sg5
F0.2195031972520174
sg6
F0.9019737227196918
sg7
F3.764725485874126
sg8
F0.10962863576876443
sg9
F0.01564976095855619
saF-353.7610188833612
aa(lp59
(dp60
g3
I76
sg4
F0.8470718951500393
sg5
F0.2643857983586441
sg6
F0.29673115738347955
sg7
F4.6086371186840305
sg8
F0.06895107441710631
sg9
F0.022673676640099717
saF-374.9519420023631
aa(lp61
(dp62
g22
I106
sg23
F1.0
sg24
F0.09588032033058574
sg25
F0.9158224939974634
sg26
F4.6086371186840305
sg27
F0.100501097796824
sg28
F0.006300291503677169
saF-384.13684919589184
aa(lp63
(dp64
g3
I22
sg4
F0.9881642679187888
sg5
F0.14824614636935848
sg6
F0.8539145172588957
sg7
F3.155004257402766
sg8
F0.1589189065463348
sg9
F0.03808906364309743
saF-388.10415198712803
aa(lp65
(dp66
g3
I20
sg4
F0.7672956367445872
sg5
F0.004384231381176662
sg6
F0.458585178482942
sg7
F3.892704601748254
sg8
F0.1576885777240296
sg9
F0.13635373319674657
saF-395.40079930360014
aa(lp67
(dp68
g3
I112
sg4
F0.8793597776417179
sg5
F0.09588032033058574
sg6
F0.5012765800997487
sg7
F4.6086371186840305
sg8
F0.08008790870064592
sg9
F0.006300291503677169
saF-395.6371967157743
aa(lp69
(dp70
g3
I117
sg4
F0.7418107025450493
sg5
F0.08157626544638863
sg6
F0.5339683830364781
sg7
F2.554219724990842
sg8
F0.06796477126607177
sg9
F0.176442153646511
saF-399.7350549321136
aa(lp71
(dp72
g3
I117
sg4
F0.7418107025450493
sg5
F0.08157626544638863
sg6
F0.5339683830364781
sg7
F2.554219724990842
sg8
F0.06796477126607177
sg9
F0.176442153646511
saF-399.7350549321136
aa(lp73
(dp74
g3
I112
sg4
F0.9025566330303678
sg5
F0.08270130950702803
sg6
F0.6037886771750836
sg7
F3.8032282044505754
sg8
F0.18211234367399587
sg9
F0.04062357795789317
saF-409.52030219813616
aa(lp75
(dp76
g3
I20
sg4
F0.6582283055823714
sg5
F0.012476839697454278
sg6
F0.31054745946312967
sg7
F2.9229602952673246
sg8
F0.06309275101991652
sg9
F0.05721589003883612
saF-409.79148676209434
aa(lp77
(dp78
g3
I32
sg4
F0.8287847302231581
sg5
F0.2817435149473172
sg6
F0.4101103375874185
sg7
F4.243814800320855
sg8
F0.1553218564370387
sg9
F0.011831340845840876
saF-428.26372425257046
aa(lp79
(dp80
g3
I112
sg4
F0.8793597776417179
sg5
F0.18013305934461493
sg6
F0.8390231855078267
sg7
F4.681334061362962
sg8
F0.06895107441710631
sg9
F0.006300291503677169
saF-431.3380909813251
aa(lp81
(dp82
g3
I106
sg4
F1.0
sg5
F0.40660624121555594
sg6
F0.35947890663371185
sg7
F1.8747627665687023
sg8
F0.06164067408616767
sg9
F0.018654365331962207
saF-438.74254659479834
aa(lp83
(dp84
g3
I112
sg4
F0.9763285358375775
sg5
F0.08270130950702803
sg6
F0.6037886771750836
sg7
F2.87906619078465
sg8
F0.19581241939042227
sg9
F0.06559739495723015
saF-440.1756028860549
aa(lp85
(dp86
g3
I117
sg4
F0.7418107025450493
sg5
F0.1163549090719076
sg6
F0.7064125761477504
sg7
F4.482932268929117
sg8
F0.18211234367399587
sg9
F0.02346765293438846
saF-448.42155011816953
aa(lp87
(dp88
g3
I117
sg4
F0.7418107025450493
sg5
F0.1163549090719076
sg6
F0.7064125761477504
sg7
F3.9913995344679574
sg8
F0.034000225627416024
sg9
F0.02346765293438846
saF-448.42155011816953
aa(lp89
(dp90
g22
I49
sg23
F0.9695688530411049
sg24
F0.02599927973495464
sg25
F0.6935507585112359
sg26
F4.104609791685609
sg27
F0.10623920328540185
sg28
F0.30192517256951645
saF-449.1570017416583
aa(lp91
(dp92
g3
I23
sg4
F0.9210086837263948
sg5
F0.1163549090719076
sg6
F0.7064125761477504
sg7
F4.262727340511444
sg8
F0.1438620790523579
sg9
F0.036463681800320516
saF-451.3692881086779
aa(lp93
(dp94
g22
I114
sg23
F1.0
sg24
F0.40660624121555594
sg25
F0.5683611836396184
sg26
F1.8747627665687023
sg27
F0.022780250375511346
sg28
F0.031008439160247248
saF-457.8754008157439
aa(lp95
(dp96
g3
I112
sg4
F0.8793597776417179
sg5
F0.4598409708364442
sg6
F0.5152115130284775
sg7
F4.6086371186840305
sg8
F0.08008790870064592
sg9
F0.006300291503677169
saF-462.7921690816736
aa(lp97
(dp98
g3
I61
sg4
F0.566947347884552
sg5
F0.4598409708364442
sg6
F0.5291464459572062
sg7
F1.8747627665687023
sg8
F0.034000225627416024
sg9
F0.020465109975122853
saF-464.8103515979951
aa(lp99
(dp100
g22
I117
sg23
F0.9166740572055467
sg24
F0.1163549090719076
sg25
F0.7064125761477504
sg26
F3.000634885448808
sg27
F0.11531345338669169
sg28
F0.049473772756485485
saF-466.03411513068363
aa(lp101
(dp102
g3
I117
sg4
F0.9583370286027734
sg5
F0.1163549090719076
sg6
F0.7064125761477504
sg7
F3.077819571425787
sg8
F0.11531345338669169
sg9
F0.049473772756485485
saF-479.81987062984945
aa(lp103
(dp104
g3
I128
sg4
F0.67237413982734
sg5
F0.02843071876411618
sg6
F0.014255108558067109
sg7
F3.4194229920410564
sg8
F0.048872804951572604
sg9
F0.163063277798804
saF-480.4896365696235
aa(lp105
(dp106
g3
I88
sg4
F0.9527369482328248
sg5
F0.4598409708364442
sg6
F0.0783814679670829
sg7
F3.9913995344679574
sg8
F0.034000225627416024
sg9
F0.02346765293438846
saF-491.5661889508169
aa(lp107
(dp108
g22
I112
sg23
F0.6186198909790674
sg24
F0.02843071876411618
sg25
F0.26612804553845215
sg26
F3.654858035532247
sg27
F0.06987820258692523
sg28
F0.0036332301103510823
saF-500.4130261284478
aa(lp109
(dp110
g22
I138
sg23
F1.0
sg24
F0.21379098323168894
sg25
F0.8539145172588957
sg26
F3.155004257402766
sg27
F0.12202539370224737
sg28
F0.010580732328964705
saF-504.33004195689523
aa(lp111
(dp112
g3
I82
sg4
F0.5760305610039516
sg5
F0.27340217866474414
sg6
F0.5291464459572062
sg7
F3.757626982021734
sg8
F0.034000225627416024
sg9
F0.010580732328964705
saF-505.2794930073617
aa(lp113
(dp114
g22
I15
sg23
F0.9891536343594272
sg24
F0.19642238036673237
sg25
F0.7291731536136409
sg26
F4.986856741528232
sg27
F0.09440244016750501
sg28
F0.10091203350227365
saF-507.0216319499332
aa(lp115
(dp116
g3
I125
sg4
F1.0
sg5
F0.2643857983586441
sg6
F0.26612804553845215
sg7
F3.064698591289237
sg8
F0.09595179814458629
sg9
F0.0071069812196578935
saF-467.25794871912717
aa(lp117
(dp118
g3
I117
sg4
F0.8420173674527895
sg5
F0.08157626544638863
sg6
F0.5339683830364781
sg7
F3.399017262655849
sg8
F0.09163911232638172
sg9
F0.11295796320149824
saF-526.7820722741435
aa(lp119
(dp120
g3
I61
sg4
F0.8420173674527895
sg5
F0.15049807928478626
sg6
F0.7064125761477504
sg7
F4.4262259595024425
sg8
F0.10564970470057258
sg9
F0.049473772756485485
saF-803.0993099113325
aa(lp121
(dp122
g3
I28
sg4
F0.8420173674527895
sg5
F0.2195031972520174
sg6
F0.8041931494337211
sg7
F4.004270143097491
sg8
F0.11531345338669169
sg9
F0.03256176685752084
saF-177.44057045858483
aa(lp123
(dp124
g3
I28
sg4
F1.0
sg5
F0.21379098323168894
sg6
F0.8539145172588957
sg7
F3.6994095288618105
sg8
F0.1520688686881216
sg9
F0.013115246643760448
saF-463.6745209696825
aa(lp125
(dp126
g3
I32
sg4
F0.8287847302231581
sg5
F0.18222241222717261
sg6
F0.506949507381251
sg7
F4.243814800320855
sg8
F0.16871710005551727
sg9
F0.011831340845840876
saF-533.5176932282728
aa(lp127
(dp128
g3
I28
sg4
F0.7418107025450493
sg5
F0.1163549090719076
sg6
F0.7064125761477504
sg7
F4.482932268929117
sg8
F0.18211234367399587
sg9
F0.01564976095855619
saF-267.1397464083682
aa(lp129
(dp130
g3
I89
sg4
F0.566947347884552
sg5
F0.2880979399541759
sg6
F0.5291464459572062
sg7
F1.5387684195165643
sg8
F0.11531345338669169
sg9
F0.049473772756485485
saF-731.1627542362446
aa(lp131
(dp132
g3
I104
sg4
F1.0
sg5
F0.1613550015667018
sg6
F0.4172446145890353
sg7
F1.8747627665687023
sg8
F0.08276421862423103
sg9
F0.0036332301103510823
saF-597.390352555313
aa(lp133
(dp134
g3
I20
sg4
F0.8287847302231581
sg5
F0.004384231381176662
sg6
F0.46074176854112514
sg7
F4.441933927150204
sg8
F0.18211234367399587
sg9
F0.07600174707765138
saF-206.92859702485407
aa(lp135
(dp136
g3
I86
sg4
F0.566947347884552
sg5
F0.4598409708364442
sg6
F0.5291464459572062
sg7
F1.8747627665687023
sg8
F0.034000225627416024
sg9
F0.0036332301103510823
saF-620.483671865249
aa(lp137
(dp138
g3
I24
sg4
F0.7778530427937052
sg5
F0.00843053553931547
sg6
F0.7660318995221681
sg7
F3.594669561565614
sg8
F0.14587048972138014
sg9
F0.09869402167414901
saF-753.2631407564231
aa(lp139
(dp140
g3
I20
sg4
F0.67237413982734
sg5
F0.004384231381176662
sg6
F0.014255108558067109
sg7
F3.656063796894655
sg8
F0.048872804951572604
sg9
F0.13635373319674657
saF-527.9518506383353
aa(lp141
(dp142
g3
I30
sg4
F0.8715885476673686
sg5
F0.1163549090719076
sg6
F0.5961104696796222
sg7
F4.243814800320855
sg8
F0.1553218564370387
sg9
F0.013740550902198534
saF-380.29647939072686
aa(lp143
(dp144
g3
I117
sg4
F0.566947347884552
sg5
F0.2880979399541759
sg6
F0.5291464459572062
sg7
F4.482932268929117
sg8
F0.034000225627416024
sg9
F0.02346765293438846
saF-535.4460963089716
aa(lp145
(dp146
g3
I112
sg4
F0.654028078590676
sg5
F0.09588032033058574
sg6
F0.5012765800997487
sg7
F4.243814800320855
sg8
F0.1553218564370387
sg9
F0.007156606118401365
saF-270.7604526840138
aa(lp147
(dp148
g3
I112
sg4
F0.8793597776417179
sg5
F0.14824398420826126
sg6
F0.7064125761477504
sg7
F4.33636679791546
sg8
F0.06895107441710631
sg9
F0.014883972219032815
saF-74.83473047280984
aa(lp149
(dp150
g3
I28
sg4
F0.9143923651115791
sg5
F0.16348710121220383
sg6
F0.782110601771826
sg7
F4.6174890264365045
sg8
F0.14587048972138014
sg9
F0.01564976095855619
saF-526.87621747035
aa(lp151
(dp152
g3
I117
sg4
F0.7545531696448182
sg5
F0.06036957022654213
sg6
F0.458585178482942
sg7
F4.991163252552154
sg8
F0.034000225627416024
sg9
F0.02346765293438846
saF-493.8815192420533
aa(lp153
(dp154
g3
I29
sg4
F0.9143923651115791
sg5
F0.14666030142976405
sg6
F0.6037886771750836
sg7
F4.397195728501364
sg8
F0.16399141669768802
sg9
F0.02813666945822468
saF-219.08289814706893
aa(lp155
(dp156
g3
I117
sg4
F0.7418107025450493
sg5
F0.08157626544638863
sg6
F0.7064125761477504
sg7
F3.2728096297294
sg8
F0.06796477126607177
sg9
F0.176442153646511
saF-684.7452420192951
aa(lp157
(dp158
g3
I67
sg4
F0.9210086837263948
sg5
F0.314738542622857
sg6
F0.7727178808277886
sg7
F4.262727340511444
sg8
F0.06895107441710631
sg9
F0.021381986651998842
saF-611.5937949725314
aa(lp159
(dp160
g3
I112
sg4
F0.7231535627631349
sg5
F0.27127114017173615
sg6
F0.5664675615661449
sg7
F3.5895422586803223
sg8
F0.08600828868409896
sg9
F0.06559739495723015
saF-856.6407519399686
aa(lp161
(dp162
g3
I117
sg4
F0.9166740572055467
sg5
F0.1163549090719076
sg6
F0.7064125761477504
sg7
F3.4960172099583824
sg8
F0.034000225627416024
sg9
F0.03647071284543697
saF-306.12915387079374
aa(lp163
(dp164
g3
I20
sg4
F0.8420173674527895
sg5
F0.10611761470124667
sg6
F0.35947890663371185
sg7
F4.243814800320855
sg8
F0.11531345338669169
sg9
F0.027887032130081327
saF-253.70839542525664
aa(lp165
(dp166
g3
I138
sg4
F1.0
sg5
F0.15483565178113734
sg6
F0.6066967119463038
sg7
F3.155004257402766
sg8
F0.100501097796824
sg9
F0.006300291503677169
saF-595.1093377145025
aa(lp167
(dp168
g3
I138
sg4
F1.0
sg5
F0.21379098323168894
sg6
F0.9158224939974634
sg7
F3.155004257402766
sg8
F0.100501097796824
sg9
F0.006300291503677169
saF-707.9739660704355
aa(lp169
(dp170
g3
I57
sg4
F1.0
sg5
F0.23282061714488014
sg6
F0.8578086273959015
sg7
F1.3018010513269362
sg8
F0.10962863576876443
sg9
F0.01564976095855619
saF-836.0241551284716
aa(lp171
(dp172
g3
I113
sg4
F0.8093099454895337
sg5
F0.02843071876411618
sg6
F0.4172446145890353
sg7
F3.654858035532247
sg8
F0.04632922648121829
sg9
F0.0036332301103510823
saF-480.4426087678072
aa(lp173
(dp174
g3
I29
sg4
F0.8793597776417179
sg5
F0.33523013209447217
sg6
F0.7034402932923036
sg7
F4.991163252552154
sg8
F0.11297919921101303
sg9
F0.006300291503677169
saF-43.07944163099546
aa(lp175
(dp176
g3
I114
sg4
F1.0
sg5
F0.40660624121555594
sg6
F0.5683611836396184
sg7
F3.432963009560428
sg8
F0.18211234367399587
sg9
F0.023329100059401718
saF-399.0461000337084
aa(lp177
(dp178
g3
I23
sg4
F1.0
sg5
F0.08157626544638863
sg6
F0.8578086273959015
sg7
F2.554219724990842
sg8
F0.06796477126607177
sg9
F0.176442153646511
saF-719.2487122634593
aa(lp179
(dp180
g3
I76
sg4
F0.9235359475750197
sg5
F0.2643857983586441
sg6
F0.29673115738347955
sg7
F4.6086371186840305
sg8
F0.022780250375511346
sg9
F0.031008439160247248
saF-684.2838024941079
aa(lp181
(dp182
g3
I23
sg4
F0.9210086837263948
sg5
F0.40660624121555594
sg6
F0.7064125761477504
sg7
F1.8747627665687023
sg8
F0.10275137656926278
sg9
F0.018654365331962207
saF-818.9552580697612
aa(lp183
(dp184
g3
I112
sg4
F0.8615767813815675
sg5
F0.36211338459754416
sg6
F0.26612804553845215
sg7
F2.9743929251757084
sg8
F0.08008790870064592
sg9
F0.006300291503677169
saF52.053344733879385
aa(lp185
(dp186
g3
I112
sg4
F0.8793597776417179
sg5
F0.40533754273973244
sg6
F0.47976209466196823
sg7
F4.466002460789552
sg8
F0.08008790870064592
sg9
F0.008602226334329393
saF-85.77839731945267
aa(lp187
(dp188
g3
I15
sg4
F0.8654821684522382
sg5
F0.3341831429533306
sg6
F0.7177928648806957
sg7
F3.9913995344679574
sg8
F0.034000225627416024
sg9
F0.02346765293438846
saF-303.67660110856093
aa(lp189
(dp190
g3
I23
sg4
F0.9605043418631973
sg5
F0.21379098323168894
sg6
F0.7064125761477504
sg7
F3.708865798957105
sg8
F0.1438620790523579
sg9
F0.010580732328964705
saF-242.77410270423798
aa(lp191
(dp192
g3
I88
sg4
F0.9527369482328248
sg5
F0.31065292186054855
sg6
F0.8578086273959015
sg7
F4.974465003390277
sg8
F0.18046995572594687
sg9
F0.02922875473915403
saF-652.3172940779993
aa(lp193
(dp194
g3
I62
sg4
F0.7672956367445872
sg5
F0.2942792843692874
sg6
F0.5683611836396184
sg7
F3.432963009560428
sg8
F0.18211234367399587
sg9
F0.07840942158593471
saF-886.9777194726482
aa(lp195
(dp196
g3
I117
sg4
F0.9527369482328248
sg5
F0.2880979399541759
sg6
F0.0783814679670829
sg7
F3.4960172099583824
sg8
F0.11531345338669169
sg9
F0.049473772756485485
saF-572.7998691576346
aa(lp197
(dp198
g3
I82
sg4
F0.9527369482328248
sg5
F0.4598409708364442
sg6
F0.649882477024476
sg7
F4.395649860043025
sg8
F0.034000225627416024
sg9
F0.01564976095855619
saF-731.0332679009514
aa(lp199
(dp200
g3
I66
sg4
F0.9891536343594272
sg5
F0.1163549090719076
sg6
F0.7177928648806957
sg7
F4.032338156477009
sg8
F0.11531345338669169
sg9
F0.10091203350227365
saF-901.4585676339739
aa(lp201
(dp202
g3
I112
sg4
F0.8420173674527895
sg5
F0.2643857983586441
sg6
F0.26612804553845215
sg7
F4.243814800320855
sg8
F0.09259582798680846
sg9
F0.049473772756485485
saF-700.7185858432874
aa(lp203
(dp204
g3
I103
sg4
F1.0
sg5
F0.2195031972520174
sg6
F0.9019737227196918
sg7
F4.6086371186840305
sg8
F0.10962863576876443
sg9
F0.013115246643760448
saF-472.744142823278
aa(lp205
(dp206
g3
I97
sg4
F0.9763684741164125
sg5
F0.388485226576217
sg6
F0.35947890663371185
sg7
F4.86772569565683
sg8
F0.10313558071462142
sg9
F0.030731056925857037
saF-443.6465950160857
aa(lp207
(dp208
g3
I28
sg4
F1.0
sg5
F0.15769175879130157
sg6
F0.6307263146767018
sg7
F3.764725485874126
sg8
F0.10506486678279421
sg9
F0.01097502623111668
saF-298.95498771157645
aa(lp209
(dp210
g3
I20
sg4
F0.9891536343594272
sg5
F0.1163549090719076
sg6
F0.7177928648806957
sg7
F4.243814800320855
sg8
F0.11531345338669169
sg9
F0.07519290312937957
saF-352.6044923927932
aa(lp211
(dp212
g3
I61
sg4
F0.7406698564980656
sg5
F0.1163549090719076
sg6
F0.5291464459572062
sg7
F4.243814800320855
sg8
F0.10805628465070595
sg9
F0.018057435466839522
saF-775.9861773348218
aa(lp213
(dp214
g3
I117
sg4
F0.8105852400933836
sg5
F0.1163549090719076
sg6
F0.7727178808277886
sg7
F4.33636679791546
sg8
F0.034000225627416024
sg9
F0.006300291503677169
saF-576.8659582533537
aa.