(lp0
(lp1
(dp2
S'winnings'
p3
(lp4
F-516.3594368325209
aF-469.6218856739431
aF-460.4641426513049
aF-423.00991024045106
aF-312.2678985032875
aF-312.1341884692714
aF-311.4280554757696
aF-310.5189068316438
aF-245.9175236492564
aF-238.47286805318583
aF-139.02739318103
aF99.56429284386536
aF103.8522328193792
aF300.99146833656323
aF340.3007088254549
aF417.13410318974593
aF845.9494254238787
asS'end_weight'
p5
F1.0
sS'close_match_threshold'
p6
F0.16048919821959207
sS'history_in_matches'
p7
I121
sS'start_weight'
p8
F0.6244357995349018
sS'over_power_threshold'
p9
F4.069598289826471
sS'over_power_extra'
p10
F0.009455573713152665
sS'close_match_trim'
p11
F0.23758932484925244
saF-3115.804424678193
aa(lp12
(dp13
g3
(lp14
F-545.9048079343147
aF-466.9807173129867
aF-437.06261029330415
aF-334.6823122786094
aF-325.4719649127146
aF-308.3792861633491
aF-300.66710481711493
aF-291.8325929176135
aF-281.31195653229213
aF-249.27687319889742
aF-237.3848147190431
aF-24.164341658537523
aF55.31544131473902
aF97.46545602938818
aF171.568751828391
aF262.7478293152342
aF918.0315791826433
asg5
F0.8952895701855794
sg6
F0.05358973310125342
sg7
I31
sg8
F0.5428984825028906
sg9
F4.280592742229867
sg10
F0.052868949161789795
sg11
F0.24888728085606285
saF-3010.981396630007
aa(lp15
(dp16
g3
(lp17
F-511.90646488287024
aF-480.8146516478172
aF-405.53604847232805
aF-399.8680038779538
aF-363.82171808147984
aF-361.68440058659314
aF-327.2409703582023
aF-320.70695618021466
aF-296.10315201958906
aF-137.2619986360752
aF-80.64679063931521
aF-34.41684158352382
aF67.2351848231981
aF239.4180556450026
aF441.7178274555815
aF718.079178598422
aF808.8884255332684
asg5
F0.9449415190087045
sg6
F0.12938922363697236
sg7
I116
sg8
F0.6092681342508534
sg9
F3.9469401192211104
sg10
F0.06979528032867831
sg11
F0.37601052723004186
saF-3171.579214087459
aa(lp18
(dp19
g3
(lp20
F-587.331406226972
aF-539.5563253382537
aF-498.6184739866405
aF-458.05906058291396
aF-447.7899153105767
aF-319.9035054356841
aF-311.3964999015212
aF-235.95292771536094
aF-233.3365635287945
aF-162.79325985922787
aF84.7789574984447
aF102.49674863176256
aF237.03575871627436
aF240.87196684018886
aF265.31041002707
aF319.605032500536
aF363.6151243797774
asg5
F0.725029519034887
sg6
F0.1662698577165092
sg7
I137
sg8
F0.16242858675736926
sg9
F4.804938450556942
sg10
F0.14020029485541788
sg11
F0.3605014508683242
saF-3398.6081144979235
aa.