(lp0
(lp1
(dp2
S'winnings'
p3
(lp4
F-638.6395191900435
aF-599.4103295865696
aF-586.3754606312505
aF-495.1519160747638
aF-473.7471954573176
aF-473.1415874331366
aF-396.1555736258565
aF-331.8897457647847
aF-323.98277751785724
aF-286.22274492036877
aF-212.80162159545137
aF-150.15182850324072
aF25.734883075517473
aF77.19511640411997
aF174.28723177580355
aF242.2036429239397
aF1021.84243504459
asS'common_1X2_match_percentages_end_weight'
p5
F0.9250596458298659
sS'minimum_away_team_away_matches_count'
p6
I16
sS'away_team_away_match_weight'
p7
F0.2200028965384192
sS'common_1X2_match_weight'
p8
F0.025004072991610782
sS'minimum_away_team_matches_count'
p9
I2
sS'home_team_home_match_percentages_history_length_in_matches'
p10
I149
sS'close_match_threshold'
p11
F1.9396674691122868
sS'away_team_match_percentages_history_length_in_matches'
p12
I70
sS'common_1X2_match_percentages_history_length_in_matches'
p13
I95
sS'close_match_multiplier'
p14
F0.3493876424282826
sS'minimum_home_team_matches_count'
p15
I11
sS'close_match_extra'
p16
I0
sS'home_team_home_match_weight'
p17
F0.13239569188770417
sS'away_team_match_percentages_start_weight'
p18
F0.004796953261852477
sS'home_team_match_percentages_end_weight'
p19
F0.9874609592272382
sS'over_power_multiplier'
p20
F0.6423185680050782
sS'minimum_home_team_home_matches_count'
p21
I15
sS'home_team_match_weight'
p22
F0.9768745743260534
sS'home_team_home_match_percentages_end_weight'
p23
F0.619732346356879
sS'home_team_match_percentages_start_weight'
p24
F0.5074297666143466
sS'away_team_match_weight'
p25
F0.8154178355122368
sS'common_1X2_match_percentages_start_weight'
p26
F0.2331233879725939
sS'away_team_away_match_percentages_end_weight'
p27
F0.8993229896471754
sS'home_team_home_match_percentages_start_weight'
p28
F0.5521619841729893
sS'away_team_away_match_percentages_start_weight'
p29
F0.8950749814680483
sS'away_team_match_percentages_end_weight'
p30
F0.8675815731445164
sS'over_power_threshold'
p31
F1.0798552980294454
sS'away_team_away_match_percentages_history_length_in_matches'
p32
I118
sS'home_team_match_percentages_history_length_in_matches'
p33
I118
saF-3994.511327763723
aa(lp34
(dp35
g3
(lp36
F-661.9251376528291
aF-618.0504403310889
aF-598.6269708341933
aF-577.640179470561
aF-466.45297542878507
aF-460.513587950232
aF-451.0477019829531
aF-419.5384296570563
aF-417.75671233986884
aF-347.5115086818581
aF-318.6081954166899
aF-234.20423694276667
aF-226.20132511212432
aF-131.73603962389905
aF-106.60211868521037
aF-56.81428428898755
aF172.72197983551564
asg5
F0.6178643370454187
sg6
I10
sg7
F0.5938613538382302
sg8
F0.6347562740351352
sg9
I12
sg10
I132
sg11
F1.982339675959362
sg12
I67
sg13
I100
sg14
F0.9332649239662518
sg15
I10
sg16
I9
sg17
F0.4751146965980956
sg18
F0.4378100456488855
sg19
F0.9508185970649141
sg20
F0.6304902871654077
sg21
I20
sg22
F0.910378347439707
sg23
F0.7725367949647908
sg24
F0.5450164872462856
sg25
F0.43906846208813033
sg26
F0.5131118249942777
sg27
F0.5988694147010659
sg28
F0.47695588366688313
sg29
F0.3973838730484077
sg30
F0.9849665402341986
sg31
F2.750890155691242
sg32
I51
sg33
I122
saF-4253.795423307699
aa(lp37
(dp38
g3
(lp39
F-526.1595362151771
aF-516.0331263109929
aF-482.54011357882735
aF-460.6110319317687
aF-353.23601381913
aF-349.66942240921287
aF-325.1120709669026
aF-291.18935022997914
aF-215.70373992805992
aF-118.56824179296711
aF-86.78213420669374
aF-41.162711802924605
aF68.05743100572818
aF103.1085217489624
aF133.76462187868628
aF361.9271330587003
aF552.726608137327
asg5
F0.7636493729766767
sg6
I20
sg7
F0.4678105030598996
sg8
F0.007687845835726237
sg9
I20
sg10
I57
sg11
F1.2701071569196685
sg12
I47
sg13
I107
sg14
F0.13843055733984921
sg15
I5
sg16
I2
sg17
F0.25739385354768385
sg18
F0.34162909351318915
sg19
F0.8456466408652454
sg20
F0.9939034405853423
sg21
I16
sg22
F0.1081393887466463
sg23
F0.55364815680702
sg24
F0.3342899523893832
sg25
F0.6817948407523441
sg26
F0.7563990780339366
sg27
F0.7510066462757397
sg28
F0.003240077961453647
sg29
F0.5684797698634223
sg30
F0.5154192767719491
sg31
F2.3854108424499434
sg32
I58
sg33
I93
saF-3304.5506654619903
aa(lp40
(dp41
g3
(lp42
F-575.1962599418789
aF-543.3666969687742
aF-536.4480596058365
aF-507.6522845852884
aF-505.33462724111956
aF-467.5804555064558
aF-436.32209890912395
aF-368.18746218912054
aF-320.0966218653192
aF-316.93034449841036
aF-250.77756537353002
aF-215.64212334714637
aF-207.40499243860916
aF-88.75790586817527
aF2.910740515257885
aF10.177451030013344
aF291.3555014479448
asg5
F0.7160581716357464
sg6
I11
sg7
F0.645268382036135
sg8
F0.03100551190579004
sg9
I3
sg10
I105
sg11
F1.6930386351681244
sg12
I103
sg13
I99
sg14
F0.8061430053283177
sg15
I6
sg16
I6
sg17
F0.36257351950178596
sg18
F0.39841797945671287
sg19
F0.8750080842060083
sg20
F0.5560387068056999
sg21
I14
sg22
F0.8689620397068579
sg23
F0.9385262726944599
sg24
F0.2309388953650815
sg25
F0.1524891413354572
sg26
F0.813356705027499
sg27
F0.914799834449725
sg28
F0.004379353072175185
sg29
F0.8671326481264915
sg30
F0.7394198277040032
sg31
F3.767500568878444
sg32
I33
sg33
I72
saF-3940.0879449475983
aa.