(lp0
(lp1
(dp2
S'history_in_weeks'
p3
I68
sS'winnings'
p4
(lp5
F-591.6601563933807
aF-523.4032966191112
aF-411.7211119805853
aF-393.1689053636661
aF-368.24015924590617
aF-315.9088396867785
aF-306.63411259375016
aF-225.783124037864
aF-225.4191110869649
aF-192.87596266631454
aF-175.966378172566
aF-162.05736585528336
aF45.556415500326466
aF55.37853565376827
aF166.45405745612766
aF204.65562183624093
aF235.79788548522674
asS'end_weight'
p6
F0.6811930188313452
sS'close_match_threshold'
p7
F0.37810102875868656
sS'start_weight'
p8
F0.20250020389227374
sS'over_power_threshold'
p9
F1.0729489138153514
sS'over_power_extra'
p10
F0.1082126441537955
sS'close_match_trim'
p11
F0.005797280399382255
saF-3136.5197059210423
aa(lp12
(dp13
g3
I115
sg4
(lp14
F-562.5934919208795
aF-519.9441816775469
aF-509.0089630118947
aF-460.5871222675802
aF-449.9586006001589
aF-425.2104218272218
aF-363.6820863098734
aF-353.87417504653956
aF-320.7529096521987
aF-174.94754821071115
aF-155.14402773840595
aF-86.10299515170664
aF117.85331328849065
aF188.86934918026418
aF214.4583760414646
aF231.7113271189121
aF790.5206775273052
asg6
F0.8559417608100026
sg7
F0.2678871045976037
sg8
F0.5585468146319439
sg9
F2.3578398541927577
sg10
F0.03224237891840636
sg11
F0.19168533907634577
saF-3644.8590426616943
aa(lp15
(dp16
g3
I97
sg4
(lp17
F-556.9772466720565
aF-551.8406277000769
aF-551.4684604925977
aF-528.9775216876179
aF-513.967825299389
aF-453.0190678449321
aF-394.6917005913057
aF-317.4419131250121
aF-278.21738356522667
aF-173.07689168149955
aF-145.58534112117786
aF-119.59709967159074
aF70.16848877478674
aF70.94720815192636
aF387.5569798242284
aF400.7821945335527
aF973.9194590337356
asg6
F0.6873771682167302
sg7
F0.10948316584057516
sg8
F0.006260057196832425
sg9
F3.4138079558808236
sg10
F0.049529318879453804
sg11
F0.3353160575523872
saF-3868.3843634129876
aa(lp18
(dp19
g3
I51
sg4
(lp20
F-497.53345616310355
aF-481.79592791072764
aF-443.28379964847545
aF-378.12836699844365
aF-340.4122236211749
aF-339.5357096214366
aF-314.78392143400845
aF-305.7380700867549
aF-300.75074734022394
aF-203.01116753249892
aF-197.2231416603213
aF-169.31307067111072
aF-149.98469491096375
aF117.63703950987656
aF210.62184352245163
aF541.0871326594818
aF1023.8431923930116
asg6
F0.693547984819195
sg7
F0.12288034511952661
sg8
F0.2712352776650572
sg9
F2.0802901091125277
sg10
F0.0645609147790402
sg11
F0.37976556815876955
saF-3101.2114754841245
aa.