(lp0
(lp1
(dp2
S'winnings'
p3
(lp4
F-382.31149444553864
aF-275.7204069624107
aF-262.4854558424955
aF-230.02218184209073
aF-17.38330130878751
aF14.916377836221727
aF19.82207915258971
aF37.18716438538695
aF45.9872196957549
aF87.72468209515682
aF108.26024207711566
aF124.06323031613351
aF148.55777795225936
aF155.65732969680312
aF169.24302715769318
aF252.6249708186765
aF300.68597141032956
asS'common_1X2_match_percentages_end_weight'
p5
F0.7132425668970639
sS'minimum_away_team_away_matches_count'
p6
I19
sS'away_team_away_match_weight'
p7
F0.36188296815291227
sS'common_1X2_match_weight'
p8
F0.7028697642211763
sS'minimum_away_team_matches_count'
p9
I17
sS'home_team_home_match_percentages_history_length_in_matches'
p10
I98
sS'close_match_threshold'
p11
F1.1111978177552517
sS'away_team_match_percentages_history_length_in_matches'
p12
I81
sS'common_1X2_match_percentages_history_length_in_matches'
p13
I45
sS'close_match_multiplier'
p14
F0.5041494792895649
sS'minimum_home_team_matches_count'
p15
I18
sS'close_match_extra'
p16
I1
sS'home_team_home_match_weight'
p17
F0.7896340415770771
sS'away_team_match_percentages_start_weight'
p18
F0.5322318207571214
sS'home_team_match_percentages_end_weight'
p19
F0.870586185183454
sS'over_power_multiplier'
p20
F0.07838154932064452
sS'minimum_home_team_home_matches_count'
p21
I23
sS'home_team_match_weight'
p22
F0.5392930266682557
sS'home_team_home_match_percentages_end_weight'
p23
F0.8816589836373758
sS'home_team_match_percentages_start_weight'
p24
F0.5334022726978771
sS'away_team_match_weight'
p25
F0.4472061961240711
sS'common_1X2_match_percentages_start_weight'
p26
F0.41979757112771376
sS'away_team_away_match_percentages_end_weight'
p27
F0.8775303789224074
sS'home_team_home_match_percentages_start_weight'
p28
F0.49052162792996806
sS'away_team_away_match_percentages_start_weight'
p29
F0.10073958943680704
sS'away_team_match_percentages_end_weight'
p30
F0.9704970147014041
sS'over_power_threshold'
p31
F1.6397741277509699
sS'away_team_away_match_percentages_history_length_in_matches'
p32
I97
sS'home_team_match_percentages_history_length_in_matches'
p33
I33
saF-1095.9972190271246
aa(lp34
(dp35
g3
(lp36
F-366.6039007569709
aF-365.86362379921775
aF-296.9585832927073
aF-60.612236732995484
aF-50.56994927698179
aF-20.98817698931964
aF9.061651184913558
aF10.966754946319611
aF11.733151685750727
aF30.734351216926598
aF67.06326355060196
aF77.37643008822533
aF176.5408126089303
aF238.58542429492013
aF271.23664549371233
aF317.4946262815845
aF410.66928744628626
asg5
F0.6412883135905258
sg6
I18
sg7
F0.3590412765091403
sg8
F0.7352810102188967
sg9
I19
sg10
I91
sg11
F1.104466364136162
sg12
I82
sg13
I53
sg14
F0.45818714141602007
sg15
I15
sg16
I1
sg17
F0.7619989443891473
sg18
F0.582551146443525
sg19
F0.8262595089240734
sg20
F0.08196441117443515
sg21
I23
sg22
F0.5711497750201417
sg23
F1.0
sg24
F0.6031299517268706
sg25
F0.39622475116674327
sg26
F0.6990929890360544
sg27
F0.9158879444353858
sg28
F0.7957830451685968
sg29
F0.17386380878779176
sg30
F0.834702795676652
sg31
F1.637258843290649
sg32
I87
sg33
I35
saF-1141.5680647169597
aa(lp37
(dp38
g3
(lp39
F-335.5856500317642
aF-215.26916774500967
aF-169.50256037094414
aF-159.5573148958572
aF-112.76951691012084
aF-87.11918110897989
aF-84.14927578035781
aF-38.379747593085995
aF-31.854403703586968
aF-9.100845999750504
aF21.7170378046103
aF125.6306880108391
aF144.62406190875413
aF220.6322895411754
aF323.06215785471863
aF352.6832465144844
aF488.1659634095479
asg5
F0.6899428372061905
sg6
I20
sg7
F0.2968053195761058
sg8
F0.7823139738515761
sg9
I15
sg10
I93
sg11
F1.108352218751957
sg12
I82
sg13
I54
sg14
F0.5900456135395613
sg15
I10
sg16
I1
sg17
F0.7776275343834442
sg18
F0.5059038101705354
sg19
F1.0
sg20
F0.08200893156280195
sg21
I21
sg22
F0.5475814957902806
sg23
F0.8424850337054195
sg24
F0.4716861312602998
sg25
F0.366014711743997
sg26
F0.6856820379185061
sg27
F0.8132960344369078
sg28
F0.4482710518743985
sg29
F0.10890049558453263
sg30
F0.9522959198858051
sg31
F1.6422894122112912
sg32
I128
sg33
I32
saF-1202.3324144361197
aa(lp40
(dp41
g3
(lp42
F-343.3284449548744
aF-239.47417906540602
aF-200.04999350347703
aF-133.97698744131299
aF-120.34728584542006
aF-70.40813094958276
aF-58.30673726454461
aF-39.31628394136351
aF41.28555949203974
aF43.75475302421569
aF97.90296185321881
aF132.60402118753882
aF229.2102117479924
aF238.80360560098006
aF269.3563970631776
aF381.830069627566
aF475.038628072032
asg5
F0.7132425668970639
sg6
I19
sg7
F0.3131955944962995
sg8
F0.7028697642211763
sg9
I23
sg10
I91
sg11
F1.108352218751957
sg12
I81
sg13
I48
sg14
F0.6635820758435319
sg15
I23
sg16
I1
sg17
F0.7383606107385544
sg18
F0.5059038101705354
sg19
F0.8135932576365255
sg20
F0.09225805862117753
sg21
I16
sg22
F0.5191787523335687
sg23
F0.9176497463826391
sg24
F0.5661201804687688
sg25
F0.36164279339710487
sg26
F0.6756509009946641
sg27
F0.9224107750349886
sg28
F0.3245590681695596
sg29
F0.14564904042693883
sg30
F0.9587071956446769
sg31
F1.6246824209890431
sg32
I97
sg33
I33
saF-1205.2080429659813
aa(lp43
(dp44
g3
(lp45
F-398.3877387136141
aF-330.2664924079396
aF-158.9077104715152
aF-117.1675514287283
aF-88.77126531885096
aF-51.494794890117305
aF-48.40656276906907
aF-16.622702294776104
aF64.10469354363818
aF87.22259295473737
aF119.29190437929651
aF134.79391764441493
aF159.4228503586546
aF252.68137262191885
aF298.3956573210826
aF544.4786297756427
aF620.3022944306945
asg5
F0.8658387573855066
sg6
I24
sg7
F0.29399814314935846
sg8
F0.7338184038239296
sg9
I16
sg10
I95
sg11
F1.10339426982635
sg12
I83
sg13
I47
sg14
F0.6058596711490739
sg15
I32
sg16
I1
sg17
F0.8988443572478264
sg18
F0.5666773392680862
sg19
F0.963939651452487
sg20
F0.07865138433469351
sg21
I20
sg22
F0.6240500853295671
sg23
F0.9297133359730125
sg24
F0.48840598151043646
sg25
F0.35199614700843085
sg26
F0.8280078388021838
sg27
F0.8820626935810691
sg28
F0.6128367718623621
sg29
F0.11157140774747673
sg30
F0.8548058137795377
sg31
F1.630970632139846
sg32
I91
sg33
I32
saF-1210.0248182946107
aa(lp46
(dp47
g3
(lp48
F-325.04739159781434
aF-256.0280557510539
aF-253.87659472903704
aF-213.07293858509752
aF-80.46607240663866
aF-45.98516862440806
aF-37.57992728101135
aF-29.261083364541378
aF-17.71594607410907
aF-12.398527300713681
aF36.0905759956936
aF137.57541881082875
aF159.19297542906565
aF243.88167675198247
aF282.14887638831465
aF310.03489280453164
aF358.6111153834113
asg5
F0.6798004771598547
sg6
I16
sg7
F0.2017888128026838
sg8
F0.7679591848922425
sg9
I21
sg10
I97
sg11
F1.1097750182536044
sg12
I82
sg13
I49
sg14
F0.6187024416379596
sg15
I24
sg16
I1
sg17
F0.7747547242513961
sg18
F0.5666773392680862
sg19
F0.8561605334355387
sg20
F0.07533835749495188
sg21
I18
sg22
F0.540038642914773
sg23
F1.0
sg24
F0.5656777725500489
sg25
F0.40814147595351846
sg26
F0.7274326158468966
sg27
F0.8075427649122617
sg28
F0.5933248773260009
sg29
F0.16990199170637274
sg30
F0.9427400846429546
sg31
F1.630970632139846
sg32
I114
sg33
I35
saF-1241.317232339602
aa(lp49
(dp50
g3
(lp51
F-381.77889477056783
aF-377.877009334034
aF-194.8438151819198
aF-132.78585134679963
aF-113.0417204481272
aF-64.62725985958707
aF-15.584388978921424
aF27.365439403071605
aF92.40569128005404
aF101.09816696017629
aF125.87825302672013
aF170.16087605137363
aF248.0280018936162
aF351.6798242786367
aF414.5106412953771
aF586.1893187577634
aF593.7096916299906
asg5
F0.7132425668970639
sg6
I19
sg7
F0.24101816531848386
sg8
F0.7028697642211763
sg9
I25
sg10
I95
sg11
F1.1040392860447839
sg12
I81
sg13
I48
sg14
F0.4583358415064171
sg15
I23
sg16
I1
sg17
F0.7234533182806493
sg18
F0.6963281954239834
sg19
F0.8135932576365255
sg20
F0.07683494164138471
sg21
I16
sg22
F0.5594073010029428
sg23
F0.9176497463826391
sg24
F0.5661201804687688
sg25
F0.36164279339710487
sg26
F0.6372801372599798
sg27
F0.8800721776401284
sg28
F0.3245590681695596
sg29
F0.1797266731064009
sg30
F0.9302369428070971
sg31
F1.6246824209890431
sg32
I102
sg33
I33
saF-1253.1735005168853
aa(lp52
(dp53
g3
(lp54
F-334.9723565229639
aF-273.92130417582575
aF-188.44456138184069
aF-176.3746051786511
aF-150.5189663128134
aF-58.555947220079815
aF-49.73331933189547
aF-20.896945611098545
aF-4.895950184582603
aF13.029124756555461
aF40.19110941432564
aF49.60860308250699
aF63.42638336087748
aF89.27231850602857
aF183.56316923674171
aF257.34447162592573
aF618.6535932920403
asg5
F0.6769042017320345
sg6
I19
sg7
F0.25749220364949166
sg8
F0.7934836095369722
sg9
I17
sg10
I93
sg11
F1.1040392860447839
sg12
I81
sg13
I49
sg14
F0.4396904308071975
sg15
I20
sg16
I1
sg17
F0.7747547242513961
sg18
F0.26569962626967825
sg19
F0.9632815892561938
sg20
F0.07683494164138471
sg21
I17
sg22
F0.5594073010029428
sg23
F0.9091523499155043
sg24
F0.5542061227341832
sg25
F0.29017666650582197
sg26
F0.5285388541938467
sg27
F1.0
sg28
F0.5506411938324738
sg29
F0.9550941055405006
sg30
F0.9587071956446769
sg31
F1.6498352655922546
sg32
I97
sg33
I37
saF-1253.4180057351687
aa(lp55
(dp56
g3
(lp57
F-431.21501760189335
aF-289.44269282741743
aF-250.81419227876836
aF-211.1247283739583
aF-54.91999309990592
aF-44.61317510562003
aF-15.991920947905555
aF20.698043158442374
aF79.79751744006944
aF105.40227267718592
aF119.26770589700914
aF170.51098952564917
aF184.39310045140496
aF194.85234491954748
aF245.67980016638603
aF334.7184974846782
aF461.8590681330177
asg5
F0.7626195675362494
sg6
I19
sg7
F0.35431631223840365
sg8
F0.7028697642211763
sg9
I21
sg10
I91
sg11
F1.1201899162412503
sg12
I114
sg13
I47
sg14
F0.5609589586749745
sg15
I25
sg16
I1
sg17
F0.6595460048540819
sg18
F0.44803922272683094
sg19
F0.8135932576365255
sg20
F0.09225805862117753
sg21
I30
sg22
F0.5191787523335687
sg23
F0.8816589836373758
sg24
F0.5300141370483697
sg25
F0.335809784118882
sg26
F0.6335559580240582
sg27
F0.9224107750349886
sg28
F0.3245590681695596
sg29
F0.6950220948575161
sg30
F0.9788372315918303
sg31
F1.6498352655922546
sg32
I97
sg33
I36
saF-1277.4236770770267
aa(lp58
(dp59
g3
(lp60
F-440.2496254152078
aF-293.9815336922046
aF-290.80808807187475
aF-273.1777693147251
aF-30.777123995904958
aF13.501934982642865
aF14.100630519691094
aF19.282506821833977
aF20.991632135901455
aF24.038636123104652
aF101.54985452816254
aF143.27782455587317
aF147.69947895768837
aF189.2133845950932
aF229.99638908117413
aF382.58567410843534
aF544.2263847388301
asg5
F0.7236653456053741
sg6
I20
sg7
F0.28217469832299497
sg8
F0.6144879923978445
sg9
I17
sg10
I103
sg11
F1.1087331397999995
sg12
I73
sg13
I47
sg14
F0.6187024416379596
sg15
I27
sg16
I1
sg17
F0.8284326588431892
sg18
F0.5977143287286015
sg19
F1.0
sg20
F0.07781117611131924
sg21
I17
sg22
F0.5608985334959773
sg23
F0.9408294918186879
sg24
F0.5406795087288732
sg25
F0.4472061961240711
sg26
F0.8280078388021838
sg27
F0.8258203317072533
sg28
F0.6442429799239201
sg29
F0.17567329965813505
sg30
F0.960757970748489
sg31
F1.6246824209890431
sg32
I84
sg33
I40
saF-1282.1090681657492
aa(lp61
(dp62
g3
(lp63
F-273.90757943733036
aF-234.70165831531858
aF-218.61848567550737
aF-204.63331765034843
aF-129.41043284176124
aF-104.57870735881488
aF-65.12041437689209
aF-62.7055191932825
aF-33.8409021781074
aF3.3933884344596663
aF95.89366908356465
aF109.25036333883713
aF109.70720468217951
aF128.06661206253125
aF210.2604246328999
aF210.859711101112
aF322.5480548760968
asg5
F0.6798004771598547
sg6
I20
sg7
F0.2017888128026838
sg8
F0.7679591848922425
sg9
I17
sg10
I91
sg11
F1.108352218751957
sg12
I82
sg13
I50
sg14
F0.6635820758435319
sg15
I30
sg16
I1
sg17
F0.7383606107385544
sg18
F0.5814948430591405
sg19
F0.9533755385778568
sg20
F0.08469500073732864
sg21
I19
sg22
F0.5191787523335687
sg23
F0.6603113424411842
sg24
F0.5652353646313291
sg25
F0.3914598505494148
sg26
F0.7274326158468966
sg27
F0.8858556414450054
sg28
F0.6360085608195281
sg29
F0.10088775909570034
sg30
F0.9871774484822565
sg31
F1.6498352655922546
sg32
I103
sg33
I36
saF-1293.6761148492556
aa(lp64
(dp65
g3
(lp66
F-432.1807916246763
aF-348.6957347592478
aF-206.90001461302745
aF-200.1009320378855
aF-82.5386943219545
aF-33.1770016681578
aF-30.239513204602076
aF25.510484197000096
aF27.999997539501237
aF58.574452989825204
aF110.95051340260102
aF153.68974779435257
aF164.20073012733246
aF232.6880601858668
aF275.08660274530826
aF655.8116151738798
aF657.363960376204
asg5
F0.7699108991107759
sg6
I22
sg7
F0.29046691807630454
sg8
F0.5324539727491625
sg9
I16
sg10
I98
sg11
F1.116243999543407
sg12
I84
sg13
I51
sg14
F0.6248199810024102
sg15
I23
sg16
I1
sg17
F0.8259078047340257
sg18
F0.582551146443525
sg19
F0.9208072944330905
sg20
F0.07856355093264673
sg21
I24
sg22
F0.5191787523335687
sg23
F0.8621651532586988
sg24
F0.5193487653678664
sg25
F0.39622475116674327
sg26
F0.9929671669915587
sg27
F0.785472250253334
sg28
F0.4698302036192263
sg29
F0.17386380878779176
sg30
F0.834702795676652
sg31
F1.6246824209890431
sg32
I76
sg33
I32
saF-1308.3221980325511
aa(lp67
(dp68
g3
(lp69
F-394.1861901387816
aF-275.1613868607109
aF-225.03694542524204
aF-207.7478349829446
aF-121.99999065744782
aF-56.93277030155207
aF-19.9639426051325
aF-10.148739121664676
aF78.53220819986996
aF80.99964805435843
aF108.50287541266039
aF163.17924042034178
aF182.40821546497614
aF184.84403949462103
aF219.89321226323204
aF232.17680237558102
aF452.0998245299206
asg5
F0.5911888359278195
sg6
I19
sg7
F0.3131955944962995
sg8
F0.6486287734661573
sg9
I16
sg10
I93
sg11
F1.1111978177552517
sg12
I81
sg13
I52
sg14
F0.5591067782290381
sg15
I22
sg16
I1
sg17
F0.8988443572478264
sg18
F0.6287513181891169
sg19
F0.7844417639661034
sg20
F0.07533835749495188
sg21
I30
sg22
F0.5191787523335687
sg23
F0.9006549534483695
sg24
F0.5193487653678664
sg25
F0.4472061961240711
sg26
F0.7140216647293482
sg27
F0.9184297431531068
sg28
F0.5506411938324738
sg29
F0.17567329965813505
sg30
F0.9343384930147214
sg31
F1.6498352655922546
sg32
I114
sg33
I32
saF-1311.1778000934764
aa(lp70
(dp71
g3
(lp72
F-394.1861901387816
aF-275.1613868607109
aF-225.03694542524204
aF-207.7478349829446
aF-121.99999065744782
aF-56.93277030155207
aF-19.9639426051325
aF-10.148739121664676
aF78.53220819986996
aF80.99964805435843
aF108.50287541266039
aF163.17924042034178
aF182.40821546497614
aF184.84403949462103
aF219.89321226323204
aF232.17680237558102
aF452.0998245299206
asg5
F0.5911888359278195
sg6
I19
sg7
F0.3131955944962995
sg8
F0.6486287734661573
sg9
I16
sg10
I93
sg11
F1.1111978177552517
sg12
I81
sg13
I52
sg14
F0.5591067782290381
sg15
I22
sg16
I1
sg17
F0.8988443572478264
sg18
F0.6287513181891169
sg19
F0.7844417639661034
sg20
F0.07533835749495188
sg21
I30
sg22
F0.5191787523335687
sg23
F0.9006549534483695
sg24
F0.5193487653678664
sg25
F0.4472061961240711
sg26
F0.7140216647293482
sg27
F0.9184297431531068
sg28
F0.5506411938324738
sg29
F0.17567329965813505
sg30
F0.9343384930147214
sg31
F1.6498352655922546
sg32
I114
sg33
I32
saF-1311.1778000934764
aa(lp73
(dp74
g3
(lp75
F-402.3356261236802
aF-272.62234111647865
aF-253.33513630313246
aF-196.59902068852512
aF-113.67810516708346
aF-72.33169658353677
aF-13.21875913849658
aF11.63297513083512
aF56.65386691189224
aF79.28789099304208
aF112.73184433936831
aF114.12041111069175
aF132.43326447570803
aF138.17114593644305
aF222.23628472229734
aF281.9562048917703
aF476.88694262150375
asg5
F0.797552258698524
sg6
I28
sg7
F0.28041504465591205
sg8
F0.7823139738515761
sg9
I15
sg10
I93
sg11
F1.104244865416145
sg12
I82
sg13
I54
sg14
F0.5900456135395613
sg15
I10
sg16
I1
sg17
F0.8168944580283339
sg18
F0.6963281954239834
sg19
F0.9570177380678992
sg20
F0.07175980450442637
sg21
I12
sg22
F0.5475814957902806
sg23
F0.8924804866361828
sg24
F0.41335812547222983
sg25
F0.366014711743997
sg26
F0.657342411107664
sg27
F0.8132960344369078
sg28
F0.5719830355792374
sg29
F0.10622958342158853
sg30
F0.9522959198858051
sg31
F1.6347435588303276
sg32
I109
sg33
I32
saF-1312.4877099900982
aa(lp76
(dp77
g3
(lp78
F-321.5204485125231
aF-253.73677497704523
aF-251.81168234265215
aF-193.81330705883227
aF-144.50098549003224
aF-117.73486445696096
aF-30.3787108824298
aF-10.485829702645901
aF3.3370630589466828
aF27.3426686965272
aF34.50365559147167
aF69.07500974078721
aF96.81721879777979
aF239.08807206454753
aF239.31888433142512
aF346.51081188602916
aF505.71018856487103
asg5
F0.7386763679291893
sg6
I14
sg7
F0.24110192872929792
sg8
F0.7823139738515761
sg9
I21
sg10
I93
sg11
F1.106298542084051
sg12
I81
sg13
I51
sg14
F0.5900456135395613
sg15
I24
sg16
I1
sg17
F0.8168944580283339
sg18
F0.6051230806241287
sg19
F0.906589135751719
sg20
F0.07429737307290554
sg21
I18
sg22
F0.5534943983966116
sg23
F0.6603113424411842
sg24
F0.5656777725500489
sg25
F0.3765513219732598
sg26
F0.657342411107664
sg27
F0.8495758379409566
sg28
F0.5506411938324738
sg29
F0.14095144153986178
sg30
F0.9412664313464512
sg31
F1.6246824209890431
sg32
I102
sg33
I34
saF-1323.9826034231219
aa(lp79
(dp80
g3
(lp81
F-354.1497359151281
aF-343.3361782584093
aF-264.5165977597933
aF-181.94302631802418
aF-163.25924547783632
aF-45.25790229150641
aF-0.959500223740406
aF10.614476922908011
aF29.558333465962278
aF29.819154620923428
aF104.05183655142946
aF179.1318496393303
aF187.68383484016613
aF218.291241373606
aF240.53754338300996
aF261.6093487264211
aF335.4850765994936
asg5
F0.5911888359278195
sg6
I19
sg7
F0.30968758590120193
sg8
F0.7028697642211763
sg9
I16
sg10
I97
sg11
F1.1111978177552517
sg12
I82
sg13
I45
sg14
F0.5041494792895649
sg15
I24
sg16
I1
sg17
F0.7896340415770771
sg18
F0.5322318207571214
sg19
F0.8275139745747787
sg20
F0.07685995340779819
sg21
I26
sg22
F0.5396658347915144
sg23
F0.8816589836373758
sg24
F0.5334022726978771
sg25
F0.4472061961240711
sg26
F0.5736150934873052
sg27
F0.8775303789224074
sg28
F0.563265094374748
sg29
F0.16413068375461043
sg30
F0.9704970147014041
sg31
F1.6385164855208094
sg32
I105
sg33
I34
saF-1342.8077093215302
aa(lp82
(dp83
g3
(lp84
F-450.70734855149226
aF-318.0676490330096
aF-289.50165134168446
aF-166.11437063705944
aF-111.6495852748019
aF-8.855688136362687
aF-6.064941064800337
aF5.737366087438204
aF15.528868440408814
aF47.50421992252291
aF76.94889904500405
aF103.02472221642097
aF220.13519664789533
aF266.69180388771656
aF276.8277656146463
aF363.7969673526586
aF621.1052429715562
asg5
F0.6715000607670063
sg6
I20
sg7
F0.3131955944962995
sg8
F0.6144879923978445
sg9
I16
sg10
I93
sg11
F1.1095546991184169
sg12
I81
sg13
I52
sg14
F0.6187024416379596
sg15
I22
sg16
I1
sg17
F0.8988443572478264
sg18
F0.6287513181891169
sg19
F0.8561605334355387
sg20
F0.07285032161741896
sg21
I17
sg22
F0.5191787523335687
sg23
F0.9006549534483695
sg24
F0.5406795087288732
sg25
F0.4472061961240711
sg26
F0.7274326158468966
sg27
F0.9224107750349886
sg28
F0.5506411938324738
sg29
F0.17567329965813505
sg30
F0.960757970748489
sg31
F1.6246824209890431
sg32
I84
sg33
I38
saF-1345.2238679517723
aa(lp85
(dp86
g3
(lp87
F-373.95409231215274
aF-362.8209091426942
aF-301.4605663453857
aF-149.13009627688348
aF-117.60942329360898
aF-71.28364031879016
aF-18.226046161331624
aF25.076017989105367
aF75.57752910990416
aF191.54870209501405
aF200.80891630397173
aF205.24364337451948
aF223.31516211681605
aF250.53739431039276
aF307.9682917453665
aF366.9039577970043
aF380.0192851213835
asg5
F0.6772654402437949
sg6
I18
sg7
F0.3590412765091403
sg8
F0.6969799442642035
sg9
I18
sg10
I92
sg11
F1.104466364136162
sg12
I81
sg13
I50
sg14
F0.6187024416379596
sg15
I15
sg16
I1
sg17
F0.8111488377642379
sg18
F0.582551146443525
sg19
F0.8561605334355387
sg20
F0.08196441117443515
sg21
I23
sg22
F0.5711497750201417
sg23
F1.0
sg24
F0.6031299517268706
sg25
F0.39622475116674327
sg26
F0.668186563148017
sg27
F0.8800721776401284
sg28
F0.6732121195005353
sg29
F0.17567329965813505
sg30
F0.9302369428070971
sg31
F1.637258843290649
sg32
I94
sg33
I36
saF-1369.4087558617418
aa(lp88
(dp89
g3
(lp90
F-302.00640958212864
aF-301.3457439895367
aF-282.9325033488843
aF-164.5123674195719
aF-159.04519460482754
aF-155.91738036701975
aF-13.396987924384803
aF8.485099901084027
aF30.109454352973216
aF76.45849831669489
aF86.77729873415706
aF103.85723187406143
aF142.53791049288907
aF143.84646068924667
aF152.36086148464688
aF199.37433090481704
aF395.86438509360096
asg5
F0.7886968384845616
sg6
I26
sg7
F0.27173949829648125
sg8
F0.7433116602977758
sg9
I16
sg10
I93
sg11
F1.1074429499077554
sg12
I66
sg13
I50
sg14
F0.6268138446915466
sg15
I25
sg16
I1
sg17
F0.8988443572478264
sg18
F0.6011160027972594
sg19
F0.8561605334355387
sg20
F0.07533835749495188
sg21
I18
sg22
F0.5523326288216681
sg23
F0.8424850337054195
sg24
F0.41335812547222983
sg25
F0.3914598505494148
sg26
F0.6722710868009578
sg27
F0.9204413008197102
sg28
F0.4664869359625942
sg29
F0.12626142464366927
sg30
F0.9697366841840308
sg31
F1.6246824209890431
sg32
I107
sg33
I36
saF-1370.6714873352694
aa(lp91
(dp92
g3
(lp93
F-417.4544160363995
aF-252.31243381316597
aF-192.76958172892546
aF-154.54289880810666
aF-133.68214861146464
aF-123.27728516252671
aF-68.94958359985014
aF-29.19306893976011
aF-1.4316201512150428
aF9.856519346436926
aF34.77245937622615
aF38.09267203866989
aF106.58568815080775
aF126.51797968732512
aF179.152498113948
aF180.14396343092517
aF280.8323039569757
asg5
F0.6412883135905258
sg6
I17
sg7
F0.3590412765091403
sg8
F0.8343967931330585
sg9
I19
sg10
I93
sg11
F1.1006369036856034
sg12
I86
sg13
I49
sg14
F0.45818714141602007
sg15
I21
sg16
I1
sg17
F0.6980900840442688
sg18
F0.5007158968505563
sg19
F0.7795174639768091
sg20
F0.07786826904664708
sg21
I17
sg22
F0.5594073010029428
sg23
F0.8028625210915179
sg24
F0.5406795087288732
sg25
F0.3874758026753277
sg26
F0.657342411107664
sg27
F0.9158879444353858
sg28
F0.7957830451685968
sg29
F0.11157140774747673
sg30
F1.0
sg31
F1.6246824209890431
sg32
I84
sg33
I33
saF-1372.181416700199
aa(lp94
(dp95
g3
(lp96
F-484.2635843957969
aF-394.48547558099267
aF-301.9508156060216
aF-184.45320000857873
aF-28.571305977208112
aF-18.83047357863836
aF-2.8955097091053403
aF37.58914864255439
aF114.64707776056798
aF133.53519262076406
aF200.24866990070996
aF203.08100026799616
aF237.56367151492327
aF286.4968210175814
aF340.6862234731843
aF346.4875171830058
aF478.6730539278874
asg5
F0.7518112856061931
sg6
I19
sg7
F0.2854409813661083
sg8
F0.762812817074676
sg9
I18
sg10
I94
sg11
F1.104244865416145
sg12
I79
sg13
I47
sg14
F0.5979526423443176
sg15
I27
sg16
I1
sg17
F0.8168944580283339
sg18
F0.5666773392680862
sg19
F0.9604786947601931
sg20
F0.07175980450442637
sg21
I24
sg22
F0.6240500853295671
sg23
F1.0
sg24
F0.561496323061539
sg25
F0.3874810161567246
sg26
F0.8272489765143111
sg27
F0.8417146121271498
sg28
F0.06251394056968917
sg29
F0.11958414423630902
sg30
F0.9261032767129527
sg31
F1.6334859166001672
sg32
I72
sg33
I35
saF-1377.8612162137874
aa(lp97
(dp98
g3
(lp99
F-365.92194878560383
aF-300.1749459294573
aF-171.02953764893346
aF-137.01788967746973
aF-136.522782035575
aF-117.79890056838099
aF-75.44431129598024
aF-74.63637852566569
aF-41.28069918019196
aF-40.64800175025607
aF39.82698468154467
aF40.42914074460009
aF174.30198822571833
aF213.30149482539173
aF215.0785040269791
aF329.16500245874136
aF369.7610150967805
asg5
F0.6798004771598547
sg6
I20
sg7
F0.2017888128026838
sg8
F0.7679591848922425
sg9
I18
sg10
I97
sg11
F1.1081318996167695
sg12
I82
sg13
I47
sg14
F0.6187024416379596
sg15
I27
sg16
I1
sg17
F0.7481907855885532
sg18
F0.5666773392680862
sg19
F0.963939651452487
sg20
F0.08125308842432394
sg21
I19
sg22
F0.540038642914773
sg23
F0.6603113424411842
sg24
F0.13882775198879704
sg25
F0.43225706374348327
sg26
F0.7274326158468966
sg27
F0.8075427649122617
sg28
F0.6360085608195281
sg29
F0.16413068375461043
sg30
F0.9761479599429026
sg31
F1.6246824209890431
sg32
I103
sg33
I36
saF-1378.5466944670661
aa(lp100
(dp101
g3
(lp102
F-357.8957520094491
aF-299.21557310392143
aF-273.1458575397445
aF-171.32748825538806
aF-164.3253591926076
aF-81.98719432697533
aF-45.193189943541825
aF10.340624821331971
aF33.28573430550364
aF43.38218424553543
aF46.62885291998509
aF76.36785830971712
aF147.6860416802192
aF251.64699713338564
aF311.9384126915377
aF337.0263488591288
aF443.7930500947871
asg5
F0.6412883135905258
sg6
I28
sg7
F0.28041504465591205
sg8
F0.7456199135214503
sg9
I16
sg10
I93
sg11
F1.1040392860447839
sg12
I82
sg13
I51
sg14
F0.6294518768065474
sg15
I10
sg16
I1
sg17
F0.7772930000336455
sg18
F0.6963281954239834
sg19
F0.9140354761357984
sg20
F0.07175980450442637
sg21
I12
sg22
F0.5594073010029428
sg23
F0.8393355722241896
sg24
F0.41869081131248154
sg25
F0.3874758026753277
sg26
F0.657342411107664
sg27
F0.7979201785241696
sg28
F0.5506411938324738
sg29
F0.10622958342158853
sg30
F0.9522959198858051
sg31
F1.6347435588303276
sg32
I111
sg33
I33
saF-1382.749789550296
aa(lp103
(dp104
g3
(lp105
F-393.96351596184184
aF-247.08846982950183
aF-231.5710099703175
aF-201.47559649532684
aF-112.28087052550245
aF-98.12243701607963
aF-72.51888521809883
aF-25.81975516927548
aF30.90993827787679
aF64.3240087468564
aF78.90812295375576
aF107.27163459656413
aF114.14353640152353
aF204.42907675474635
aF247.85146804896158
aF397.1281880575559
aF450.8590036374262
asg5
F0.7886968384845616
sg6
I25
sg7
F0.22560911237740375
sg8
F0.6486287734661573
sg9
I15
sg10
I93
sg11
F1.116243999543407
sg12
I66
sg13
I50
sg14
F0.5591067782290381
sg15
I32
sg16
I1
sg17
F0.8988443572478264
sg18
F0.5611744409542503
sg19
F0.7844417639661034
sg20
F0.07533835749495188
sg21
I20
sg22
F0.5191787523335687
sg23
F0.8424850337054195
sg24
F0.5193487653678664
sg25
F0.3894678266123712
sg26
F0.6871997624942515
sg27
F0.9224107750349886
sg28
F0.38233267809271465
sg29
F0.17567329965813505
sg30
F0.9871774484822565
sg31
F1.6246824209890431
sg32
I78
sg33
I32
saF-1382.8405401859445
aa(lp106
(dp107
g3
(lp108
F-354.5363170408849
aF-260.8779772772813
aF-203.7057239475413
aF-183.6935332914751
aF-177.29592741478461
aF-83.2336382781715
aF-61.03020438856515
aF-58.73043399316589
aF14.521953910446769
aF24.106662888707888
aF113.46807701173088
aF142.74239507825155
aF174.28659290302403
aF215.59279206107476
aF218.66396427753398
aF276.09001207518077
aF485.5190009889386
asg5
F0.6798004771598547
sg6
I20
sg7
F0.2017888128026838
sg8
F0.7679591848922425
sg9
I16
sg10
I92
sg11
F1.1111978177552517
sg12
I81
sg13
I50
sg14
F0.6635820758435319
sg15
I30
sg16
I1
sg17
F0.7383606107385544
sg18
F0.6287513181891169
sg19
F0.7844417639661034
sg20
F0.07533835749495188
sg21
I19
sg22
F0.5191787523335687
sg23
F0.6603113424411842
sg24
F0.5422920649995977
sg25
F0.41933302333674294
sg26
F0.7207271402881223
sg27
F0.9021426922990561
sg28
F0.6360085608195281
sg29
F0.1382805293769177
sg30
F0.9343384930147214
sg31
F1.6498352655922546
sg32
I41
sg33
I32
saF-1383.1037556318697
aa(lp109
(dp110
g3
(lp111
F-257.155900607846
aF-243.1622992046756
aF-240.00721328236955
aF-210.3009862511699
aF-186.74905246401158
aF-163.1762111545845
aF-42.67166619065392
aF-41.647938280972085
aF-35.98112596425176
aF21.891094037579705
aF122.51619165774582
aF138.81986366952606
aF163.66682773405796
aF171.96515115843226
aF186.11146975427664
aF232.89877843665863
aF378.70547050672667
asg5
F0.6412883135905258
sg6
I18
sg7
F0.3590412765091403
sg8
F0.7631900182064985
sg9
I19
sg10
I91
sg11
F1.1006369036856034
sg12
I81
sg13
I53
sg14
F0.45818714141602007
sg15
I14
sg16
I1
sg17
F0.6980900840442688
sg18
F0.5007158968505563
sg19
F0.7174654334645588
sg20
F0.08142474114633716
sg21
I23
sg22
F0.5594073010029428
sg23
F0.8602561337370784
sg24
F0.5823131373942048
sg25
F0.3874758026753277
sg26
F0.6990929890360544
sg27
F0.9158879444353858
sg28
F0.7957830451685968
sg29
F0.11127506842969012
sg30
F1.0
sg31
F1.637258843290649
sg32
I87
sg33
I33
saF-1384.8712674362832
aa(lp112
(dp113
g3
(lp114
F-336.05761125084314
aF-293.752123133826
aF-231.83288303367328
aF-201.53436964263722
aF-168.2160109183901
aF-101.61295472262577
aF-78.5078705527859
aF11.296082580424127
aF17.65037856717447
aF27.63232445424501
aF36.77699435707336
aF141.41798359708173
aF168.62885737627175
aF258.385130320755
aF260.7525792082795
aF263.761633838679
aF318.7882080269428
asg5
F0.6798004771598547
sg6
I14
sg7
F0.2017888128026838
sg8
F0.7679591848922425
sg9
I21
sg10
I92
sg11
F1.108352218751957
sg12
I81
sg13
I49
sg14
F0.6187024416379596
sg15
I24
sg16
I1
sg17
F0.7747547242513961
sg18
F0.6051230806241287
sg19
F0.8561605334355387
sg20
F0.07683494164138471
sg21
I18
sg22
F0.5594073010029428
sg23
F0.6603113424411842
sg24
F0.5656777725500489
sg25
F0.3765513219732598
sg26
F0.7274326158468966
sg27
F0.8858556414450054
sg28
F0.5506411938324738
sg29
F0.17567329965813505
sg30
F0.9302369428070971
sg31
F1.6246824209890431
sg32
I102
sg33
I36
saF-1400.2177406743574
aa(lp115
(dp116
g3
(lp117
F-308.46503765166847
aF-306.17119537751387
aF-282.63206423733595
aF-213.3308118292099
aF-118.21610456995677
aF-114.39891506114077
aF-53.74525586446646
aF-8.274295547698898
aF8.02594736243475
aF29.750991540243376
aF52.657888112408045
aF55.58787125916956
aF91.3718705616493
aF150.05389756511204
aF210.9784081466296
aF283.10833172738967
aF755.3227337127782
asg5
F0.7758306304437419
sg6
I23
sg7
F0.2511538021496904
sg8
F0.670146788600561
sg9
I18
sg10
I103
sg11
F1.107911580481582
sg12
I66
sg13
I47
sg14
F0.6187024416379596
sg15
I27
sg16
I1
sg17
F0.758020960438552
sg18
F0.5666773392680862
sg19
F0.963939651452487
sg20
F0.07781117611131924
sg21
I17
sg22
F0.5608985334959773
sg23
F0.8816589836373758
sg24
F0.5406795087288732
sg25
F0.43225706374348327
sg26
F0.8280078388021838
sg27
F0.7292298883795181
sg28
F0.7378447660153664
sg29
F0.16413068375461043
sg30
F0.9651184714035486
sg31
F1.6246824209890431
sg32
I55
sg33
I40
saF-1405.233680138991
aa(lp118
(dp119
g3
(lp120
F-383.01011912695856
aF-375.02199382674587
aF-252.97028438755558
aF-209.80464599444008
aF-99.31504623954265
aF-48.48941299869614
aF-40.056391060935425
aF-18.342974255676495
aF-2.6614243324406743
aF27.702275482285813
aF38.69462296825486
aF163.45422565439185
aF186.55045845438895
aF385.71108391835014
aF404.7572747532972
aF431.86604829019007
aF456.24851520319476
asg5
F0.727825230046117
sg6
I19
sg7
F0.29046691807630454
sg8
F0.707372002231295
sg9
I19
sg10
I94
sg11
F1.104466364136162
sg12
I84
sg13
I53
sg14
F0.6058596711490739
sg15
I17
sg16
I1
sg17
F0.8259078047340257
sg18
F0.582551146443525
sg19
F0.9350535843835881
sg20
F0.08196441117443515
sg21
I24
sg22
F0.5711497750201417
sg23
F0.7243303065173976
sg24
F0.6239467660595364
sg25
F0.39622475116674327
sg26
F0.5817133667334291
sg27
F0.8417146121271498
sg28
F0.4698302036192263
sg29
F0.17386380878779176
sg30
F0.834702795676652
sg31
F1.6498352655922546
sg32
I97
sg33
I35
saF-1427.0108678905508
aa(lp121
(dp122
g3
(lp123
F-402.9857684692415
aF-228.762583858825
aF-191.60039227111542
aF-167.2374528609423
aF-166.81008857172435
aF-161.63068574620024
aF-61.27198777477088
aF-47.4060707545093
aF-37.01047714531603
aF-9.650508318003972
aF-7.046958243155473
aF-5.516649855137075
aF127.24351800202635
aF194.71399502516851
aF268.67470919687435
aF339.76461056597736
aF474.58107605784016
asg5
F0.7149925760375437
sg6
I31
sg7
F0.28041504465591205
sg8
F0.7433116602977758
sg9
I19
sg10
I94
sg11
F1.1023380948651935
sg12
I74
sg13
I53
sg14
F0.6187024416379596
sg15
I10
sg16
I1
sg17
F0.7694111065793678
sg18
F0.5432514153535549
sg19
F0.9147153533146776
sg20
F0.07776226630977098
sg21
I18
sg22
F0.5523326288216681
sg23
F0.8424850337054195
sg24
F0.49107232443056226
sg25
F0.3914598505494148
sg26
F0.6916126718146041
sg27
F0.655545337167653
sg28
F0.5299059066442976
sg29
F0.11157140774747673
sg30
F0.985248507350702
sg31
F1.6297129899096854
sg32
I107
sg33
I42
saF-1427.705030307329
aa(lp124
(dp125
g3
(lp126
F-382.6098953615922
aF-382.0821887059242
aF-249.47646979160754
aF-185.73251924052136
aF-94.40593925398173
aF-73.90070696265218
aF-48.987852828666746
aF-13.975617376691503
aF3.143334335090117
aF4.147768254875928
aF82.6650073208159
aF89.13141505629119
aF131.49140273904482
aF242.54474917356447
aF243.7935748202167
aF371.2143127630543
aF510.0426730658894
asg5
F0.6412883135905258
sg6
I28
sg7
F0.28041504465591205
sg8
F0.7456199135214503
sg9
I16
sg10
I93
sg11
F1.1064454482010055
sg12
I82
sg13
I50
sg14
F0.5900456135395613
sg15
I10
sg16
I1
sg17
F0.8168944580283339
sg18
F0.6963281954239834
sg19
F0.8850980047856685
sg20
F0.07354908099968913
sg21
I18
sg22
F0.5558699649123054
sg23
F0.8424850337054195
sg24
F0.41869081131248154
sg25
F0.3914598505494148
sg26
F0.657342411107664
sg27
F0.7979201785241696
sg28
F0.5506411938324738
sg29
F0.11290686382894877
sg30
F0.9522959198858051
sg31
F1.6347435588303276
sg32
I107
sg33
I33
saF-1431.1711895216372
aa(lp127
(dp128
g3
(lp129
F-355.0309405286125
aF-286.8609579264745
aF-244.12946876333444
aF-199.7761926051951
aF-196.06138010274708
aF-167.06365963077985
aF-9.790969445054202
aF26.404562836061814
aF70.60333914569219
aF94.16661511878578
aF135.0502895823472
aF149.20967219972204
aF162.56647434027695
aF202.91262832553753
aF280.0545118321977
aF347.3543553447878
aF442.80382688045916
asg5
F0.7886968384845616
sg6
I31
sg7
F0.28041504465591205
sg8
F0.7433116602977758
sg9
I16
sg10
I93
sg11
F1.1064454482010055
sg12
I74
sg13
I50
sg14
F0.5900456135395613
sg15
I10
sg16
I1
sg17
F0.8564959160230222
sg18
F0.6963281954239834
sg19
F0.8561605334355387
sg20
F0.07533835749495188
sg21
I18
sg22
F0.5523326288216681
sg23
F0.8424850337054195
sg24
F0.41335812547222983
sg25
F0.3914598505494148
sg26
F0.657342411107664
sg27
F0.9184718266044318
sg28
F0.4664869359625942
sg29
F0.11958414423630902
sg30
F0.9522959198858051
sg31
F1.6297129899096854
sg32
I107
sg33
I33
saF-1432.309006166136
aa(lp130
(dp131
g3
(lp132
F-297.57549050923103
aF-259.1813426231105
aF-252.9746880268558
aF-232.59521133741669
aF-122.74404651428017
aF-97.1808891377757
aF-94.72633405136833
aF-79.64590562947069
aF-14.65112836110211
aF-14.35056430428449
aF-11.698290512940844
aF178.3706409787403
aF196.38521810517318
aF222.44132034730342
aF396.2839841832167
aF423.4065893639447
aF486.8156289563294
asg5
F0.7132425668970639
sg6
I19
sg7
F0.24101816531848386
sg8
F0.6586788783095103
sg9
I25
sg10
I94
sg11
F1.1040392860447839
sg12
I81
sg13
I48
sg14
F0.6187024416379596
sg15
I22
sg16
I1
sg17
F0.8111488377642379
sg18
F0.6287513181891169
sg19
F0.8561605334355387
sg20
F0.07683494164138471
sg21
I17
sg22
F0.5594073010029428
sg23
F0.9176497463826391
sg24
F0.5661201804687688
sg25
F0.36164279339710487
sg26
F0.6372801372599798
sg27
F0.8800721776401284
sg28
F0.5506411938324738
sg29
F0.17567329965813505
sg30
F0.9302369428070971
sg31
F1.6246824209890431
sg32
I102
sg33
I38
saF-1436.6239078295089
aa(lp133
(dp134
g3
(lp135
F-410.61417991281576
aF-354.1430303685015
aF-338.78786142347985
aF-118.58273159832765
aF-86.8495295065211
aF-84.32461575907166
aF-41.01433851327545
aF-4.621768470302868
aF19.605614011980265
aF35.300696727067816
aF39.45414964404813
aF111.53092141418574
aF191.98733311365027
aF195.1663179397683
aF242.02340226401066
aF244.90952910457645
aF450.142295147243
asg5
F0.7841503993252278
sg6
I29
sg7
F0.40265974057900833
sg8
F0.7028697642211763
sg9
I19
sg10
I94
sg11
F1.082857154781001
sg12
I81
sg13
I50
sg14
F0.5499631170727126
sg15
I15
sg16
I1
sg17
F0.758020960438552
sg18
F0.6963281954239834
sg19
F0.9275791127303825
sg20
F0.08191007877834305
sg21
I16
sg22
F0.5623897659890117
sg23
F0.9176497463826391
sg24
F0.6085311848247916
sg25
F0.3677825092655994
sg26
F0.41979757112771376
sg27
F0.8775303789224074
sg28
F0.5933248773260009
sg29
F0.10073958943680704
sg30
F0.9503669787542506
sg31
F1.6271977054493643
sg32
I97
sg33
I42
saF-1438.9380555522957
aa(lp136
(dp137
g3
(lp138
F-401.52844302792766
aF-339.2605442250806
aF-309.9363273841599
aF-204.24492685371865
aF-111.86609751666856
aF-77.24556088507074
aF-5.249301524511566
aF5.734450327146533
aF12.02953147913206
aF54.01883213461019
aF98.30588039410782
aF116.82967706603085
aF127.77643914509258
aF139.887957697008
aF382.2990017312309
aF460.77542613280207
aF549.6568894418699
asg5
F0.8352962978663082
sg6
I25
sg7
F0.20411055517887333
sg8
F0.6943529555524265
sg9
I21
sg10
I103
sg11
F1.1062398688296446
sg12
I82
sg13
I51
sg14
F0.6437802908557465
sg15
I27
sg16
I1
sg17
F0.7772930000336455
sg18
F0.6963281954239834
sg19
F0.9208072944330905
sg20
F0.08178874437034159
sg21
I13
sg22
F0.56015291724946
sg23
F1.0
sg24
F0.5590934268037635
sg25
F0.43225706374348327
sg26
F0.6372801372599798
sg27
F0.5360490017240476
sg28
F0.5506411938324738
sg29
F0.13770287609215026
sg30
F0.9651184714035486
sg31
F1.6246824209890431
sg32
I95
sg33
I32
saF-1443.5967510899911
aa(lp139
(dp140
g3
(lp141
F-369.10676550187793
aF-327.42933659361677
aF-290.4322467242026
aF-132.5106188210092
aF-105.21681544191017
aF-96.29138171417844
aF-63.515367406111295
aF-62.923818439983506
aF-8.75424385356746
aF43.483573429433136
aF72.77729806169873
aF89.17992158114657
aF98.2549711411989
aF107.60613913443808
aF140.58155279374637
aF199.57799046451714
aF500.89235434561874
asg5
F0.7518112856061931
sg6
I20
sg7
F0.28041504465591205
sg8
F0.762812817074676
sg9
I18
sg10
I93
sg11
F1.104244865416145
sg12
I74
sg13
I54
sg14
F0.5900456135395613
sg15
I19
sg16
I1
sg17
F0.8168944580283339
sg18
F0.5734806874054019
sg19
F0.9570177380678992
sg20
F0.07175980450442637
sg21
I17
sg22
F0.5534943983966116
sg23
F0.8028625210915179
sg24
F0.5406795087288732
sg25
F0.3787372811467059
sg26
F0.8264901142264384
sg27
F0.8132960344369078
sg28
F0.5719830355792374
sg29
F0.11958414423630902
sg30
F0.9522959198858051
sg31
F1.6297129899096854
sg32
I69
sg33
I36
saF-1447.42635064289
aa(lp142
(dp143
g3
(lp144
F-360.07515122984967
aF-343.6912332215678
aF-321.7713588535231
aF-224.92967297960695
aF-134.54272191620487
aF-101.36959362717369
aF10.222917598883441
aF28.550679352772477
aF42.188689490038314
aF48.77304103202687
aF72.68633641787528
aF78.59437316750586
aF89.34189631040726
aF152.10329395210442
aF347.4140186248535
aF454.8927196083173
aF475.538689918566
asg5
F0.7626195675362494
sg6
I20
sg7
F0.3131955944962995
sg8
F0.7028697642211763
sg9
I21
sg10
I91
sg11
F1.1095546991184169
sg12
I114
sg13
I52
sg14
F0.6187024416379596
sg15
I25
sg16
I1
sg17
F0.6595460048540819
sg18
F0.6287513181891169
sg19
F0.8561605334355387
sg20
F0.08255419011929824
sg21
I30
sg22
F0.5191787523335687
sg23
F1.0
sg24
F0.5406795087288732
sg25
F0.335809784118882
sg26
F0.89211613935996
sg27
F0.9224107750349886
sg28
F0.4376001310010167
sg29
F0.17567329965813505
sg30
F0.9788372315918303
sg31
F1.6246824209890431
sg32
I84
sg33
I36
saF-1447.6061348762703
aa(lp145
(dp146
g3
(lp147
F-464.63625604966967
aF-292.940077125008
aF-211.2796700404516
aF-203.92780013084428
aF-182.66339354547245
aF-54.13163374872033
aF-21.13150322910667
aF-18.929438692950043
aF-16.286322579992543
aF-4.241820260979921
aF49.894277860307966
aF130.6216136512378
aF157.458013464058
aF361.51564230079225
aF395.8654584980118
aF409.5815798280719
aF730.0617710759204
asg5
F0.6715000607670063
sg6
I20
sg7
F0.3131955944962995
sg8
F0.6144879923978445
sg9
I16
sg10
I93
sg11
F1.1095546991184169
sg12
I81
sg13
I52
sg14
F0.6187024416379596
sg15
I22
sg16
I1
sg17
F0.8988443572478264
sg18
F0.6287513181891169
sg19
F0.8561605334355387
sg20
F0.07285032161741896
sg21
I17
sg22
F0.5191787523335687
sg23
F1.0
sg24
F0.5406795087288732
sg25
F0.4472061961240711
sg26
F0.89211613935996
sg27
F0.9224107750349886
sg28
F0.5506411938324738
sg29
F0.17567329965813505
sg30
F0.960757970748489
sg31
F1.6246824209890431
sg32
I84
sg33
I38
saF-1449.6397725622228
aa(lp148
(dp149
g3
(lp150
F-416.3945965213253
aF-376.9555098748734
aF-289.40410882748097
aF-167.90709276906375
aF-107.79067269169354
aF-33.06432328746405
aF-32.83766562697326
aF-25.490037547311317
aF52.95091733459776
aF76.78932002114652
aF113.99839264286925
aF139.18347360388157
aF238.82087409531414
aF239.92041129291556
aF242.74868576279096
aF362.26392353993674
aF369.0859091918812
asg5
F0.6412883135905258
sg6
I28
sg7
F0.28041504465591205
sg8
F0.7456199135214503
sg9
I18
sg10
I93
sg11
F1.1060929627126899
sg12
I79
sg13
I51
sg14
F0.58970749693963
sg15
I10
sg16
I1
sg17
F0.7772930000336455
sg18
F0.6963281954239834
sg19
F0.8342977916656971
sg20
F0.07175980450442637
sg21
I11
sg22
F0.5594073010029428
sg23
F0.8600896346828042
sg24
F0.41869081131248154
sg25
F0.3510001350399091
sg26
F0.657342411107664
sg27
F0.8575395111592079
sg28
F0.5506411938324738
sg29
F0.10622958342158853
sg30
F0.9761479599429026
sg31
F1.6347435588303276
sg32
I103
sg33
I36
saF-1449.8440071461855
aa(lp151
(dp152
g3
(lp153
F-388.9622726446278
aF-337.06347210415174
aF-279.8698336173002
aF-256.15005631009626
aF-87.28528505570455
aF-62.98301959346338
aF-45.551261044819626
aF6.208416219798551
aF90.00755784245416
aF109.32726588255309
aF132.45937058956383
aF171.4808273019048
aF186.47887235180747
aF238.23436562079632
aF391.4536477081749
aF405.789667927839
aF422.1911458868326
asg5
F0.6899428372061905
sg6
I20
sg7
F0.3131955944962995
sg8
F0.534921911260257
sg9
I21
sg10
I91
sg11
F1.108352218751957
sg12
I77
sg13
I50
sg14
F0.6635820758435319
sg15
I25
sg16
I1
sg17
F0.7383606107385544
sg18
F0.5059038101705354
sg19
F0.9711139329311012
sg20
F0.09225805862117753
sg21
I30
sg22
F0.5191787523335687
sg23
F0.8424850337054195
sg24
F0.5300141370483697
sg25
F0.3914598505494148
sg26
F0.7140216647293482
sg27
F0.9224107750349886
sg28
F0.3245590681695596
sg29
F0.11157140774747673
sg30
F0.9871774484822565
sg31
F1.6498352655922546
sg32
I93
sg33
I36
saF-1451.6567841503647
aa(lp154
(dp155
g3
(lp156
F-388.4582909232771
aF-335.6058743537876
aF-206.72746969869308
aF-194.28930927306203
aF-158.4484077800497
aF-101.49523332105707
aF-55.64081125909479
aF-27.68026850154081
aF-8.091367341182718
aF-7.066733060514025
aF5.356591447109508
aF34.23368565094961
aF66.69054414841435
aF74.37302686611406
aF122.11812248593537
aF196.31371961138757
aF805.2939082428654
asg5
F0.7518112856061931
sg6
I20
sg7
F0.3005187914966971
sg8
F0.7433116602977758
sg9
I18
sg10
I93
sg11
F1.1006369036856034
sg12
I66
sg13
I50
sg14
F0.7877531630743542
sg15
I19
sg16
I1
sg17
F0.8988443572478264
sg18
F0.4506331793868205
sg19
F0.9278793029049739
sg20
F0.07285032161741896
sg21
I17
sg22
F0.5594073010029428
sg23
F0.8028625210915179
sg24
F0.5406795087288732
sg25
F0.3914598505494148
sg26
F0.8264901142264384
sg27
F0.9133461457176649
sg28
F0.5085445501340604
sg29
F0.1329387050510295
sg30
F0.9871774484822565
sg31
F1.6246824209890431
sg32
I69
sg33
I40
saF-1468.3456651105625
aa(lp157
(dp158
g3
(lp159
F-377.4697199803229
aF-345.5228035344069
aF-261.0023322109905
aF-186.2558232848197
aF-112.23475584644393
aF-94.73641199780786
aF-47.074216348194796
aF-44.41942761769599
aF-28.991823748375623
aF11.108380583716325
aF57.54403449290885
aF134.4808428280794
aF204.18614063372297
aF299.05153298266055
aF392.59222725196696
aF425.1711991898226
aF461.5812749562331
asg5
F0.6412883135905258
sg6
I28
sg7
F0.2968053195761058
sg8
F0.7456199135214503
sg9
I16
sg10
I93
sg11
F1.1095546991184169
sg12
I81
sg13
I52
sg14
F0.6294518768065474
sg15
I22
sg16
I1
sg17
F0.7772930000336455
sg18
F0.6287513181891169
sg19
F0.8561605334355387
sg20
F0.07230506306092266
sg21
I12
sg22
F0.5594073010029428
sg23
F0.8393355722241896
sg24
F0.47968516002067735
sg25
F0.4173409993996994
sg26
F0.657342411107664
sg27
F0.9224107750349886
sg28
F0.5506411938324738
sg29
F0.10622958342158853
sg30
F0.960757970748489
sg31
F1.6347435588303276
sg32
I97
sg33
I35
saF-1468.7154908206826
aa(lp160
(dp161
g3
(lp162
F-267.2018690395985
aF-219.07257748012023
aF-211.59070940440415
aF-201.96033068580562
aF-168.58958178815533
aF-157.5640284104462
aF-142.49476773225445
aF-101.81096435464235
aF14.444106302967498
aF22.169239809547776
aF51.621209199216764
aF129.22447104141315
aF154.86137557633197
aF163.92424173585914
aF174.30303485562808
aF179.84626498452735
aF353.4345077056653
asg5
F0.8352962978663082
sg6
I29
sg7
F0.25858681381863313
sg8
F0.7556354225950092
sg9
I17
sg10
I98
sg11
F1.1044945612187802
sg12
I74
sg13
I47
sg14
F0.6847239551573447
sg15
I28
sg16
I1
sg17
F0.7481907855885532
sg18
F0.4506331793868205
sg19
F0.9406274207414154
sg20
F0.08191007877834305
sg21
I19
sg22
F0.5392930266682557
sg23
F0.8996543650100075
sg24
F0.5529574366801011
sg25
F0.355516073856484
sg26
F0.7309693467479697
sg27
F0.5990909964197312
sg28
F0.6442429799239201
sg29
F0.11691323207336493
sg30
F0.9651184714035486
sg31
F1.6246824209890431
sg32
I106
sg33
I40
saF-1470.2848288954265
aa(lp163
(dp164
g3
(lp165
F-385.6206014336856
aF-362.6193565331831
aF-327.9126526724199
aF-156.58664584644873
aF-98.01696059980543
aF-58.23609471281691
aF-51.63711022668792
aF-30.752441374881187
aF37.57472981938372
aF57.82881250801324
aF84.98280534868786
aF93.80315460481165
aF132.11618156850705
aF148.1897522175002
aF247.75978331848228
aF290.3415697012276
aF336.1012516077933
asg5
F0.8352962978663082
sg6
I29
sg7
F0.3153848148345824
sg8
F0.5523477793027105
sg9
I21
sg10
I103
sg11
F1.107911580481582
sg12
I81
sg13
I45
sg14
F0.6437802908557465
sg15
I23
sg16
I1
sg17
F0.758020960438552
sg18
F0.6315027673460347
sg19
F0.963939651452487
sg20
F0.08191007877834305
sg21
I16
sg22
F0.5616441497424944
sg23
F0.8996543650100075
sg24
F0.5988380882396604
sg25
F0.355516073856484
sg26
F0.7345060776490426
sg27
F0.7292298883795181
sg28
F0.6442429799239201
sg29
F0.16413068375461043
sg30
F0.9651184714035486
sg31
F1.6246824209890431
sg32
I106
sg33
I40
saF-1471.3818633999285
aa(lp166
(dp167
g3
(lp168
F-499.25856317860365
aF-433.39701613561624
aF-198.6554028342665
aF-116.42434790790969
aF-70.96688045011626
aF-68.91090951704712
aF-44.611488741169524
aF-42.492274012673306
aF-4.5647270482328395
aF48.54998434411368
aF59.25992643671907
aF125.13376926395676
aF277.0725190003145
aF286.1762146499366
aF321.0877574392864
aF330.44548455522454
aF691.8925775500975
asg5
F0.6715000607670063
sg6
I17
sg7
F0.3502324676555826
sg8
F0.7631900182064985
sg9
I19
sg10
I92
sg11
F1.0516414787575412
sg12
I83
sg13
I57
sg14
F0.5499631170727126
sg15
I14
sg16
I1
sg17
F0.8555608876170515
sg18
F0.10203422179760868
sg19
F0.7174654334645588
sg20
F0.08142474114633716
sg21
I30
sg22
F0.5041925862814032
sg23
F0.9176497463826391
sg24
F0.5823131373942048
sg25
F0.3874758026753277
sg26
F0.7408435669644449
sg27
F0.8775303789224074
sg28
F0.4698302036192263
sg29
F0.11127506842969012
sg30
F1.0
sg31
F1.6498352655922546
sg32
I90
sg33
I39
saF-1474.716882777402
aa(lp169
(dp170
g3
(lp171
F-360.1972480440602
aF-229.23800623292163
aF-198.09474005279128
aF-184.19855500733706
aF-175.92033982913892
aF-151.48150267147275
aF-124.40579728574357
aF-57.014215499944385
aF13.63318405400446
aF38.92261599649078
aF117.71770409532542
aF138.0726544243273
aF171.32359309951562
aF215.56319146560872
aF238.38519172148403
aF252.5630143907306
aF602.6873773535015
asg5
F0.6798004771598547
sg6
I20
sg7
F0.2017888128026838
sg8
F0.7556354225950092
sg9
I17
sg10
I93
sg11
F1.1044945612187802
sg12
I74
sg13
I50
sg14
F0.7256676194589431
sg15
I28
sg16
I1
sg17
F0.7383606107385544
sg18
F0.4506331793868205
sg19
F0.9406274207414154
sg20
F0.08469500073732864
sg21
I19
sg22
F0.5392930266682557
sg23
F0.6603113424411842
sg24
F0.5529574366801011
sg25
F0.3914598505494148
sg26
F0.7274326158468966
sg27
F0.5990909964197312
sg28
F0.6360085608195281
sg29
F0.11691323207336493
sg30
F0.9871774484822565
sg31
F1.6246824209890431
sg32
I86
sg33
I28
saF-1480.5504046234098
aa(lp172
(dp173
g3
(lp174
F-360.1972480440602
aF-229.23800623292163
aF-198.09474005279128
aF-184.19855500733706
aF-175.92033982913892
aF-151.48150267147275
aF-124.40579728574357
aF-57.014215499944385
aF13.63318405400446
aF38.92261599649078
aF117.71770409532542
aF138.0726544243273
aF171.32359309951562
aF215.56319146560872
aF238.38519172148403
aF252.5630143907306
aF602.6873773535015
asg5
F0.6798004771598547
sg6
I20
sg7
F0.2017888128026838
sg8
F0.7556354225950092
sg9
I17
sg10
I93
sg11
F1.1044945612187802
sg12
I74
sg13
I50
sg14
F0.7256676194589431
sg15
I16
sg16
I1
sg17
F0.7383606107385544
sg18
F0.4506331793868205
sg19
F0.9406274207414154
sg20
F0.08469500073732864
sg21
I19
sg22
F0.5392930266682557
sg23
F0.6603113424411842
sg24
F0.5529574366801011
sg25
F0.3914598505494148
sg26
F0.7274326158468966
sg27
F0.5990909964197312
sg28
F0.6360085608195281
sg29
F0.11691323207336493
sg30
F0.9871774484822565
sg31
F1.6246824209890431
sg32
I86
sg33
I28
saF-1480.5504046234098
aa(lp175
(dp176
g3
(lp177
F-420.5263558609581
aF-380.82159314880096
aF-329.6720134564131
aF-142.34452883958966
aF-118.19112354320521
aF-61.49096047908745
aF-32.67085543052474
aF4.42385860410468
aF67.94179466613423
aF72.02367693179713
aF211.91136659187646
aF220.49674890045776
aF288.93885581516383
aF348.3355643776722
aF359.7536062655847
aF439.3726742704994
aF816.690283504915
asg5
F0.6695735039558111
sg6
I29
sg7
F0.40265974057900833
sg8
F0.7028697642211763
sg9
I19
sg10
I93
sg11
F1.061675023517218
sg12
I82
sg13
I55
sg14
F0.5499631170727126
sg15
I25
sg16
I1
sg17
F0.8493103798954351
sg18
F0.6742890062311163
sg19
F0.8730841039053701
sg20
F0.08196441117443515
sg21
I9
sg22
F0.5615394947533614
sg23
F0.9176497463826391
sg24
F0.6133777331173572
sg25
F0.3107721511839155
sg26
F0.41979757112771376
sg27
F0.8998544710888147
sg28
F0.6146667190727645
sg29
F0.10073958943680704
sg30
F0.9604319967278274
sg31
F1.6271977054493643
sg32
I97
sg33
I42
saF-1481.2935721544745
aa(lp178
(dp179
g3
(lp180
F-442.7356715488419
aF-404.27791223714325
aF-323.9726605267048
aF-97.95584883997094
aF-82.36623225176868
aF-44.48591736718379
aF-43.32807062127779
aF-42.92405149393403
aF-21.018178046909156
aF6.8742505615863365
aF12.891865403988504
aF25.812140459272996
aF44.873354843096195
aF121.20383179019177
aF267.74860243442345
aF300.7879776829966
aF584.2875512415594
asg5
F0.6800146062803184
sg6
I19
sg7
F0.39757663885298156
sg8
F0.6828088161971728
sg9
I15
sg10
I96
sg11
F1.0811559636014108
sg12
I81
sg13
I55
sg14
F0.5499631170727126
sg15
I18
sg16
I1
sg17
F0.872345210252992
sg18
F0.5322318207571214
sg19
F0.9275791127303825
sg20
F0.07838154932064452
sg21
I12
sg22
F0.53993398792564
sg23
F0.933988611553412
sg24
F0.5193487653678664
sg25
F0.35048399461315133
sg26
F0.41979757112771376
sg27
F0.8998544710888147
sg28
F0.6360085608195281
sg29
F0.0954718499403655
sg30
F0.9628135439906047
sg31
F1.6397741277509699
sg32
I99
sg33
I40
saF-1482.0463648868251
aa(lp181
(dp182
g3
(lp183
F-445.1359188055312
aF-414.2251602206803
aF-371.3926488025687
aF-230.7199152655802
aF-213.20769672343772
aF-98.67838376282748
aF-44.23107085108961
aF18.79978052254694
aF37.0047150031794
aF69.77586284416839
aF73.48843008749645
aF154.2659452108137
aF154.75652832235755
aF158.21151007093886
aF240.53177744357458
aF400.6859716576089
aF401.2616266539503
asg5
F0.6798004771598547
sg6
I29
sg7
F0.40265974057900833
sg8
F0.7679591848922425
sg9
I21
sg10
I97
sg11
F1.082857154781001
sg12
I82
sg13
I49
sg14
F0.6187024416379596
sg15
I24
sg16
I1
sg17
F0.758020960438552
sg18
F0.6963281954239834
sg19
F0.9275791127303825
sg20
F0.07862421813664747
sg21
I16
sg22
F0.5512142044518924
sg23
F0.9588248731913196
sg24
F0.5871044786874202
sg25
F0.40814147595351846
sg26
F0.41979757112771376
sg27
F0.8775303789224074
sg28
F0.5933248773260009
sg29
F0.10073958943680704
sg30
F0.9427400846429546
sg31
F1.6271977054493643
sg32
I105
sg33
I38
saF-1798.7910139091682
aa(lp184
(dp185
g3
(lp186
F-353.40977881675406
aF-255.60995222696
aF-249.2472315950198
aF-181.2639302484166
aF-43.1338941870124
aF-32.970321511039174
aF-23.342355095441803
aF-22.04384357900392
aF13.42845922792253
aF25.23658854367477
aF42.104863370509975
aF55.981811581415286
aF61.33773035582567
aF176.9510067058784
aF217.9323938804946
aF248.2109088905695
aF453.96333113394167
asg5
F0.7017329113826144
sg6
I20
sg7
F0.24198175556283938
sg8
F0.6912235886450435
sg9
I17
sg10
I103
sg11
F1.1087331397999995
sg12
I77
sg13
I48
sg14
F0.6635820758435319
sg15
I8
sg16
I1
sg17
F0.8284326588431892
sg18
F0.5977143287286015
sg19
F0.9533755385778568
sg20
F0.08125308842432394
sg21
I18
sg22
F0.540038642914773
sg23
F0.800570417129936
sg24
F0.5529574366801011
sg25
F0.3914598505494148
sg26
F0.7274326158468966
sg27
F0.8858556414450054
sg28
F0.640125770371724
sg29
F0.17567329965813505
sg30
F0.9739677096153727
sg31
F1.6246824209890431
sg32
I103
sg33
I40
saF-1161.0213072596475
aa(lp187
(dp188
g3
(lp189
F-513.3568901076164
aF-298.0320293075804
aF-219.7238016677635
aF-170.89253156440077
aF-142.99522192998597
aF-130.6951203175165
aF-125.35770175484038
aF-82.26166176518166
aF-42.05670943459097
aF-27.11654058951376
aF-5.957681254901672
aF16.139454037878068
aF103.11270312740476
aF166.69737096973017
aF190.4988271539105
aF388.7668421841968
aF635.4791629633464
asg5
F0.7236653456053741
sg6
I14
sg7
F0.24198175556283938
sg8
F0.7679591848922425
sg9
I21
sg10
I71
sg11
F1.1085426792759783
sg12
I81
sg13
I48
sg14
F0.6187024416379596
sg15
I24
sg16
I1
sg17
F0.8015936915472927
sg18
F0.5977143287286015
sg19
F0.8561605334355387
sg20
F0.07732305887635198
sg21
I18
sg22
F0.56015291724946
sg23
F0.6603113424411842
sg24
F0.5656777725500489
sg25
F0.4472061961240711
sg26
F0.8280078388021838
sg27
F0.8858556414450054
sg28
F0.5506411938324738
sg29
F0.17567329965813505
sg30
F0.9454974567777931
sg31
F1.6246824209890431
sg32
I102
sg33
I40
saF-1683.3149584148855
aa(lp190
(dp191
g3
(lp192
F-432.7229298043985
aF-357.7242555861279
aF-161.71733916990036
aF-101.27656735444532
aF-70.17476052943869
aF-48.40656276906907
aF-47.71763660956685
aF-35.044010635181735
aF43.35363080582124
aF63.493143557511075
aF92.42121593540469
aF102.59738105974134
aF119.35626876414221
aF252.68137262191885
aF285.6412795477913
aF514.1947350741598
aF692.8858084150563
asg5
F0.8658387573855066
sg6
I24
sg7
F0.29399814314935846
sg8
F0.7338184038239296
sg9
I16
sg10
I95
sg11
F1.10339426982635
sg12
I83
sg13
I47
sg14
F0.6058596711490739
sg15
I32
sg16
I1
sg17
F0.8988443572478264
sg18
F0.5666773392680862
sg19
F0.963939651452487
sg20
F0.07865138433469351
sg21
I20
sg22
F0.6240500853295671
sg23
F0.9297133359730125
sg24
F0.48840598151043646
sg25
F0.35199614700843085
sg26
F0.8280078388021838
sg27
F0.5883354815694954
sg28
F0.6128367718623621
sg29
F0.11157140774747673
sg30
F0.8548058137795377
sg31
F1.630970632139846
sg32
I91
sg33
I32
saF-1254.7840624581286
aa(lp193
(dp194
g3
(lp195
F-481.95606001973385
aF-311.9906791203591
aF-282.0479955375837
aF-189.31272887322348
aF-110.30361224338924
aF-96.36543254324147
aF-87.2962186511786
aF-72.57775592254836
aF-19.89971092771782
aF112.19022860476025
aF135.33740043854345
aF214.94364069321796
aF233.87808656740708
aF245.199509068751
aF266.21885463701847
aF272.4297285051334
aF308.4320868889715
asg5
F0.7149925760375437
sg6
I19
sg7
F0.3131955944962995
sg8
F0.6486287734661573
sg9
I19
sg10
I93
sg11
F1.1023380948651935
sg12
I77
sg13
I44
sg14
F0.6187024416379596
sg15
I16
sg16
I1
sg17
F0.8341277319135971
sg18
F0.586001366771336
sg19
F0.8495785586403906
sg20
F0.07533835749495188
sg21
I24
sg22
F0.5191787523335687
sg23
F0.8715699935768946
sg24
F0.5193487653678664
sg25
F0.41933302333674294
sg26
F0.7028171682719762
sg27
F0.9184297431531068
sg28
F0.6069239101930906
sg29
F0.11157140774747673
sg30
F0.9597935001827117
sg31
F1.6397741277509699
sg32
I107
sg33
I37
saF-1631.8504829112576
aa(lp196
(dp197
g3
(lp198
F-405.9569870604382
aF-372.7321141922123
aF-264.9216692334162
aF-196.71355330993708
aF-181.57019285715774
aF-168.42079894303993
aF-83.54095286033953
aF-44.147215093443606
aF12.623741216427902
aF26.369747169999073
aF41.42587143994092
aF73.80677636626206
aF120.87267580246203
aF136.7919986794102
aF153.2454812941928
aF326.01267212104494
aF786.9160202434803
asg5
F0.8352962978663082
sg6
I29
sg7
F0.35431631223840365
sg8
F0.7028697642211763
sg9
I21
sg10
I91
sg11
F1.1201899162412503
sg12
I114
sg13
I46
sg14
F0.6437802908557465
sg15
I25
sg16
I1
sg17
F0.708783482646317
sg18
F0.08251168725850977
sg19
F0.8887664545445062
sg20
F0.08191007877834305
sg21
I23
sg22
F0.5404114510380316
sg23
F0.8816589836373758
sg24
F0.5988380882396604
sg25
F0.355516073856484
sg26
F0.7345060776490426
sg27
F0.9224107750349886
sg28
F0.3245590681695596
sg29
F0.25772403079331885
sg30
F0.5041237177316611
sg31
F1.6246824209890431
sg32
I101
sg33
I38
saF-1718.0034835499846
aa(lp199
(dp200
g3
(lp201
F-647.7237737951414
aF-437.22543118899864
aF-406.10262378091124
aF-321.33225390703524
aF-256.8625779499397
aF-72.40469163427088
aF-68.95003484139784
aF-13.813442649726198
aF-10.51930760237724
aF-9.036340095839819
aF156.47287655455102
aF160.767491043973
aF169.62973762831916
aF185.12652403886273
aF237.84944897708283
aF287.70836152813104
aF359.36357663677563
asg5
F0.7742694323816861
sg6
I29
sg7
F0.2498024895685585
sg8
F0.7556354225950092
sg9
I21
sg10
I96
sg11
F1.1044945612187802
sg12
I81
sg13
I136
sg14
F0.571529898331881
sg15
I28
sg16
I1
sg17
F0.7481907855885532
sg18
F0.6963281954239834
sg19
F0.8135932576365255
sg20
F0.08191007877834305
sg21
I17
sg22
F0.5594073010029428
sg23
F0.9176497463826391
sg24
F0.5529574366801011
sg25
F0.355516073856484
sg26
F0.6841247420039747
sg27
F0.8800721776401284
sg28
F0.6442429799239201
sg29
F0.11691323207336493
sg30
F0.9476777071053228
sg31
F1.6246824209890431
sg32
I106
sg33
I36
saF-2224.414829747421
aa(lp202
(dp203
g3
(lp204
F-518.0546722096186
aF-399.43344674410514
aF-356.31676681687907
aF-347.948931408248
aF-322.0338199527389
aF-298.6223913580046
aF-253.07761924572594
aF-164.22746300679626
aF-118.8854345233334
aF-63.79413157650197
aF-38.284762446468335
aF-26.614753537681054
aF20.31304434103822
aF157.7568602947947
aF255.79408958644717
aF267.00214649793793
aF377.27063755539143
asg5
F0.6772654402437949
sg6
I19
sg7
F0.37830895768106093
sg8
F0.6969799442642035
sg9
I15
sg10
I94
sg11
F1.0928111638687863
sg12
I81
sg13
I13
sg14
F0.5499631170727126
sg15
I18
sg16
I1
sg17
F0.8417470240086149
sg18
F0.5573914836003232
sg19
F0.8561605334355387
sg20
F0.08017298024753983
sg21
I12
sg22
F0.53993398792564
sg23
F0.966994305776706
sg24
F0.6031299517268706
sg25
F0.8071307342878218
sg26
F0.5439920671378654
sg27
F0.8899633243644716
sg28
F0.6546103401600316
sg29
F0.17567329965813505
sg30
F0.9465252433988509
sg31
F1.637258843290649
sg32
I99
sg33
I38
saF-2659.715110742117
aa(lp205
(dp206
g3
(lp207
F-470.30599714516245
aF-359.64343106610454
aF-306.1397594710734
aF-178.9855491340627
aF-32.63158067303243
aF-9.768910234413966
aF11.077908653293775
aF20.377133322062605
aF74.03385913442708
aF84.87073655501604
aF94.07956721419373
aF160.03717574669145
aF171.86425350196077
aF236.07823367698074
aF255.98444739272873
aF282.0336674176667
aF597.8729655484699
asg5
F0.6715000607670063
sg6
I20
sg7
F0.3590412765091403
sg8
F0.6144879923978445
sg9
I17
sg10
I92
sg11
F1.1095546991184169
sg12
I82
sg13
I53
sg14
F0.45818714141602007
sg15
I15
sg16
I1
sg17
F0.8908820701880441
sg18
F0.582551146443525
sg19
F0.8561605334355387
sg20
F0.07740736639592705
sg21
I23
sg22
F0.5711497750201417
sg23
F0.9006549534483695
sg24
F0.6031299517268706
sg25
F0.4472061961240711
sg26
F0.7132628024414756
sg27
F0.9191493597351872
sg28
F0.7957830451685968
sg29
F0.1747685542229634
sg30
F0.834702795676652
sg31
F1.6246824209890431
sg32
I87
sg33
I38
saF-1326.020185748493
aa(lp208
(dp209
g3
(lp210
F-369.985085404571
aF-360.73880692745945
aF-300.48535906653865
aF-153.66538966869336
aF-152.8007513187681
aF-62.932362999660654
aF-42.56784919997074
aF-30.003126072411987
aF-17.013855599891144
aF50.52335834168548
aF53.955577853362456
aF68.39364391626441
aF78.58920267209737
aF94.79595189263114
aF108.78370053108301
aF343.97493878678233
aF419.89413622557254
asg5
F0.7614133836272086
sg6
I14
sg7
F0.24110192872929792
sg8
F0.7823139738515761
sg9
I21
sg10
I93
sg11
F1.0945778484325261
sg12
I81
sg13
I50
sg14
F0.5900456135395613
sg15
I15
sg16
I1
sg17
F0.8168944580283339
sg18
F0.6051230806241287
sg19
F0.906589135751719
sg20
F0.0781037259256243
sg21
I18
sg22
F0.5623897659890117
sg23
F0.9176497463826391
sg24
F0.5871044786874202
sg25
F0.3721669156194296
sg26
F0.657342411107664
sg27
F0.863553108431682
sg28
F0.5933248773260009
sg29
F0.12084551548833442
sg30
F0.9458167050503509
sg31
F1.6259400632192036
sg32
I97
sg33
I42
saF-1473.1787306580738
aa(lp211
(dp212
g3
(lp213
F-424.5429098929151
aF-283.12502500846995
aF-230.10347431209118
aF-213.51280528105372
aF-191.54232294063434
aF-145.42565472621231
aF-23.74987880013714
aF6.122649525092811
aF89.5979752266237
aF106.8370117018535
aF139.70990982102035
aF238.56256553857156
aF254.25519548533225
aF285.81886051366473
aF388.85796639773866
aF528.1276919999796
aF558.4432707228059
asg5
F0.7132425668970639
sg6
I19
sg7
F0.3131955944962995
sg8
F0.7028697642211763
sg9
I23
sg10
I91
sg11
F1.094754091176684
sg12
I81
sg13
I55
sg14
F0.5499631170727126
sg15
I18
sg16
I1
sg17
F0.872345210252992
sg18
F0.5190678154638284
sg19
F0.9275791127303825
sg20
F0.08531980397091102
sg21
I16
sg22
F0.53993398792564
sg23
F0.9258191789680255
sg24
F0.5193487653678664
sg25
F0.36164279339710487
sg26
F0.6756509009946641
sg27
F0.8998544710888147
sg28
F0.4802838144945438
sg29
F0.0954718499403655
sg30
F0.9628135439906047
sg31
F1.6246824209890431
sg32
I99
sg33
I33
saF-1505.8794214364207
aa(lp214
(dp215
g3
(lp216
F-430.0069995948014
aF-411.4973665101811
aF-276.6293286314366
aF-159.2412264751672
aF-102.14417682083945
aF-69.88661789255536
aF-65.66574785103353
aF-35.77630537185996
aF1.2345332050649631
aF26.52960417551435
aF68.52680401419548
aF145.534741556374
aF166.59225879582095
aF184.57023101446725
aF265.71230500515594
aF312.94902614609464
aF524.0695002713039
asg5
F0.6412883135905258
sg6
I35
sg7
F0.30500045703620265
sg8
F0.7456199135214503
sg9
I18
sg10
I92
sg11
F1.1095546991184169
sg12
I114
sg13
I52
sg14
F0.6240771592222535
sg15
I25
sg16
I1
sg17
F0.7772930000336455
sg18
F0.6287513181891169
sg19
F0.8561605334355387
sg20
F0.07230506306092266
sg21
I21
sg22
F0.5392930266682557
sg23
F1.0
sg24
F0.5406795087288732
sg25
F0.4173409993996994
sg26
F0.89211613935996
sg27
F0.9224107750349886
sg28
F0.4376001310010167
sg29
F0.17567329965813505
sg30
F0.960757970748489
sg31
F1.6347435588303276
sg32
I84
sg33
I36
saF-1550.8477691478745
aa(lp217
(dp218
g3
(lp219
F-349.688956880114
aF-340.96065184830854
aF-277.58617741269256
aF-249.40761060250384
aF-132.39243970689972
aF-130.87574429567871
aF-101.58106392879733
aF-77.42727270702096
aF-56.17593612067151
aF-9.440449927589725
aF19.7558006687093
aF38.26521710428119
aF251.90596719222276
aF301.17855918597706
aF306.05727036853636
aF497.6457573483028
aF534.2426180477678
asg5
F0.7386763679291893
sg6
I15
sg7
F0.2017888128026838
sg8
F0.7823139738515761
sg9
I21
sg10
I95
sg11
F1.106298542084051
sg12
I81
sg13
I50
sg14
F0.5900456135395613
sg15
I24
sg16
I1
sg17
F0.8168944580283339
sg18
F0.5859002099461075
sg19
F0.8813748345936288
sg20
F0.07429737307290554
sg21
I18
sg22
F0.5467665206556923
sg23
F0.6603113424411842
sg24
F0.5656777725500489
sg25
F0.39234639896338913
sg26
F0.6923875134772803
sg27
F0.8495758379409566
sg28
F0.5506411938324738
sg29
F0.14095144153986178
sg30
F0.9427400846429546
sg31
F1.6278265265644447
sg32
I114
sg33
I35
saF-1659.9199173820157
aa(lp220
(dp221
g3
(lp222
F-463.7865827456269
aF-424.3159986003287
aF-391.2492839816142
aF-279.3948432196638
aF-273.1942415830025
aF-148.493119461079
aF-89.45114516241176
aF-62.550656354687476
aF-22.941419955857327
aF14.070696590527746
aF26.41807087685106
aF175.81184077725902
aF237.9018918975603
aF247.6094913261079
aF275.3122047513921
aF300.4627996338231
aF329.23465211922894
asg5
F0.6235774803417071
sg6
I17
sg7
F0.7717990268574966
sg8
F0.7655746015493705
sg9
I20
sg10
I91
sg11
F1.1097750182536044
sg12
I81
sg13
I53
sg14
F0.29142565992264724
sg15
I14
sg16
I1
sg17
F0.7364224041478324
sg18
F0.5007158968505563
sg19
F0.7174654334645588
sg20
F0.07533835749495188
sg21
I20
sg22
F0.5594073010029428
sg23
F1.0
sg24
F0.5739954549721269
sg25
F0.40814147595351846
sg26
F0.7132628024414756
sg27
F0.8075427649122617
sg28
F0.5933248773260009
sg29
F0.16990199170637274
sg30
F0.9427400846429546
sg31
F1.630970632139846
sg32
I100
sg33
I36
saF-2132.435871108414
aa(lp223
(dp224
g3
(lp225
F-304.6075467112013
aF-284.73126389273455
aF-265.34928876480694
aF-252.2647862048683
aF-251.27600798765786
aF-112.11785989196028
aF-72.322461293331
aF-14.001043834408847
aF27.640201807364292
aF40.96478089200036
aF62.258152798451874
aF70.775145184135
aF72.21567445565324
aF128.1930641800277
aF142.7241900241013
aF155.15975088446748
aF227.89576523532742
asg5
F0.6799075417200866
sg6
I16
sg7
F0.2996827258278327
sg8
F0.6828088161971728
sg9
I15
sg10
I94
sg11
F1.108352218751957
sg12
I81
sg13
I49
sg14
F0.5499631170727126
sg15
I21
sg16
I1
sg17
F0.872345210252992
sg18
F0.568677450690625
sg19
F0.8561605334355387
sg20
F0.07683494164138471
sg21
I18
sg22
F0.5594073010029428
sg23
F0.6603113424411842
sg24
F0.5193487653678664
sg25
F0.3635176582932056
sg26
F0.41979757112771376
sg27
F0.8858556414450054
sg28
F0.5933248773260009
sg29
F0.13557257479925028
sg30
F0.9465252433988509
sg31
F1.6246824209890431
sg32
I102
sg33
I36
saF-1556.6702585809694
aa(lp226
(dp227
g3
(lp228
F-377.1266784731704
aF-253.99983298398945
aF-251.92639316477903
aF-184.80680467752438
aF-142.57230617775951
aF-50.821041874055936
aF-8.057997112407861
aF8.799606498609819
aF18.91024916315439
aF48.14706834453409
aF50.70069645831063
aF74.00860798015697
aF114.21738717638391
aF147.17055621035638
aF186.83337452730848
aF310.8074158647876
aF496.14140445938847
asg5
F0.7886968384845616
sg6
I23
sg7
F0.27173949829648125
sg8
F0.7823139738515761
sg9
I15
sg10
I93
sg11
F1.1078975843298562
sg12
I82
sg13
I50
sg14
F0.5900456135395613
sg15
I17
sg16
I1
sg17
F0.8988443572478264
sg18
F0.6011160027972594
sg19
F0.9280802667177693
sg20
F0.07533835749495188
sg21
I21
sg22
F0.5499570623059744
sg23
F0.8424850337054195
sg24
F0.4716861312602998
sg25
F0.3914598505494148
sg26
F0.6856820379185061
sg27
F0.9204413008197102
sg28
F0.4482710518743985
sg29
F0.12626142464366927
sg30
F0.9522959198858051
sg31
F1.6246824209890431
sg32
I128
sg33
I32
saF-1260.5114479650767
aa(lp229
(dp230
g3
(lp231
F-389.89583391842723
aF-357.6090838170238
aF-253.843020920252
aF-212.93552818206695
aF-132.36946651211554
aF-123.72382313161484
aF-42.63020216006282
aF-39.91501107429394
aF22.702798396720254
aF61.61369744067133
aF114.24966002915835
aF119.46985083875393
aF142.89111781071483
aF144.09419433693097
aF308.0882589346045
aF326.3654798228383
aF408.6621220242009
asg5
F0.5911888359278195
sg6
I19
sg7
F0.3131955944962995
sg8
F0.6315583829320008
sg9
I16
sg10
I93
sg11
F1.1111978177552517
sg12
I81
sg13
I52
sg14
F0.5889046099334989
sg15
I22
sg16
I1
sg17
F0.8988443572478264
sg18
F0.6287513181891169
sg19
F0.8561605334355387
sg20
F0.07285032161741896
sg21
I30
sg22
F0.5191787523335687
sg23
F1.0
sg24
F0.5406795087288732
sg25
F0.4472061961240711
sg26
F0.8030689020446542
sg27
F0.9224107750349886
sg28
F0.8037681980963974
sg29
F0.17567329965813505
sg30
F0.960757970748489
sg31
F1.6246824209890431
sg32
I99
sg33
I35
saF-1552.9219697158574
aa(lp232
(dp233
g3
(lp234
F-507.98012576358155
aF-386.698907317155
aF-295.61182809022625
aF-274.4871668643974
aF-211.019406529015
aF-190.19381395813093
aF-119.43462843258135
aF-45.321886239748665
aF61.195294140964506
aF67.60034679548312
aF100.12744621011802
aF100.55978007342787
aF206.8223141741414
aF379.38394675082986
aF411.36346197956664
aF466.71044357837604
aF654.4295856992189
asg5
F0.5911888359278195
sg6
I24
sg7
F0.3153848148345824
sg8
F0.7028697642211763
sg9
I18
sg10
I75
sg11
F1.1095546991184169
sg12
I82
sg13
I75
sg14
F0.5739648850726558
sg15
I24
sg16
I1
sg17
F0.7896340415770771
sg18
F0.5818672940515781
sg19
F0.8275139745747787
sg20
F0.07938501609307062
sg21
I16
sg22
F0.5396658347915144
sg23
F0.8906566743236917
sg24
F0.5334022726978771
sg25
F0.40136113499027753
sg26
F0.6540605855681739
sg27
F0.7292298883795181
sg28
F0.563265094374748
sg29
F0.16413068375461043
sg30
F0.9678077430524763
sg31
F1.6385164855208094
sg32
I106
sg33
I37
saF-2030.747763194836
aa(lp235
(dp236
g3
(lp237
F-318.2883063070037
aF-317.71789037324925
aF-250.8027887374226
aF-207.32976550612182
aF-81.44900729181529
aF-77.7588997614697
aF-71.95959972525839
aF-23.794193262624958
aF33.13494803672552
aF57.74297020058907
aF81.85355525152863
aF120.29175220919933
aF194.91861373490542
aF218.02363351168378
aF233.83354052416303
aF240.9920469609583
aF351.1458754180919
asg5
F0.6921528886435285
sg6
I19
sg7
F0.28041504465591205
sg8
F0.7695517615292112
sg9
I16
sg10
I93
sg11
F1.1040392860447839
sg12
I81
sg13
I50
sg14
F0.5345711538068725
sg15
I20
sg16
I1
sg17
F0.7760238621425208
sg18
F0.4810139108468308
sg19
F0.9632815892561938
sg20
F0.07683494164138471
sg21
I17
sg22
F0.5594073010029428
sg23
F0.9091523499155043
sg24
F0.41869081131248154
sg25
F0.29017666650582197
sg26
F0.5285388541938467
sg27
F0.8989600892620848
sg28
F0.5506411938324738
sg29
F0.5306618444810446
sg30
F1.0
sg31
F1.6498352655922546
sg32
I97
sg33
I33
saF-1349.1004509649658
aa(lp238
(dp239
g3
(lp240
F-421.8553135086246
aF-270.5108482593039
aF-259.48997928758354
aF-138.22094256181038
aF-106.18196165573136
aF-99.33849241334235
aF-94.88983051053401
aF-73.45034176031697
aF-48.02974804186056
aF22.761974398703273
aF46.003561232788115
aF117.69653506780219
aF213.3188622698392
aF245.64004760017178
aF325.3241071146399
aF330.0976515993766
aF332.41716190372154
asg5
F0.6798004771598547
sg6
I20
sg7
F0.2017888128026838
sg8
F0.7679591848922425
sg9
I17
sg10
I93
sg11
F1.1044945612187802
sg12
I82
sg13
I48
sg14
F0.6721850305484514
sg15
I28
sg16
I1
sg17
F0.7432756981635538
sg18
F0.5666773392680862
sg19
F0.9406274207414154
sg20
F0.08125308842432394
sg21
I33
sg22
F0.540038642914773
sg23
F0.6603113424411842
sg24
F0.3430837459244386
sg25
F0.3914598505494148
sg26
F0.7274326158468966
sg27
F0.5990909964197312
sg28
F0.6360085608195281
sg29
F0.1405219579139877
sg30
F0.9871774484822565
sg31
F1.6246824209890431
sg32
I86
sg33
I36
saF-1463.937709957247
aa(lp241
(dp242
g3
(lp243
F-398.5588412887927
aF-364.9654740401304
aF-359.8444292228047
aF-150.4925406450585
aF-144.14823936811115
aF-86.87210929262801
aF-81.09825727836494
aF-10.313455443668545
aF40.640987368833976
aF96.52725640796575
aF138.87777211754587
aF151.73401809403754
aF166.89581835975446
aF234.61702802244827
aF345.1346617078532
aF448.557670741998
aF599.4388467993103
asg5
F0.6412883135905258
sg6
I23
sg7
F0.26071660498719795
sg8
F0.48586983438455156
sg9
I20
sg10
I95
sg11
F1.1064454482010055
sg12
I81
sg13
I49
sg14
F0.5241907275229892
sg15
I10
sg16
I1
sg17
F0.7234533182806493
sg18
F0.6963281954239834
sg19
F0.8135932576365255
sg20
F0.07519201132053692
sg21
I18
sg22
F0.5594073010029428
sg23
F0.8424850337054195
sg24
F0.49240549589062516
sg25
F0.3914598505494148
sg26
F0.657342411107664
sg27
F0.8800721776401284
sg28
F0.4376001310010167
sg29
F0.1797266731064009
sg30
F0.9412664313464512
sg31
F1.6246824209890431
sg32
I102
sg33
I33
saF-1596.2933465795593
aa(lp244
(dp245
g3
(lp246
F-467.7867633696238
aF-343.2286988694682
aF-319.33789852101904
aF-251.8083168562673
aF-79.52131874772249
aF-78.25008930226625
aF-54.93800360721332
aF5.5553520381590715
aF66.56271633759889
aF93.92731203448238
aF108.10959823122926
aF132.5570582553653
aF206.9897956064649
aF314.0596376770932
aF340.84018042746334
aF359.65229791283423
aF583.7307675976531
asg5
F0.7886968384845616
sg6
I20
sg7
F0.2968053195761058
sg8
F0.6144879923978445
sg9
I16
sg10
I93
sg11
F1.1080000736597113
sg12
I81
sg13
I52
sg14
F0.5900456135395613
sg15
I16
sg16
I1
sg17
F0.8776701366354243
sg18
F0.6625397568065501
sg19
F0.8561605334355387
sg20
F0.07285032161741896
sg21
I17
sg22
F0.5191787523335687
sg23
F0.8715699935768946
sg24
F0.41335812547222983
sg25
F0.41933302333674294
sg26
F0.7274326158468966
sg27
F0.9224107750349886
sg28
F0.5506411938324738
sg29
F0.16632200879082892
sg30
F0.9522959198858051
sg31
F1.6297129899096854
sg32
I95
sg33
I38
saF-1589.3157372354217
aa(lp247
(dp248
g3
(lp249
F-414.44770362942677
aF-381.72677991388923
aF-354.05800372657575
aF-251.10149882213136
aF-164.86149729537215
aF-157.41254043123297
aF-3.6998491261343815
aF7.478189936899412
aF55.41257538977902
aF125.08904612507627
aF133.02045068384177
aF149.20331909686433
aF151.29054383992298
aF151.37947686004827
aF199.8991629728405
aF338.93936389124383
aF472.39398820870133
asg5
F0.7699108991107759
sg6
I29
sg7
F0.2511538021496904
sg8
F0.8035103815986713
sg9
I18
sg10
I103
sg11
F1.116243999543407
sg12
I75
sg13
I51
sg14
F0.6187024416379596
sg15
I27
sg16
I1
sg17
F0.758020960438552
sg18
F0.5666773392680862
sg19
F0.963939651452487
sg20
F0.07856355093264673
sg21
I40
sg22
F0.7300442016520268
sg23
F0.8621651532586988
sg24
F0.5193487653678664
sg25
F0.43225706374348327
sg26
F0.9104875028968713
sg27
F0.7292298883795181
sg28
F0.6038374848172964
sg29
F0.16413068375461043
sg30
F0.834702795676652
sg31
F1.6246824209890431
sg32
I55
sg33
I40
saF-1719.829683007863
aa(lp250
(dp251
g3
(lp252
F-326.9869686893428
aF-301.3613397328767
aF-297.8028949327621
aF-296.7297773298375
aF-263.0995322397704
aF-239.272164018088
aF-151.6398417988877
aF0.08702408654960436
aF18.826819355801263
aF66.96485439257253
aF159.72862687998008
aF178.611299018542
aF192.4022823250898
aF228.3481788359045
aF289.8588637584269
aF578.4729606239648
aF735.0235633590739
asg5
F0.635601721104069
sg6
I19
sg7
F0.3131955944962995
sg8
F0.6657187948316651
sg9
I15
sg10
I94
sg11
F1.0961768906783314
sg12
I81
sg13
I55
sg14
F0.5499631170727126
sg15
I20
sg16
I1
sg17
F0.8855947837504092
sg18
F0.5804915694731192
sg19
F0.9275791127303825
sg20
F0.07838154932064452
sg21
I21
sg22
F0.5295563701296043
sg23
F1.0
sg24
F0.5193487653678664
sg25
F0.35048399461315133
sg26
F0.566909617928531
sg27
F0.9091421071209607
sg28
F0.9284851427842841
sg29
F0.0954718499403655
sg30
F0.948576018502663
sg31
F1.6498352655922546
sg32
I106
sg33
I40
saF-1876.805494655015
aa(lp253
(dp254
g3
(lp255
F-374.7973376238522
aF-341.0826517992841
aF-306.4766099781367
aF-133.44783100631923
aF-107.40900569112534
aF-65.56630900109951
aF-55.396969107665086
aF-40.60158309395729
aF3.047737672277094
aF5.3951608316642705
aF19.911296386994195
aF38.12851866620986
aF107.99620783186265
aF128.7309092942155
aF236.10080840464184
aF332.7548118446182
aF426.18883602984124
asg5
F0.6412883135905258
sg6
I28
sg7
F0.32792329804262305
sg8
F0.8343967931330585
sg9
I16
sg10
I93
sg11
F1.1006369036856034
sg12
I81
sg13
I50
sg14
F0.6294518768065474
sg15
I21
sg16
I1
sg17
F0.6980900840442688
sg18
F0.6287513181891169
sg19
F0.8178389987061738
sg20
F0.07786826904664708
sg21
I12
sg22
F0.5594073010029428
sg23
F0.8393355722241896
sg24
F0.5101823343747752
sg25
F0.3874758026753277
sg26
F0.657342411107664
sg27
F0.9158879444353858
sg28
F0.5506411938324738
sg29
F0.10622958342158853
sg30
F0.9803789853742445
sg31
F1.6246824209890431
sg32
I90
sg33
I33
saF-1424.7782973014391
aa(lp256
(dp257
g3
(lp258
F-469.42255151804693
aF-443.9469703638582
aF-296.46247424193666
aF-235.50221384738632
aF-226.90582479073453
aF-190.75543634941573
aF-179.11449146731297
aF-87.55316377289864
aF-41.5432282448553
aF-9.580885444059845
aF52.32449402340421
aF80.91818053801921
aF116.74235465364427
aF162.4923808049773
aF290.63829492396326
aF304.5082852059693
aF371.49977336527377
asg5
F0.6798004771598547
sg6
I2
sg7
F0.24110192872929792
sg8
F0.7679591848922425
sg9
I16
sg10
I101
sg11
F1.1073988334764813
sg12
I78
sg13
I77
sg14
F0.5900456135395613
sg15
I30
sg16
I4
sg17
F0.7974282633807883
sg18
F0.5814948430591405
sg19
F0.8561605334355387
sg20
F0.08001667911614026
sg21
I19
sg22
F0.5357556905776184
sg23
F0.6603113424411842
sg24
F0.48929674505177945
sg25
F0.3914598505494148
sg26
F0.6923875134772803
sg27
F0.9021637340247186
sg28
F0.6360085608195281
sg29
F0.10088775909570034
sg30
F0.9697366841840308
sg31
F1.6397741277509699
sg32
I105
sg33
I34
saF-2129.66312635159
aa(lp259
(dp260
g3
(lp261
F-440.41583319161134
aF-324.5818492784231
aF-322.25971087843857
aF-284.35268055134236
aF-211.07142324119673
aF-183.5036426665814
aF-175.86212171339207
aF-173.69430289649688
aF-116.06249473936919
aF-35.587114166658694
aF-33.26133863227233
aF-22.560750634591727
aF31.5685089295539
aF115.40216569617587
aF207.2023989002828
aF301.57226332547907
aF635.8470554371402
asg5
F0.816975263777576
sg6
I20
sg7
F0.2968053195761058
sg8
F0.7338184038239296
sg9
I15
sg10
I93
sg11
F1.1058732442891535
sg12
I83
sg13
I50
sg14
F0.5900456135395613
sg15
I21
sg16
I1
sg17
F0.37049978322609045
sg18
F0.5666773392680862
sg19
F1.0
sg20
F0.08200893156280195
sg21
I21
sg22
F0.5858157905599238
sg23
F0.8424850337054195
sg24
F0.4800460563853681
sg25
F0.366014711743997
sg26
F0.6856820379185061
sg27
F0.8820626935810691
sg28
F0.05587706950726479
sg29
F0.11023595166600468
sg30
F0.9035508668326714
sg31
F1.630970632139846
sg32
I109
sg33
I32
saF-2115.741564417482
aa(lp262
(dp263
g3
(lp264
F-548.8697711041943
aF-442.8711902968922
aF-264.6718008875067
aF-246.66520734547657
aF-139.61133773403503
aF-138.89876497206933
aF-68.00836449880808
aF-16.587472601852596
aF-16.058607980888723
aF53.00037736865602
aF54.41523494831222
aF109.70497396994392
aF126.92786106261451
aF184.34562660888082
aF309.35043441581206
aF366.2582945837032
aF598.2442659125845
asg5
F0.6715000607670063
sg6
I24
sg7
F0.3153848148345824
sg8
F0.5523477793027105
sg9
I16
sg10
I93
sg11
F1.1087331397999995
sg12
I81
sg13
I56
sg14
F0.6187024416379596
sg15
I22
sg16
I1
sg17
F0.8988443572478264
sg18
F0.6301270427675758
sg19
F0.8561605334355387
sg20
F0.07285032161741896
sg21
I29
sg22
F0.5616441497424944
sg23
F0.8458876149250799
sg24
F0.5406795087288732
sg25
F0.4472061961240711
sg26
F0.8133111085045013
sg27
F0.8258203317072533
sg28
F0.6442429799239201
sg29
F0.16413068375461043
sg30
F0.960757970748489
sg31
F1.6246824209890431
sg32
I95
sg33
I39
saF-1866.183909440835
aa(lp265
(dp266
g3
(lp267
F-509.9535589896258
aF-334.97378557078105
aF-294.3862718335074
aF-263.2820508790775
aF-258.16951659150516
aF-224.96900205396832
aF-65.16046705765052
aF16.408407204182026
aF45.46361196770749
aF55.65594286927876
aF79.98308070489907
aF111.5519321287909
aF143.26992490752355
aF392.450160832896
aF403.8004993909799
aF417.196411377146
aF423.49678904546045
asg5
F0.6412883135905258
sg6
I28
sg7
F0.3415373926174602
sg8
F0.7028697642211763
sg9
I16
sg10
I93
sg11
F1.082857154781001
sg12
I81
sg13
I51
sg14
F0.58970749693963
sg15
I10
sg16
I1
sg17
F0.7676569802360989
sg18
F0.6963281954239834
sg19
F0.9208072944330905
sg20
F0.07683494164138471
sg21
I16
sg22
F0.5623897659890117
sg23
F0.8784926593034144
sg24
F0.5136109980686365
sg25
F0.7544424770745223
sg26
F0.41979757112771376
sg27
F0.8377252787232885
sg28
F0.5933248773260009
sg29
F0.10622958342158853
sg30
F0.9513314493200278
sg31
F1.6309706321398458
sg32
I104
sg33
I33
saF-1934.4862457719337
aa(lp268
(dp269
g3
(lp270
F-381.2625217399079
aF-301.2031987738917
aF-267.55110743382704
aF-235.90530413604142
aF-118.5305018414058
aF-68.63092208782984
aF-34.432181306537245
aF-9.117755211791518
aF-6.763056962496762
aF20.09966479968955
aF52.34190948853211
aF53.87795081651893
aF59.16182810388818
aF74.75473596281108
aF111.69156075608817
aF245.69309982834898
aF618.4654769330261
asg5
F0.6798004771598547
sg6
I20
sg7
F0.3376768604421615
sg8
F0.7679591848922425
sg9
I16
sg10
I94
sg11
F1.1111978177552517
sg12
I81
sg13
I47
sg14
F0.6635820758435319
sg15
I27
sg16
I1
sg17
F0.7432756981635538
sg18
F0.5666773392680862
sg19
F0.963939651452487
sg20
F0.07829572295963791
sg21
I19
sg22
F0.540038642914773
sg23
F0.6603113424411842
sg24
F0.3383883340397541
sg25
F0.41933302333674294
sg26
F0.7240798780675095
sg27
F0.8075427649122617
sg28
F0.6360085608195281
sg29
F0.1382805293769177
sg30
F0.9343384930147214
sg31
F1.6246824209890431
sg32
I72
sg33
I36
saF-1416.6334925312326
aa(lp271
(dp272
g3
(lp273
F-322.91030385859733
aF-316.30965683787383
aF-278.5872321923805
aF-123.84714341312178
aF-103.82470774588114
aF-65.23088067120568
aF-51.10321783565735
aF-31.87618291695196
aF-25.821052580736364
aF12.29185097291679
aF47.62404752338671
aF130.7316060504686
aF162.92656776129525
aF243.88574823909062
aF247.84015090471667
aF249.2975008920564
aF306.1071366471758
asg5
F0.7236653456053741
sg6
I24
sg7
F0.28217469832299497
sg8
F0.6144879923978445
sg9
I21
sg10
I103
sg11
F1.1087331397999995
sg12
I77
sg13
I47
sg14
F0.6187024416379596
sg15
I27
sg16
I1
sg17
F0.8284326588431892
sg18
F0.6146085480373181
sg19
F0.9819698257262435
sg20
F0.08191007877834305
sg21
I16
sg22
F0.578691827998179
sg23
F0.9202419284143477
sg24
F0.5988380882396604
sg25
F0.40136113499027753
sg26
F0.8280078388021838
sg27
F0.7292298883795181
sg28
F0.6442429799239201
sg29
F0.17567329965813505
sg30
F0.9651184714035486
sg31
F1.6246824209890431
sg32
I95
sg33
I40
saF-1293.6893254716697
aa(lp274
(dp275
g3
(lp276
F-401.9023252452779
aF-240.0213590958822
aF-223.0192107851666
aF-214.52762592224178
aF-194.3362749481431
aF-156.64001283711366
aF-35.488898542637
aF-7.399262276508352
aF31.499811644373494
aF43.98362379498735
aF94.89505178006266
aF116.47921471504105
aF197.08681701433693
aF207.83182334416506
aF230.36550282245366
aF554.4052320249689
aF570.8671385486552
asg5
F0.630161202332695
sg6
I25
sg7
F0.25231467333778523
sg8
F0.7188323079251011
sg9
I18
sg10
I98
sg11
F1.1062398688296446
sg12
I74
sg13
I51
sg14
F0.6437802908557465
sg15
I27
sg16
I1
sg17
F0.838068678640736
sg18
F0.4506331793868205
sg19
F0.5943951713945261
sg20
F0.08178874437034159
sg21
I15
sg22
F0.5594073010029428
sg23
F0.8028625210915179
sg24
F0.5590934268037635
sg25
F0.3914598505494148
sg26
F0.8264901142264384
sg27
F0.9133461457176649
sg28
F0.5295928719832671
sg29
F0.13770287609215026
sg30
F0.9651184714035486
sg31
F1.6246824209890431
sg32
I69
sg33
I32
saF-1473.3349696529706
aa(lp277
(dp278
g3
(lp279
F-463.49707334884965
aF-371.68372733315516
aF-297.47724048467296
aF-235.657448050595
aF-79.64803407345892
aF-79.02943514788944
aF-8.385037304575462
aF5.125000890286515
aF19.440939990633296
aF103.681820171038
aF128.2169704947769
aF128.54104572472215
aF154.81790743246438
aF241.19460856477053
aF290.38132495680316
aF303.27527727793404
aF304.0064913943618
asg5
F0.6845567718183214
sg6
I18
sg7
F0.29046691807630454
sg8
F0.7352810102188967
sg9
I19
sg10
I104
sg11
F1.104466364136162
sg12
I83
sg13
I53
sg14
F0.3583668762057497
sg15
I16
sg16
I1
sg17
F0.8259078047340257
sg18
F0.582551146443525
sg19
F0.9350535843835881
sg20
F0.08196441117443515
sg21
I24
sg22
F0.5711497750201417
sg23
F1.0
sg24
F0.6031299517268706
sg25
F0.39622475116674327
sg26
F0.6404031778847418
sg27
F0.8788012782812678
sg28
F0.7957830451685968
sg29
F0.17386380878779176
sg30
F0.834702795676652
sg31
F1.637258843290649
sg32
I97
sg33
I35
saF-1530.25299485291
aa(lp280
(dp281
g3
(lp282
F-432.8714901645783
aF-351.2996841077455
aF-348.204347404557
aF-210.0576689791841
aF-151.03980107716438
aF-143.34477381022066
aF-89.67087321043357
aF2.6295382470004824
aF8.925028039985591
aF9.878538032780398
aF40.1970749361426
aF51.24584400246545
aF170.4574464670145
aF187.76991739535333
aF275.7023426837004
aF388.445181829936
aF799.9345681567622
asg5
F0.8352962978663082
sg6
I28
sg7
F0.2422627999173927
sg8
F0.7383334647020012
sg9
I21
sg10
I93
sg11
F1.1062398688296446
sg12
I82
sg13
I54
sg14
F0.5900456135395613
sg15
I27
sg16
I1
sg17
F0.7772930000336455
sg18
F0.6963281954239834
sg19
F0.9570177380678992
sg20
F0.07677427443738398
sg21
I13
sg22
F0.5475814957902806
sg23
F1.0
sg24
F0.41335812547222983
sg25
F0.43225706374348327
sg26
F0.6473112741838218
sg27
F0.6746725180804777
sg28
F0.02748529735448979
sg29
F0.1219662297568694
sg30
F0.9651184714035486
sg31
F1.6347435588303276
sg32
I109
sg33
I32
saF-1723.8591005068831
aa(lp283
(dp284
g3
(lp285
F-342.7681419587542
aF-335.72676521843823
aF-330.27389803824633
aF-323.8972308907886
aF-179.57805760285032
aF-163.09506431027387
aF-120.71360261839129
aF-73.34653233904407
aF-2.346653463329403
aF7.946489518454996
aF17.371916501395276
aF63.9863250196463
aF81.44243369466471
aF106.40858768683074
aF179.25968812360952
aF303.7894844036846
aF400.5073693930449
asg5
F0.7386763679291893
sg6
I14
sg7
F0.2564207135128896
sg8
F0.7823139738515761
sg9
I16
sg10
I93
sg11
F1.106870745995903
sg12
I66
sg13
I51
sg14
F0.6268138446915466
sg15
I24
sg16
I1
sg17
F0.8578694076380802
sg18
F0.6051230806241287
sg19
F0.8561605334355387
sg20
F0.07429737307290554
sg21
I18
sg22
F0.5529135136091399
sg23
F0.7513981880733018
sg24
F0.5656777725500489
sg25
F0.3914598505494148
sg26
F0.6722710868009578
sg27
F0.9204413008197102
sg28
F0.508564064897534
sg29
F0.1336064330917655
sg30
F0.9697366841840308
sg31
F1.6246824209890431
sg32
I107
sg33
I36
saF-1869.399292976787
aa(lp286
(dp287
g3
(lp288
F-434.4054626657364
aF-387.9635067664391
aF-270.20020484589327
aF-257.50695054779874
aF-211.99203158845467
aF-172.3576699018065
aF-62.48785660303395
aF-42.552447929854225
aF-12.733884269197574
aF18.753280799598656
aF26.03105041810909
aF204.1135928413496
aF320.1306848582701
aF351.4190807374971
aF403.2742125949908
aF616.8679484010327
aF853.6167026639159
asg5
F0.6757573335236624
sg6
I17
sg7
F0.37390455325428207
sg8
F0.7229994172018357
sg9
I17
sg10
I96
sg11
F1.066398721179476
sg12
I81
sg13
I57
sg14
F0.5499631170727126
sg15
I18
sg16
I1
sg17
F0.8555608876170515
sg18
F0.10203422179760868
sg19
F0.7174654334645588
sg20
F0.07838154932064452
sg21
I12
sg22
F0.5220632871035216
sg23
F0.9176497463826391
sg24
F0.5823131373942048
sg25
F0.3874758026753277
sg26
F0.5803205690460793
sg27
F0.8998544710888147
sg28
F0.5529193822193772
sg29
F0.0954718499403655
sg30
F0.9628135439906047
sg31
F1.644804696671612
sg32
I29
sg33
I39
saF-1839.4661308490167
aa(lp289
(dp290
g3
(lp291
F-388.9754447327731
aF-285.85525804732345
aF-235.23177604647674
aF-183.7911676114354
aF-148.979166404044
aF-132.86187066063871
aF-124.27102949705727
aF-107.98608678059838
aF-89.04092171984121
aF-61.43901384114042
aF106.36155281259926
aF107.68006473002833
aF132.42600332183974
aF147.42089639884398
aF154.17778488153408
aF340.20508834876114
aF423.651118974004
asg5
F0.6715000607670063
sg6
I17
sg7
F0.3502324676555826
sg8
F0.7631900182064985
sg9
I19
sg10
I92
sg11
F1.080598088937979
sg12
I82
sg13
I52
sg14
F0.5499631170727126
sg15
I22
sg16
I1
sg17
F0.877202622432439
sg18
F0.10203422179760868
sg19
F0.7868129834500488
sg20
F0.07713753138187807
sg21
I23
sg22
F0.5116856693074859
sg23
F0.9006549534483695
sg24
F0.5406795087288732
sg25
F0.4173409993996994
sg26
F0.7341380914056708
sg27
F0.8775303789224074
sg28
F0.5506411938324738
sg29
F0.6903415634949182
sg30
F0.9803789853742445
sg31
F1.6498352655922546
sg32
I87
sg33
I38
saF-1607.9517997803468
aa(lp292
(dp293
g3
(lp294
F-490.5698986702118
aF-432.6643363476294
aF-306.69311814289244
aF-273.67999309466416
aF-104.60208208618076
aF-104.50423697053532
aF-67.48608736995357
aF-31.122237171031998
aF2.4934211798492925
aF43.710743424229804
aF64.38986731842078
aF97.653396053292
aF126.89622774241752
aF170.93289210176863
aF172.42107146526791
aF358.4403228015408
aF384.21362309639494
asg5
F0.6769042017320345
sg6
I22
sg7
F0.19406357863302703
sg8
F0.5324539727491625
sg9
I17
sg10
I98
sg11
F1.116243999543407
sg12
I81
sg13
I51
sg14
F0.4396904308071975
sg15
I23
sg16
I1
sg17
F0.533089505224392
sg18
F0.582551146443525
sg19
F0.9632815892561938
sg20
F0.07683494164138471
sg21
I17
sg22
F0.5594073010029428
sg23
F0.8621651532586988
sg24
F0.5193487653678664
sg25
F0.39622475116674327
sg26
F0.9929671669915587
sg27
F1.0
sg28
F0.5102356987258501
sg29
F0.17386380878779176
sg30
F0.9587071956446769
sg31
F1.6498352655922546
sg32
I97
sg33
I32
saF-1811.3219898530992
aa(lp295
(dp296
g3
(lp297
F-365.8114889450188
aF-252.2032106480366
aF-161.61098155809896
aF-158.59813159417627
aF-107.60685541634234
aF-81.55312276359018
aF-80.49915382890333
aF-74.45976336412036
aF-72.02053692642733
aF-46.21568876555352
aF-20.984338406119832
aF65.55192670039241
aF68.83997455180202
aF72.72558677609686
aF75.41706377485161
aF271.91157251700315
aF294.3267517501929
asg5
F0.7132425668970639
sg6
I19
sg7
F0.2017888128026838
sg8
F0.7679591848922425
sg9
I18
sg10
I98
sg11
F1.1081318996167695
sg12
I82
sg13
I46
sg14
F0.6187024416379596
sg15
I27
sg16
I1
sg17
F0.7689124135828151
sg18
F0.5322318207571214
sg19
F0.963939651452487
sg20
F0.08125308842432394
sg21
I19
sg22
F0.540038642914773
sg23
F0.8816589836373758
sg24
F0.5334022726978771
sg25
F0.4472061961240711
sg26
F0.5736150934873052
sg27
F0.8075427649122617
sg28
F0.6360085608195281
sg29
F0.10073958943680704
sg30
F0.9733224873221533
sg31
F1.6322282743700065
sg32
I100
sg33
I33
saF-1282.342708118287
aa(lp298
(dp299
g3
(lp300
F-457.9675118783168
aF-447.67048820446416
aF-385.36685100315856
aF-191.23721932075716
aF-135.71680849379823
aF-40.47814898565025
aF-30.716217298089077
aF3.4569000834236476
aF40.76571364549727
aF120.23124020867226
aF145.52379633905798
aF185.39515173615337
aF199.10238894542
aF229.5048486894823
aF359.1367041164269
aF385.36883462282253
aF497.05015852187626
asg5
F0.7989708867201235
sg6
I19
sg7
F0.3005187914966971
sg8
F0.7433116602977758
sg9
I19
sg10
I91
sg11
F1.1025516339108827
sg12
I74
sg13
I89
sg14
F0.6229701522451871
sg15
I19
sg16
I1
sg17
F0.7619989443891473
sg18
F0.4506331793868205
sg19
F0.8770694059145236
sg20
F0.08196441117443515
sg21
I23
sg22
F0.5594073010029428
sg23
F1.0
sg24
F0.6031299517268706
sg25
F0.3914598505494148
sg26
F0.7627915516312465
sg27
F0.9158879444353858
sg28
F0.6521637976513286
sg29
F0.17386380878779176
sg30
F0.8812947251876657
sg31
F1.637258843290649
sg32
I69
sg33
I37
saF-1685.6963451008105
aa(lp301
(dp302
g3
(lp303
F-385.8909122939026
aF-305.5593313621854
aF-269.8759747138622
aF-230.28247927092002
aF-175.75812913369373
aF-149.42815577438535
aF-53.971652050261696
aF11.954776058880839
aF50.199901895776065
aF63.537456937107436
aF129.7975747732005
aF144.91661525919085
aF209.1835458587061
aF214.15215335928974
aF242.16392018548117
aF276.39847016982003
aF486.33842257376864
asg5
F0.7386763679291893
sg6
I24
sg7
F0.29399814314935846
sg8
F0.7338184038239296
sg9
I18
sg10
I93
sg11
F1.1048464059552003
sg12
I81
sg13
I51
sg14
F0.6058596711490739
sg15
I32
sg16
I1
sg17
F0.8168944580283339
sg18
F0.5666773392680862
sg19
F0.935264393602103
sg20
F0.07865138433469351
sg21
I19
sg22
F0.6240500853295671
sg23
F0.7950123392070984
sg24
F0.5656777725500489
sg25
F0.3765513219732598
sg26
F0.8280078388021838
sg27
F0.8495758379409566
sg28
F0.34756504175400393
sg29
F0.14095144153986178
sg30
F0.8548058137795377
sg31
F1.6278265265644447
sg32
I102
sg33
I34
saF-1558.81185854033
aa(lp304
(dp305
g3
(lp306
F-581.1240558588772
aF-426.5281803965556
aF-353.0276016268084
aF-340.23933926246843
aF-274.9107175191067
aF-203.34097904725797
aF-182.3608811197305
aF-161.37252083650105
aF-139.18538700479155
aF-109.86887693220137
aF-109.78197117559591
aF9.083520765886306
aF82.87871480938998
aF101.49348321826119
aF139.25566176346797
aF204.37898499034418
aF236.62595359876286
asg5
F0.7132425668970639
sg6
I22
sg7
F0.9445729084547909
sg8
F0.6714908645092919
sg9
I18
sg10
I93
sg11
F1.1087188432924482
sg12
I106
sg13
I51
sg14
F0.6437802908557465
sg15
I22
sg16
I1
sg17
F0.7772930000336455
sg18
F0.6963281954239834
sg19
F0.852624529199597
sg20
F0.07533835749495188
sg21
I21
sg22
F0.5396658347915144
sg23
F0.9006549534483695
sg24
F0.539221096085815
sg25
F0.4397316299337772
sg26
F0.6372801372599798
sg27
F0.7272393724385772
sg28
F0.5506411938324738
sg29
F0.17567329965813505
sg30
F0.9343384930147214
sg31
F1.637258843290649
sg32
I95
sg33
I32
saF-2522.904275667306
aa(lp307
(dp308
g3
(lp309
F-406.2616924062464
aF-301.6066423283397
aF-170.26585493190328
aF-141.0972629322764
aF-126.79997412888883
aF-42.029955490178054
aF-35.37980190476219
aF12.479263735677819
aF19.715215888421994
aF37.96021883282583
aF57.52598956809743
aF71.51649730159556
aF121.72981577706537
aF149.76484545960193
aF158.01285946462917
aF182.20027080360933
aF268.2685388176885
asg5
F0.7553974127977939
sg6
I23
sg7
F0.32114900640441213
sg8
F0.7425918690363762
sg9
I17
sg10
I95
sg11
F1.1111978177552517
sg12
I81
sg13
I45
sg14
F0.5900456135395613
sg15
I10
sg16
I1
sg17
F0.8168944580283339
sg18
F0.6963281954239834
sg19
F0.9138019616256766
sg20
F0.07507067691253544
sg21
I23
sg22
F0.5475814957902806
sg23
F0.8870697351367793
sg24
F0.41335812547222983
sg25
F0.366014711743997
sg26
F0.657342411107664
sg27
F0.8454132066796576
sg28
F0.5719830355792374
sg29
F0.10622958342158853
sg30
F0.9704970147014041
sg31
F1.6397741277509699
sg32
I109
sg33
I32
saF-1210.961920386917
aa(lp310
(dp311
g3
(lp312
F-439.4780170153905
aF-437.73806570216993
aF-424.80162015374276
aF-361.3395105802854
aF-308.30240939681573
aF-281.56084172528824
aF-266.84482222145937
aF-231.21923646479297
aF-203.1566567441539
aF-141.8186166519024
aF-112.83524648172727
aF-13.758024829957549
aF9.223745281169045
aF42.336083931434814
aF235.60468182000773
aF257.84704458264787
aF262.0346089839056
asg5
F0.6798004771598547
sg6
I24
sg7
F0.2968053195761058
sg8
F0.7456199135214503
sg9
I16
sg10
I93
sg11
F1.1070246301685986
sg12
I74
sg13
I51
sg14
F0.6775597481327452
sg15
I25
sg16
I1
sg17
F0.7772930000336455
sg18
F0.4506331793868205
sg19
F0.898393977088477
sg20
F0.8795401559836864
sg21
I19
sg22
F0.5493501638355993
sg23
F0.749823457332687
sg24
F0.47968516002067735
sg25
F0.4173409993996994
sg26
F0.6923875134772803
sg27
F0.9224107750349886
sg28
F0.6360085608195281
sg29
F0.11157140774747673
sg30
F0.9871774484822565
sg31
F1.6347435588303276
sg32
I91
sg33
I31
saF-2751.284523259945
aa(lp313
(dp314
g3
(lp315
F-465.14633546141636
aF-376.94594429840026
aF-237.68139818307134
aF-233.89627050269917
aF-107.88833905459171
aF-84.43180091481315
aF7.296869871909053
aF7.361779459359354
aF29.77226854423384
aF36.95048330349414
aF106.53080560516446
aF108.24475273286998
aF130.044396608871
aF165.02526615984038
aF236.06427822375804
aF384.76863581000316
aF614.4654465515216
asg5
F0.6798004771598547
sg6
I18
sg7
F0.28041504465591205
sg8
F0.732469564578223
sg9
I18
sg10
I97
sg11
F1.104466364136162
sg12
I82
sg13
I47
sg14
F0.6187024416379596
sg15
I27
sg16
I1
sg17
F0.7796698116763956
sg18
F0.582551146443525
sg19
F0.8561605334355387
sg20
F0.08196441117443515
sg21
I21
sg22
F0.540038642914773
sg23
F0.8301556712205921
sg24
F0.3709788518578338
sg25
F0.39622475116674327
sg26
F0.6978095894974568
sg27
F0.8800721776401284
sg28
F0.2396781991732999
sg29
F0.17567329965813505
sg30
F0.9302369428070971
sg31
F1.637258843290649
sg32
I98
sg33
I36
saF-1491.3314390837236
aa(lp316
(dp317
g3
(lp318
F-407.3123575111589
aF-380.74624302388304
aF-268.58761106762904
aF-228.608758349166
aF-38.81258102448862
aF-30.470770404494488
aF-19.751834286322833
aF20.65467739901169
aF38.538142449297084
aF68.93918874502333
aF143.24998024532988
aF153.10167256308478
aF176.60708453131474
aF206.471488582167
aF225.50922479807195
aF299.3731585955941
aF409.9861579194446
asg5
F0.721210022348052
sg6
I16
sg7
F0.25749220364949166
sg8
F0.7028697642211763
sg9
I21
sg10
I97
sg11
F1.1096648586860107
sg12
I114
sg13
I49
sg14
F0.6187024416379596
sg15
I24
sg16
I1
sg17
F0.6595460048540819
sg18
F0.5666773392680862
sg19
F0.8561605334355387
sg20
F0.08255419011929824
sg21
I24
sg22
F0.540038642914773
sg23
F1.0
sg24
F0.553178640639461
sg25
F0.37197563003620027
sg26
F0.89211613935996
sg27
F0.8649767699736252
sg28
F0.5154625041635088
sg29
F0.17567329965813505
sg30
F0.9427400846429546
sg31
F1.630970632139846
sg32
I114
sg33
I35
saF-1353.635478268131
aa(lp319
(dp320
g3
(lp321
F-379.61870480281095
aF-321.74579056736
aF-280.86437017890285
aF-199.00269556295814
aF-137.8998088640202
aF-88.27340222703901
aF-51.02605076189275
aF-2.08261002333154
aF42.17754423711699
aF69.35997971393203
aF69.6945986636124
aF98.8264453123727
aF144.60442747565276
aF183.90389019258396
aF216.61789597849088
aF331.2003637646271
aF364.8485782218454
asg5
F0.6412883135905258
sg6
I11
sg7
F0.28041504465591205
sg8
F0.7456199135214503
sg9
I18
sg10
I92
sg11
F1.108352218751957
sg12
I81
sg13
I50
sg14
F0.6187024416379596
sg15
I24
sg16
I1
sg17
F0.795824591139865
sg18
F0.6963281954239834
sg19
F0.8561605334355387
sg20
F0.07354908099968913
sg21
I18
sg22
F0.5576386329576242
sg23
F0.8424850337054195
sg24
F0.41869081131248154
sg25
F0.3914598505494148
sg26
F0.5297178010682329
sg27
F0.8418879099845875
sg28
F0.5506411938324738
sg29
F0.17567329965813505
sg30
F0.9522959198858051
sg31
F1.6347435588303276
sg32
I121
sg33
I36
saF-1460.5134329883153
aa(lp322
(dp323
g3
(lp324
F-452.2581749543506
aF-439.7144867522129
aF-344.6758909959036
aF-171.65451620341605
aF-155.48683087993254
aF-123.62007851081489
aF-84.00229260706101
aF-53.63633355350464
aF-40.21473594424026
aF63.757875150018435
aF89.8581610239637
aF148.73198627226702
aF153.70131991761536
aF186.9227425217839
aF209.5046017887871
aF344.052717954763
aF642.0105507649532
asg5
F0.7518112856061931
sg6
I20
sg7
F0.2854409813661083
sg8
F0.7653860009834592
sg9
I38
sg10
I92
sg11
F1.108352218751957
sg12
I82
sg13
I50
sg14
F0.6307673590939247
sg15
I27
sg16
I1
sg17
F0.7383606107385544
sg18
F0.5740860911636133
sg19
F0.956927116669025
sg20
F0.07175980450442637
sg21
I21
sg22
F0.5191787523335687
sg23
F0.6603113424411842
sg24
F0.561496323061539
sg25
F0.3874810161567246
sg26
F0.7773407961806038
sg27
F0.8637851267860777
sg28
F0.06251394056968917
sg29
F0.11023595166600468
sg30
F0.9871774484822565
sg31
F1.6498352655922546
sg32
I87
sg33
I35
saF-1825.0486044571962
aa(lp325
(dp326
g3
(lp327
F-385.913585898984
aF-236.40860125155803
aF-201.29326553532496
aF-196.02870618654026
aF-140.8758495984721
aF-133.18975128890247
aF-124.07427227738822
aF-4.394822159730552
aF23.96225770254057
aF56.46473633689607
aF59.31027366728449
aF143.42940096476127
aF251.278387896381
aF310.29436239872734
aF319.97817594947446
aF402.9570644099358
aF423.46935574284134
asg5
F0.6769042017320345
sg6
I19
sg7
F0.25749220364949166
sg8
F0.7210561915015647
sg9
I16
sg10
I93
sg11
F1.1111978177552517
sg12
I81
sg13
I49
sg14
F0.5591067782290381
sg15
I20
sg16
I1
sg17
F0.8367995407496113
sg18
F0.44722547222939757
sg19
F0.6022022690400215
sg20
F0.0760866495681683
sg21
I30
sg22
F0.5594073010029428
sg23
F0.9049036516819369
sg24
F0.5367774440510249
sg25
F0.3686914313149465
sg26
F0.7140216647293482
sg27
F0.9184297431531068
sg28
F0.5506411938324738
sg29
F0.5653837025993178
sg30
F0.9465228443296991
sg31
F1.6498352655922546
sg32
I97
sg33
I37
saF-1422.1788541969008
aa(lp328
(dp329
g3
(lp330
F-528.7699229872592
aF-445.8891570374434
aF-402.9213756116051
aF-247.5669098305134
aF-246.30595357367747
aF-204.0258530252487
aF-168.25342173039803
aF-163.93854466887444
aF-124.16089636626975
aF-86.99313040264565
aF-63.723548215688425
aF-28.13966909527801
aF125.59083447913031
aF246.4601167332869
aF314.27751417181526
aF469.15750686656656
aF641.3626466298754
asg5
F0.7518112856061931
sg6
I19
sg7
F0.35431631223840365
sg8
F0.7328412906479261
sg9
I21
sg10
I91
sg11
F1.104244865416145
sg12
I96
sg13
I47
sg14
F0.579455800509646
sg15
I27
sg16
I1
sg17
F0.8168944580283339
sg18
F0.5073582809974586
sg19
F0.8135932576365255
sg20
F0.07175980450442637
sg21
I24
sg22
F0.5191787523335687
sg23
F0.9408294918186879
sg24
F0.5457552300549544
sg25
F0.990004732148552
sg26
F0.6335559580240582
sg27
F0.8820626935810691
sg28
F0.06251394056968917
sg29
F0.11958414423630902
sg30
F0.9788372315918303
sg31
F1.641660591096211
sg32
I84
sg33
I36
saF-2407.6711384650193
aa.