(lp0
(lp1
(dp2
S'winnings'
p3
(lp4
F-607.9658753442977
aF-576.8449593550665
aF-513.7281697035714
aF-451.3715742919162
aF-406.7685102486362
aF-379.45450935328756
aF-334.3177142901469
aF-255.42780446034647
aF-238.97221482218117
aF-215.88640403042575
aF-115.33447920308959
aF80.59679108072783
aF88.48341462311487
aF115.92890451803578
aF172.25753382363405
aF405.6972203504688
aF1397.4792903137713
asS'common_1X2_match_percentages_end_weight'
p5
F0.5997205753536826
sS'minimum_away_team_away_matches_count'
p6
I11
sS'away_team_away_match_weight'
p7
F0.6797516527763422
sS'common_1X2_match_weight'
p8
F0.3356690985750682
sS'minimum_away_team_matches_count'
p9
I25
sS'home_team_home_match_percentages_history_length_in_matches'
p10
I28
sS'close_match_threshold'
p11
F1.0989348160851187
sS'away_team_match_percentages_history_length_in_matches'
p12
I112
sS'common_1X2_match_percentages_history_length_in_matches'
p13
I68
sS'close_match_multiplier'
p14
F0.7506202633415892
sS'minimum_home_team_matches_count'
p15
I4
sS'close_match_extra'
p16
I3
sS'home_team_home_match_weight'
p17
F0.943931889857216
sS'away_team_match_percentages_start_weight'
p18
F0.04712225100677825
sS'home_team_match_percentages_end_weight'
p19
F0.6079758545956055
sS'over_power_multiplier'
p20
F0.7730118090052078
sS'minimum_home_team_home_matches_count'
p21
I28
sS'home_team_match_weight'
p22
F0.7114790076050503
sS'home_team_home_match_percentages_end_weight'
p23
F0.8896583204191258
sS'home_team_match_percentages_start_weight'
p24
F0.4964640354229669
sS'away_team_match_weight'
p25
F0.9053194901092697
sS'common_1X2_match_percentages_start_weight'
p26
F0.7731144011443818
sS'away_team_away_match_percentages_end_weight'
p27
F0.7383619585450958
sS'home_team_home_match_percentages_start_weight'
p28
F0.2757696589858085
sS'away_team_away_match_percentages_start_weight'
p29
F0.5531805430345104
sS'away_team_match_percentages_end_weight'
p30
F0.9230396798653877
sS'over_power_threshold'
p31
F4.305981819423411
sS'away_team_away_match_percentages_history_length_in_matches'
p32
I74
sS'home_team_match_percentages_history_length_in_matches'
p33
I93
saF-3525.879117047269
aa(lp34
(dp35
g3
(lp36
F-592.0767459006074
aF-544.4070457262922
aF-530.8823121102919
aF-518.3912657635892
aF-485.9515796210842
aF-426.2006958491221
aF-424.8476690861344
aF-418.6378798090078
aF-373.15910610100116
aF-315.9470132229866
aF-229.1254794660499
aF-228.76779644510304
aF-214.966194481299
aF-146.69342203829365
aF-134.4747834475154
aF-94.20449926848858
aF308.3265064663549
asg5
F0.9572476041918128
sg6
I17
sg7
F0.7295456039980737
sg8
F0.32682447083802646
sg9
I10
sg10
I124
sg11
F1.783535420983703
sg12
I146
sg13
I114
sg14
F0.25993344176038624
sg15
I33
sg16
I8
sg17
F0.23662182076168703
sg18
F0.524379193325788
sg19
F1.0
sg20
F0.3195731216294544
sg21
I29
sg22
F0.9934987697244837
sg23
F0.9924863277780674
sg24
F0.8232965884871248
sg25
F0.1710048779608646
sg26
F0.7039703739491057
sg27
F0.8663713796209608
sg28
F0.5877693487085238
sg29
F0.5658675878204849
sg30
F0.5653791028181754
sg31
F3.7401671863646646
sg32
I17
sg33
I62
saF-3941.395193866129
aa(lp37
(dp38
g3
(lp39
F-587.4799430777202
aF-560.3884165048617
aF-532.409180708372
aF-524.5448508657377
aF-500.54656424417846
aF-454.96326205069704
aF-418.6949634387164
aF-400.49234657233023
aF-366.6362710640748
aF-330.9065879529361
aF-315.3324315419452
aF-200.8084904759546
aF-31.988477893404934
aF7.6351520590028485
aF107.13401345997181
aF519.7234686204081
aF604.628960394461
asg5
F0.525348094516239
sg6
I19
sg7
F0.3796233134919501
sg8
F0.5287537514510466
sg9
I5
sg10
I44
sg11
F1.3622574359259048
sg12
I140
sg13
I129
sg14
F0.7562234343363698
sg15
I6
sg16
I30
sg17
F0.4903509526335488
sg18
F0.12670193747209546
sg19
F0.6378335238660154
sg20
F0.9871292489492316
sg21
I17
sg22
F0.49748778835076324
sg23
F0.9966068632437192
sg24
F0.44652548584001417
sg25
F0.18812205657954084
sg26
F0.4050185577369
sg27
F1.0
sg28
F0.9699841811505877
sg29
F0.7727305717046082
sg30
F0.8604691889082294
sg31
F3.8085408432988057
sg32
I96
sg33
I138
saF-3979.519527462614
aa(lp40
(dp41
g3
(lp42
F-545.4277109489758
aF-520.5006670828134
aF-449.036021484578
aF-433.9490669614486
aF-416.046888866734
aF-383.9153936189016
aF-312.31612579877935
aF-292.76316007008825
aF-216.8619622227992
aF-164.87197961987022
aF-156.70296571434108
aF82.15906299553717
aF90.89240419096836
aF119.30580258971895
aF400.36637398294374
aF403.15738770119356
aF984.1029509507291
asg5
F0.717594703256327
sg6
I2
sg7
F0.5076833306366123
sg8
F0.3698794416733867
sg9
I10
sg10
I21
sg11
F1.0888668634619703
sg12
I139
sg13
I60
sg14
F0.1301634231363642
sg15
I30
sg16
I5
sg17
F0.5539554172749727
sg18
F0.32988692534828934
sg19
F0.8696162549504596
sg20
F0.8293794894499008
sg21
I21
sg22
F0.17562615663107506
sg23
F0.7999623065526458
sg24
F0.7791642482919754
sg25
F0.05103844543898217
sg26
F0.43759050401610955
sg27
F0.9709588587944815
sg28
F0.42016393657158146
sg29
F0.3738605451433489
sg30
F0.9817496257469498
sg31
F3.3939336342349966
sg32
I14
sg33
I38
saF-3353.9550348323187
aa.