(lp0
(lp1
(dp2
S'history_in_weeks'
p3
I59
sS'winnings'
p4
(lp5
F-469.25426456390346
aF-413.1862347126871
aF-372.96979965131163
aF-365.6094531475204
aF-297.8935758151358
aF-287.87228325781086
aF-244.9562593820973
aF-227.8896678837059
aF-221.98760685378284
aF-214.22574648303566
aF-199.8523627631845
aF-156.44047940784776
aF-68.98341270581739
aF-25.681616076657065
aF74.37048119558494
aF258.399365330034
aF298.29762733663847
asS'end_weight'
p6
F0.9850132213693922
sS'close_match_threshold'
p7
F0.2504906869391066
sS'start_weight'
p8
F0.20250020389227374
sS'over_power_threshold'
p9
F1.5766195114639396
sS'over_power_extra'
p10
F0.1082126441537955
sS'close_match_trim'
p11
F0.1927814242790759
saF-2679.6315384141726
aa(lp12
(dp13
g3
I51
sg4
(lp14
F-497.53345616310355
aF-481.79592791072764
aF-443.28379964847545
aF-378.12836699844365
aF-340.4122236211749
aF-339.5357096214366
aF-314.78392143400845
aF-305.7380700867549
aF-300.75074734022394
aF-203.01116753249892
aF-197.2231416603213
aF-169.31307067111072
aF-149.98469491096375
aF117.63703950987656
aF210.62184352245163
aF541.0871326594818
aF1023.8431923930116
asg6
F0.693547984819195
sg7
F0.12288034511952661
sg8
F0.2712352776650572
sg9
F2.0802901091125277
sg10
F0.0645609147790402
sg11
F0.37976556815876955
saF-3101.2114754841245
aa(lp15
(dp16
g3
I55
sg4
(lp17
F-494.7436749465041
aF-443.6301195783079
aF-434.9265291966169
aF-370.75715581958445
aF-353.18082992028803
aF-343.5915957442385
aF-317.1885267922861
aF-251.57636427557293
aF-191.15591086775203
aF-153.21174982424577
aF-46.420754656133795
aF-45.27091758220695
aF34.46814794762395
aF230.5095374198786
aF354.52526994462846
aF681.33817806292
aF1491.4277351990959
asg6
F0.693547984819195
sg7
F0.12288034511952661
sg8
F0.20250020389227374
sg9
F2.367260235598022
sg10
F0.0645609147790402
sg11
F0.1927814242790759
saF-3009.594796273399
aa(lp18
(dp19
g3
I59
sg4
(lp20
F-458.5561123617375
aF-410.22258805550575
aF-399.988188885113
aF-364.6200475422123
aF-297.5953501573524
aF-297.5753868686455
aF-279.59715238880017
aF-234.01752766240793
aF-222.32333823624822
aF-222.0834890182049
aF-159.53974666107092
aF-129.6155127472606
aF-62.40212828018355
aF-60.46487549568781
aF85.22270827836974
aF299.4562335120138
aF346.4827074033492
asg6
F0.8672160494721892
sg7
F0.2504906869391066
sg8
F0.20250020389227374
sg9
F1.5766195114639396
sg10
F0.1082126441537955
sg11
F0.1927814242790759
saF-2742.1723539217746
aa.