(lp0
(lp1
(dp2
S'history_in_weeks'
p3
I51
sS'winnings'
p4
(lp5
F-497.53345616310355
aF-481.79592791072764
aF-443.28379964847545
aF-378.12836699844365
aF-340.4122236211749
aF-339.5357096214366
aF-314.78392143400845
aF-305.7380700867549
aF-300.75074734022394
aF-203.01116753249892
aF-197.2231416603213
aF-169.31307067111072
aF-149.98469491096375
aF117.63703950987656
aF210.62184352245163
aF541.0871326594818
aF1023.8431923930116
asS'end_weight'
p6
F0.693547984819195
sS'close_match_threshold'
p7
F0.12288034511952661
sS'start_weight'
p8
F0.2712352776650572
sS'over_power_threshold'
p9
F2.0802901091125277
sS'over_power_extra'
p10
F0.0645609147790402
sS'close_match_trim'
p11
F0.37976556815876955
saF-3101.2114754841245
aa(lp12
(dp13
g3
I68
sg4
(lp14
F-591.6601563933807
aF-523.4032966191112
aF-411.7211119805853
aF-393.1689053636661
aF-368.24015924590617
aF-315.9088396867785
aF-306.63411259375016
aF-225.783124037864
aF-225.4191110869649
aF-192.87596266631454
aF-175.966378172566
aF-162.05736585528336
aF45.556415500326466
aF55.37853565376827
aF166.45405745612766
aF204.65562183624093
aF235.79788548522674
asg6
F0.6811930188313452
sg7
F0.37810102875868656
sg8
F0.20250020389227374
sg9
F1.0729489138153514
sg10
F0.1082126441537955
sg11
F0.005797280399382255
saF-3136.5197059210423
aa(lp15
(dp16
g3
I59
sg4
(lp17
F-469.25426456390346
aF-413.1862347126871
aF-372.96979965131163
aF-365.6094531475204
aF-297.8935758151358
aF-287.87228325781086
aF-244.9562593820973
aF-227.8896678837059
aF-221.98760685378284
aF-214.22574648303566
aF-199.8523627631845
aF-156.44047940784776
aF-68.98341270581739
aF-25.681616076657065
aF74.37048119558494
aF258.399365330034
aF298.29762733663847
asg6
F0.9850132213693922
sg7
F0.2504906869391066
sg8
F0.20250020389227374
sg9
F1.5766195114639396
sg10
F0.1082126441537955
sg11
F0.1927814242790759
saF-2679.6315384141726
aa(lp18
(dp19
g3
I59
sg4
(lp20
F-524.3384984135587
aF-511.2704927962473
aF-482.7947352043511
aF-464.5861510031459
aF-436.61793002558716
aF-395.9549665650918
aF-347.38025968360387
aF-340.4459172708465
aF-218.74920547153386
aF-102.12800948158576
aF-65.98089634498672
aF9.989003562795233
aF19.80519696289241
aF126.89350559464151
aF237.36714356312882
aF426.6289725676195
aF674.335944410964
asg6
F0.6811930188313452
sg7
F0.12288034511952661
sg8
F0.23686774077866546
sg9
F2.0802901091125277
sg10
F0.019696043751794148
sg11
F0.37976556815876955
saF-3503.3889509624323
aa.