(lp0
(lp1
(dp2
S'history_in_weeks'
p3
I107
sS'winnings'
p4
(lp5
F-496.4927842116123
aF-136.77863186019601
aF21.04714124586519
aF311.07809226420954
aF356.6438062608461
aF636.9283124842564
aF993.378393289737
asS'end_weight'
p6
F0.9983871554340336
sS'close_match_threshold'
p7
F0.04696179816689339
sS'start_weight'
p8
F0.11234689117559649
sS'over_power_threshold'
p9
F3.6262031705799465
sS'over_power_extra'
p10
F0.044286644942485666
sS'close_match_trim'
p11
F0.11280934016389402
saF-612.2242748259431
aa(lp12
(dp13
g3
I131
sg4
(lp14
F-234.50702223216456
aF-172.5430258660407
aF132.38756454498252
aF173.8989861541429
aF489.28956409730813
aF590.4419901046824
aF783.0417930202693
asg6
F0.9506618186614
sg7
F0.4890382335588537
sg8
F0.910425913281414
sg9
F1.4614353240123694
sg10
F0.17270882051223047
sg11
F0.062271035280342085
saF-274.6624835532227
aa(lp15
(dp16
g3
I45
sg4
(lp17
F-437.3253674837332
aF64.33252189596897
aF151.26692937973485
aF211.79014015488224
aF548.3711862119446
aF616.5531404773201
aF1988.1472371896957
asg6
F0.8431587345231359
sg7
F0.0030265731522347017
sg8
F0.36132524648377795
sg9
F2.0952771142966258
sg10
F0.0003951819171544413
sg11
F0.0027953493387343543
saF-221.7259162080294
aa(lp18
(dp19
g3
I52
sg4
(lp20
F-368.9763029070941
aF275.1145681328287
aF323.985025056636
aF404.2489320729785
aF422.05797608156877
aF428.4188586789646
aF1456.9490882970135
asg6
F0.9109296374641642
sg7
F0.2832631808396419
sg8
F0.25428837157700734
sg9
F4.4990174709159
sg10
F0.15415360392363836
sg11
F0.055543743231779845
saF230.1232902823706
aa(lp21
(dp22
g3
I31
sg4
(lp23
F-384.7181799921176
aF-255.17071765037394
aF-129.73482015319496
aF173.1477538764243
aF454.13464605283207
aF590.5341984433439
aF650.8963854313474
asg6
F0.6099753982194581
sg7
F0.1719827633744493
sg8
F0.3405856326449015
sg9
F2.391682847571839
sg10
F0.15243615177112713
sg11
F0.30551192362609647
saF-769.6237177956865
aa(lp24
(dp25
g3
I99
sg4
(lp26
F-288.3641609906591
aF-275.21214327658186
aF-49.66793224962953
aF27.793781509450582
aF37.63162818850128
aF384.075972078381
aF396.8832283415743
asg6
F0.7132344951785963
sg7
F0.3001344439207498
sg8
F0.5797706723633128
sg9
F4.374921015868177
sg10
F0.0997957223886741
sg11
F0.37495877299374586
saF-613.2442365168705
aa(lp27
(dp28
g3
I32
sg4
(lp29
F-442.12518126205737
aF-307.90748095718334
aF-133.7124419638426
aF187.84311424479483
aF211.62203373027546
aF512.2846044054713
aF1166.8553061647094
asg6
F1.0
sg7
F0.2080083545942492
sg8
F0.7618619158288386
sg9
F3.0002501026172697
sg10
F0.11100360180390584
sg11
F0.062430345604762044
saF-883.7451041830833
aa(lp30
(dp31
g3
I57
sg4
(lp32
F-434.6943766713009
aF-247.09999686345043
aF-219.92205972717852
aF219.80744337553506
aF225.67307482579668
aF591.4483115160915
aF2069.4523328169967
asg6
F0.8748170402050506
sg7
F0.405367740788517
sg8
F0.5522046319114641
sg9
F4.306023326585936
sg10
F0.0587621480270977
sg11
F0.2750127924443255
saF-901.7164332619299
aa(lp33
(dp34
g3
I38
sg4
(lp35
F-450.2722427414046
aF-221.14349047351675
aF-202.20207999079537
aF-168.66547616213825
aF47.91652936959872
aF433.8624696148245
aF2199.369026944199
asg6
F0.7168130444587961
sg7
F0.09411576616828116
sg8
F0.6101015417247821
sg9
F2.721479720700534
sg10
F0.14536286514906357
sg11
F0.3783859811006892
saF-873.6178132057167
aa(lp36
(dp37
g3
I122
sg4
(lp38
F-336.2620442196927
aF-277.23803934033435
aF-95.94154543864431
aF388.1960938440775
aF579.9839656689708
aF769.6770655722282
aF953.6550434235737
asg6
F1.0
sg7
F0.02281840554083253
sg8
F0.6580836432652115
sg9
F4.27826718603169
sg10
F0.08676203181750752
sg11
F0.20134015966345628
saF-709.4416289986714
aa(lp39
(dp40
g3
I76
sg4
(lp41
F-627.7478500731545
aF-458.39740152925003
aF-275.9547297231602
aF-37.00235482559549
aF194.12044829555566
aF413.9168676868362
aF1219.5902370780354
asg6
F0.7106171557477385
sg7
F0.11371898050103907
sg8
F0.6963096751439151
sg9
F1.2604236555248014
sg10
F0.07984504553617316
sg11
F0.20113079558213434
saF-1362.0999813255648
aa(lp42
(dp43
g3
I89
sg4
(lp44
F-337.3152552956285
aF-244.3908045869847
aF-72.70110647239733
aF326.55113213137224
aF518.7641839662433
aF556.2617698877857
aF965.8920719184732
asg6
F0.5493343969640863
sg7
F0.3439322846669437
sg8
F0.2967441054530858
sg9
F1.744534729149827
sg10
F0.18789399742625956
sg11
F0.2225007103209299
saF-654.4071663550105
aa(lp45
(dp46
g3
I37
sg4
(lp47
F-301.16352681987655
aF-76.63702126383816
aF-72.85067436577322
aF107.89843752523643
aF336.3589322180876
aF437.47252277438724
aF1843.085819221083
asg6
F1.0
sg7
F0.39930481398101325
sg8
F0.9797781058037317
sg9
F1.61868158875048
sg10
F0.015799518786326884
sg11
F0.05171270203907641
saF-450.65122244948793
aa(lp48
(dp49
g3
I71
sg4
(lp50
F-353.9875443644976
aF-307.5632917148257
aF-112.34110890287093
aF52.219705549911396
aF83.40678119751124
aF130.32696900257088
aF1051.1632951249612
asg6
F1.0
sg7
F0.1605186866080786
sg8
F0.809221688304113
sg9
F2.6834416877312024
sg10
F0.08543675516715735
sg11
F0.3974691066002293
saF-773.8919449821942
aa(lp51
(dp52
g3
I35
sg4
(lp53
F-340.3522072114332
aF-249.0231487128093
aF-66.33949352988316
aF-31.523909241721867
aF233.85357750596904
aF593.3958357368597
aF2668.2205055323
asg6
F1.0
sg7
F0.2367967705777025
sg8
F0.829152865321278
sg9
F4.716186397323954
sg10
F0.17054869859859667
sg11
F0.27618742430198656
saF-655.7148494541257
aa(lp54
(dp55
g3
I32
sg4
(lp56
F-440.5220404075268
aF-377.2686914858564
aF-98.86366672061422
aF96.47309360507779
aF102.80915136391764
aF630.4634240781338
aF920.9464864169631
asg6
F0.9433655960836189
sg7
F0.10384460554444308
sg8
F0.7709399812884373
sg9
F2.068106398761811
sg10
F0.10270705051960666
sg11
F0.1946647979700364
saF-916.6543986139974
aa(lp57
(dp58
g3
I119
sg4
(lp59
F-193.78655565622864
aF-134.99271794785807
aF-104.74707388458091
aF92.20326782868665
aF101.120872607607
aF200.51788924535276
aF974.3208506575327
asg6
F1.0
sg7
F0.23818819972963223
sg8
F0.796713481962737
sg9
F2.2736170539169276
sg10
F0.15571651417854426
sg11
F0.08321992319824992
saF-433.5263474886676
aa(lp60
(dp61
g3
I19
sg4
(lp62
F-403.2278837302706
aF-354.4511367543073
aF-300.43953131528326
aF437.87611406945393
aF474.8407573720756
aF661.6918187985855
aF1137.065050098331
asg6
F0.8287839825268936
sg7
F0.19324638136682326
sg8
F0.4325302474440553
sg9
F2.943463137867078
sg10
F0.11808325991748242
sg11
F0.001245368414451731
saF-1058.118551799861
aa(lp63
(dp64
g3
I61
sg4
(lp65
F-273.5919102722522
aF-255.7740932437631
aF-239.3838401986851
aF-222.9969113177665
aF-46.500857609395894
aF29.731581240946753
aF1250.989283520471
asg6
F0.7217488598305938
sg7
F0.49502669845587705
sg8
F0.25011222986985227
sg9
F4.608369090764042
sg10
F0.16140892035637555
sg11
F0.30847255622978853
saF-768.7498437147004
aa(lp66
(dp67
g3
I65
sg4
(lp68
F-265.2977265141824
aF-121.76814599458737
aF101.70019401988543
aF165.94399720162846
aF177.68778726719415
aF633.0341311378972
aF1978.193828199413
asg6
F0.9863222377361667
sg7
F0.47956353972011173
sg8
F0.25764912127891904
sg9
F1.6495960651881525
sg10
F0.07216709875656305
sg11
F0.03514987602167605
saF-285.3656784888843
aa(lp69
(dp70
g3
I91
sg4
(lp71
F-446.90469728189953
aF-201.49744590167597
aF-104.49692893562474
aF53.23533691430703
aF76.75237213734408
aF225.4431252432421
aF1204.6628567825942
asg6
F0.5334985382195561
sg7
F0.20881694541236306
sg8
F0.35499595580085574
sg9
F4.757744988812482
sg10
F0.004817497169847917
sg11
F0.2531749815383217
saF-752.8990721192002
aa(lp72
(dp73
g3
I37
sg4
(lp74
F-252.2688181383893
aF-100.08726044666332
aF-55.56652198833763
aF78.53204268574837
aF196.46860338854913
aF231.1267454380179
aF1536.6188397735668
asg6
F0.7479771707597045
sg7
F0.11082234690713322
sg8
F0.2911520178850814
sg9
F2.5166420798901563
sg10
F0.09798490676366732
sg11
F0.07129806751538288
saF-407.92260057339024
aa(lp75
(dp76
g3
I103
sg4
(lp77
F-313.6036851344884
aF-140.2937402671463
aF37.69326328304396
aF96.30075579996765
aF205.64641012810716
aF697.018478400835
aF1342.9363720265815
asg6
F0.7958594226374904
sg7
F0.24152472716761508
sg8
F0.4990065655481585
sg9
F2.4880737140058513
sg10
F0.008176146093730142
sg11
F0.23978316642775763
saF-416.2041621185907
aa(lp78
(dp79
g3
I79
sg4
(lp80
F-354.30749855536953
aF-122.638222085145
aF83.22649211312523
aF180.22938843111456
aF338.5465290515035
aF589.9659244519403
aF755.3999659092331
asg6
F1.0
sg7
F0.29881807214700473
sg8
F0.842592206497499
sg9
F1.059821331422826
sg10
F0.07055285420307682
sg11
F0.07214893356836756
saF-393.7192285273893
aa(lp81
(dp82
g3
I94
sg4
(lp83
F-473.05195718160473
aF-134.4817124873639
aF-31.566799822136204
aF22.822754377470005
aF271.8920367913695
aF642.5673713553902
aF1580.667189048363
asg6
F0.856067776280272
sg7
F0.0595599589326683
sg8
F0.27818519587914103
sg9
F2.4712900806920257
sg10
F0.1352915172150248
sg11
F0.060262708543566794
saF-639.1004694911048
aa(lp84
(dp85
g3
I61
sg4
(lp86
F-326.6800463072602
aF-306.9683015771965
aF-219.14137482455772
aF-152.25075266435226
aF17.57411519536697
aF46.837546046271655
aF905.1281247470095
asg6
F1.0
sg7
F0.4581799425798042
sg8
F0.716452179434923
sg9
F4.154168698263993
sg10
F0.0046038407710043755
sg11
F0.396737046277396
saF-852.7897227090144
aa(lp87
(dp88
g3
I37
sg4
(lp89
F-326.75128726817707
aF-95.67170023281733
aF18.417201504555123
aF101.43132693040184
aF206.5671853492779
aF676.70377210384
aF2445.5177148702987
asg6
F1.0
sg7
F0.34268981018113454
sg8
F0.719367292658298
sg9
F2.3585052205952035
sg10
F0.09691455057417153
sg11
F0.023587144373149196
saF-404.0057859964393
aa(lp90
(dp91
g3
I128
sg4
(lp92
F-308.0575647533319
aF-236.1071992238575
aF-36.33495713925686
aF266.29502823340795
aF530.3240113040752
aF1052.964130210235
aF1115.439047845005
asg6
F0.6809360703003705
sg7
F0.0180934618919964
sg8
F0.23784423686012657
sg9
F2.065462990174874
sg10
F0.10092481636098037
sg11
F0.021641582301672548
saF-580.4997211164463
aa(lp93
(dp94
g3
I70
sg4
(lp95
F-589.6084361688347
aF-373.67373755121923
aF-196.58610456109852
aF92.37944568810167
aF148.4639283737988
aF304.00744369406243
aF1416.2820273351258
asg6
F1.0
sg7
F0.15886448692083305
sg8
F0.9324099285676248
sg9
F1.2205137284169905
sg10
F0.09271431848124574
sg11
F0.30992634057686197
saF-1159.8682782811525
aa(lp96
(dp97
g3
I150
sg4
(lp98
F-375.6859611914449
aF-281.6302886896924
aF-12.803050259386737
aF223.68051082143688
aF361.595333968118
aF405.5294044884313
aF546.4316070916557
asg6
F0.9841090021288523
sg7
F0.08629890887911673
sg8
F0.7748528534337826
sg9
F2.1122894841714857
sg10
F0.0872799473943053
sg11
F0.08394946347436734
saF-670.119300140524
aa(lp99
(dp100
g3
I47
sg4
(lp101
F-379.70845499596726
aF-342.7995927985968
aF-111.75085219270397
aF-22.337024100429858
aF74.94313450049412
aF147.0439890389032
aF2074.9455073700756
asg6
F0.692563565122432
sg7
F0.414939794552619
sg8
F0.5485603322346901
sg9
F4.145678720840792
sg10
F0.00643656232489458
sg11
F0.2621030284047776
saF-834.258899987268
aa(lp102
(dp103
g3
I118
sg4
(lp104
F-410.9867475006197
aF-337.9623060147517
aF-222.90517893309254
aF-219.4505366944103
aF-172.9329338812148
aF651.5082979017998
aF951.3292252820811
asg6
F1.0
sg7
F0.3088432947736244
sg8
F0.8092069624350999
sg9
F3.4092639405876084
sg10
F0.060530400209913765
sg11
F0.14300078187695778
saF-971.8542324484639
aa(lp105
(dp106
g3
I125
sg4
(lp107
F-364.2590625601654
aF-238.39216388770592
aF-103.10578216332897
aF120.67700780334235
aF483.85213131408386
aF550.0716989374323
aF816.6083182461721
asg6
F0.6799287675314305
sg7
F0.33125104803446526
sg8
F0.604115952289604
sg9
F1.0932541107375044
sg10
F0.0784361368425247
sg11
F0.0692473214315004
saF-705.7570086112003
aa(lp108
(dp109
g3
I149
sg4
(lp110
F-381.46723807051285
aF-278.9530769577833
aF-65.17916972010175
aF1.0041828222097138
aF11.016180273133841
aF62.63353930923449
aF284.5084079264998
asg6
F0.790332419154706
sg7
F0.26607402007777625
sg8
F0.10514492333942782
sg9
F2.8260452108656944
sg10
F0.036737515550426196
sg11
F0.37749202130770465
saF-725.5994847483979
aa(lp111
(dp112
g3
I76
sg4
(lp113
F-369.2100518667472
aF-255.8728432725593
aF-237.42432890979637
aF-68.73165863656334
aF-67.10897580602762
aF192.45699663540563
aF2097.072554354103
asg6
F0.9702556917489531
sg7
F0.42980977528324416
sg8
F0.28409889206983363
sg9
F3.2030483414244033
sg10
F0.07403086312494593
sg11
F0.21266998122474395
saF-862.5072240491029
aa(lp114
(dp115
g3
I54
sg4
(lp116
F-434.07015032528784
aF-249.07266269006016
aF-143.30308854962243
aF31.11074373540805
aF370.17917601616887
aF606.010038525452
aF613.0918904985908
asg6
F1.0
sg7
F0.4505846691916952
sg8
F0.9172322258295306
sg9
F1.5924830475652167
sg10
F0.1920807275433904
sg11
F0.28664009512177857
saF-826.4459015649704
aa(lp117
(dp118
g3
I29
sg4
(lp119
F-249.46916684055805
aF-225.6760591149074
aF-203.23386766637293
aF-3.2202917378286884
aF153.79631044175972
aF572.9874309067775
aF1001.7947695148882
asg6
F1.0
sg7
F0.4394855451444711
sg8
F0.5824911853433964
sg9
F3.9106914006959745
sg10
F0.14732167512766464
sg11
F0.24897872675136246
saF-678.3790936218384
aa(lp120
(dp121
g3
I89
sg4
(lp122
F-300.9701232847416
aF-209.78502557731554
aF-195.6985975741893
aF-11.329523319295049
aF234.02366639110073
aF462.64282586193644
aF1187.725892017052
asg6
F1.0
sg7
F0.2981158646194915
sg8
F0.9304455996711499
sg9
F3.253689281379555
sg10
F0.04250728429260593
sg11
F0.34760359847473765
saF-706.4537464362464
aa(lp123
(dp124
g3
I26
sg4
(lp125
F-296.7700069550958
aF-182.05402694757265
aF-10.282366145845344
aF-3.3453237022537223
aF401.5895771776934
aF466.22726766475375
aF871.5858877742082
asg6
F0.5682074475609253
sg7
F0.3489203144020979
sg8
F0.5582290473267641
sg9
F3.292223908228782
sg10
F0.10529294836401218
sg11
F0.26672146440990097
saF-489.1064000485138
aa(lp126
(dp127
g3
I145
sg4
(lp128
F-379.36552727935987
aF-289.6142544446126
aF-217.9536040242465
aF-206.409891217094
aF114.57311884585943
aF160.5113101842412
aF499.56168317227684
asg6
F0.8477972968649213
sg7
F0.372267148401466
sg8
F0.21991099554381843
sg9
F1.3970385820967393
sg10
F0.1759058065299116
sg11
F0.28397125752587676
saF-886.9333857482189
aa(lp129
(dp130
g3
I16
sg4
(lp131
F-285.4812154012727
aF-239.60329956124428
aF-84.70457943892791
aF39.65891720942159
aF543.3314713474028
aF835.2613745534929
aF1155.5192815221985
asg6
F0.7439046712393007
sg7
F0.1902068641232258
sg8
F0.6168537837297113
sg9
F4.741465549940428
sg10
F0.16479774174518688
sg11
F0.3531962667766685
saF-609.7890944014449
aa(lp132
(dp133
g3
I42
sg4
(lp134
F-546.2082006908413
aF-74.12264383811578
aF52.639415055402196
aF215.60486662554513
aF477.3619202730081
aF554.3024013738511
aF1868.1801058071196
asg6
F0.9518315783755253
sg7
F0.005380281843006374
sg8
F0.6387647388097693
sg9
F3.60779064695918
sg10
F0.18726295448438135
sg11
F0.1608833657486288
saF-567.6914294735549
aa(lp135
(dp136
g3
I114
sg4
(lp137
F-223.15019910523984
aF-201.49740326520669
aF-156.7955456803263
aF-20.18010882324677
aF66.47584237729552
aF494.4452857708743
aF1736.155487632339
asg6
F0.5342948022898082
sg7
F0.4753617048238588
sg8
F0.5267451717527636
sg9
F3.9785882704868354
sg10
F0.11915877093047633
sg11
F0.15294295539698163
saF-581.4431480507728
aa(lp138
(dp139
g3
I86
sg4
(lp140
F-568.8746415676353
aF-341.5230763290806
aF-130.2416687479813
aF-94.93698732296639
aF305.5307660724427
aF429.6144365413036
aF1593.5401758373418
asg6
F0.9745720961989479
sg7
F0.07988076665722033
sg8
F0.25523800403402175
sg9
F3.397456669389108
sg10
F0.1656084311022433
sg11
F0.3934853570576899
saF-1040.6393866446972
aa(lp141
(dp142
g3
I132
sg4
(lp143
F-545.4652049575375
aF-345.89803866813065
aF-54.5283090967248
aF285.36960751572315
aF292.8479300129354
aF307.9379579795111
aF321.4407619611984
asg6
F0.5292282321545052
sg7
F0.14256177454205993
sg8
F0.45242138147069155
sg9
F1.2323001057182856
sg10
F0.06672194044591535
sg11
F0.30949611175736463
saF-945.8915527223929
aa(lp144
(dp145
g3
I71
sg4
(lp146
F-535.5880905576271
aF-391.42448280967335
aF-328.63497733094994
aF-141.25417302582957
aF-105.82790231293666
aF-17.452985287251067
aF111.74223174655481
asg6
F0.9352385125306297
sg7
F0.12294047319390672
sg8
F0.03615822362558152
sg9
F1.040376055123827
sg10
F0.18400897375653247
sg11
F0.319285595700189
saF-1255.6475506982504
aa(lp147
(dp148
g3
I133
sg4
(lp149
F-409.2611939088806
aF-314.4566517721345
aF101.40149944356403
aF133.33470807531216
aF270.0236518446043
aF316.4628162750739
aF1002.9599410688829
asg6
F1.0
sg7
F0.4520858680410241
sg8
F0.7003669214111665
sg9
F2.061156853802215
sg10
F0.18535842949176645
sg11
F0.12976704858484656
saF-622.3163462374511
aa(lp150
(dp151
g3
I42
sg4
(lp152
F-452.54360257122596
aF-190.7448195053604
aF-90.12566975124287
aF-64.7319106498569
aF12.247036484665841
aF209.48731465527612
aF1539.2946426986714
asg6
F0.9291195501868161
sg7
F0.01542477715113355
sg8
F0.3696343627969644
sg9
F1.2207751236241453
sg10
F0.07767924919485732
sg11
F0.2817839486116288
saF-733.4140918278292
aa(lp153
(dp154
g3
I125
sg4
(lp155
F-416.5711163789126
aF-378.1782974649685
aF45.987703808366405
aF89.85095857110423
aF124.49356978286278
aF158.2813581563173
aF563.5789968092308
asg6
F0.6182478095659795
sg7
F0.18684148991199795
sg8
F0.30062543963605903
sg9
F4.493893478724096
sg10
F0.06583163019267094
sg11
F0.2648326694357814
saF-748.7617100355147
aa(lp156
(dp157
g3
I66
sg4
(lp158
F-524.8033606439542
aF-391.56164360381376
aF-53.37502969417551
aF99.93192156540294
aF221.64157752024562
aF401.74756113212607
aF3322.4556665475457
asg6
F0.5406728954302149
sg7
F0.23718373592179354
sg8
F0.05621793824833898
sg9
F1.4759744708475642
sg10
F0.11793491286331943
sg11
F0.31915819110913124
saF-969.7400339419435
aa(lp159
(dp160
g3
I65
sg4
(lp161
F-271.1559454691171
aF-147.17995700227573
aF-27.236667406107586
aF-21.263043315501363
aF52.90020987809248
aF291.9104340648978
aF1755.7220028191368
asg6
F1.0
sg7
F0.40741830387513067
sg8
F0.8990049367580738
sg9
F4.559008065015291
sg10
F0.08543672215637006
sg11
F0.3991181702050184
saF-445.5725698775004
aa(lp162
(dp163
g3
I23
sg4
(lp164
F-247.47100259110516
aF-78.12553248885149
aF-26.69331112310988
aF325.3411801053967
aF418.6185868694088
aF430.5993829127822
aF667.7497442702715
asg6
F0.5875391154514935
sg7
F0.4354688531769991
sg8
F0.5570198786280638
sg9
F1.8033100000816433
sg10
F0.1955706679316664
sg11
F0.3403015447438549
saF-352.28984620306653
aa(lp165
(dp166
g3
I102
sg4
(lp167
F-429.43388247443863
aF203.03091222622902
aF255.14089003470372
aF279.53433568033984
aF561.8088701611046
aF815.1681924213019
aF1654.418309340801
asg6
F1.0
sg7
F0.03188765822987644
sg8
F0.878223331460032
sg9
F3.3538081461679057
sg10
F0.046539420092162054
sg11
F0.1762723444231643
saF28.737919786494103
aa(lp168
(dp169
g3
I47
sg4
(lp170
F-362.9025177888574
aF-155.2032904002291
aF-126.54013507236095
aF-92.68344306214419
aF193.25646793333453
aF550.8065890503792
aF1536.0199517484498
asg6
F0.9501605932003198
sg7
F0.33275310269154706
sg8
F0.2989577547459362
sg9
F4.793849025045517
sg10
F0.07669356120394473
sg11
F0.09016499652114646
saF-644.6459432614474
aa(lp171
(dp172
g3
I45
sg4
(lp173
F-366.79608544489383
aF-265.1963625634028
aF-160.399314650404
aF-147.94916244559613
aF-27.538687277696454
aF654.2257862675062
aF1116.5790990502023
asg6
F0.7550568750483724
sg7
F0.2914490987403289
sg8
F0.7228639566174669
sg9
F2.5268106949658153
sg10
F0.028309272127410502
sg11
F0.27862584621712644
saF-792.3917626587006
aa(lp174
(dp175
g3
I36
sg4
(lp176
F-388.9930544766106
aF-103.70839106284097
aF-97.70688217312818
aF51.67862391495805
aF296.9363503584168
aF415.46140403573463
aF1831.9541499201282
asg6
F0.9074395546888605
sg7
F0.24985879212553236
sg8
F0.5316581761941116
sg9
F4.532903948992656
sg10
F0.09889193314107332
sg11
F0.25722074859985394
saF-590.4083277125798
aa(lp177
(dp178
g3
I102
sg4
(lp179
F-413.9540193449827
aF140.60484100466033
aF194.379009374936
aF387.01566877091045
aF854.2323471208094
aF1008.8551250765945
aF1526.1878154169835
asg6
F0.8609546900314144
sg7
F0.4104939322318776
sg8
F0.7287080725920854
sg9
F3.2611745937382475
sg10
F0.006238818277651626
sg11
F0.0021511778192611964
saF-78.97016896538639
aa(lp180
(dp181
g3
I50
sg4
(lp182
F-589.1857264147945
aF-137.63457587591165
aF61.301289696019694
aF89.53157092081756
aF240.87316745248154
aF389.04865259734834
aF2131.1977550682027
asg6
F0.6024063556848396
sg7
F0.07521707816335299
sg8
F0.061881310457901684
sg9
F1.855319483583917
sg10
F0.0417055028076057
sg11
F0.2729852858678221
saF-665.5190125946865
aa(lp183
(dp184
g3
I10
sg4
(lp185
F-513.9709902046274
aF-81.11445621360872
aF-73.33401968778116
aF-50.776917709945906
aF588.2870101796325
aF643.3638144546985
aF1275.383760410652
asg6
F0.7208900848227405
sg7
F0.20460818632930733
sg8
F0.7104994412177731
sg9
F4.062953631840267
sg10
F0.13955676137488535
sg11
F0.12731176194112867
saF-668.4194661060172
aa(lp186
(dp187
g3
I22
sg4
(lp188
F-494.2459841753204
aF-445.53755383585167
aF-311.63660565553903
aF-72.69373482563708
aF-14.157502923729794
aF379.6144597444729
aF908.1018456417876
asg6
F0.8203836015391337
sg7
F0.04727584457937295
sg8
F0.7024843307107485
sg9
F1.0384082909803345
sg10
F0.10106813651333335
sg11
F0.0722891800025585
saF-1251.4201436667113
aa(lp189
(dp190
g3
I137
sg4
(lp191
F-579.8559540443291
aF-378.7811439912708
aF-10.50521694516533
aF56.53183004004404
aF464.9917955185649
aF618.0873641478029
aF680.7303324687216
asg6
F0.9683290244970821
sg7
F0.08527262054008644
sg8
F0.11715610293041923
sg9
F3.5952338623805984
sg10
F0.16364654336025358
sg11
F0.29091886174924586
saF-969.1423149807653
aa(lp192
(dp193
g3
I74
sg4
(lp194
F-390.2274358527811
aF-298.85069444316036
aF62.322034995006334
aF279.0445992441237
aF297.31298663313214
aF760.0384614353663
aF1208.891659765431
asg6
F1.0
sg7
F0.058968943095055015
sg8
F0.6230536370254046
sg9
F1.8333222009933245
sg10
F0.07130219311033208
sg11
F0.24680048229626372
saF-626.7560953009352
aa(lp195
(dp196
g3
I110
sg4
(lp197
F-494.7237451220409
aF-202.18396795482852
aF40.25260277810662
aF257.53989583649945
aF299.44029740221526
aF346.79604911483784
aF1537.6474461644339
asg6
F0.7799824846771137
sg7
F0.23887902447994286
sg8
F0.04903669920235254
sg9
F4.575115602975696
sg10
F0.15104114590693843
sg11
F0.23732946090517132
saF-656.6551102987628
aa(lp198
(dp199
g3
I97
sg4
(lp200
F-187.25938561452244
aF-45.59067762320012
aF53.22260132859742
aF190.55618084827506
aF275.61778465791167
aF469.5417600058081
aF2189.3631794098005
asg6
F0.823175951996748
sg7
F0.36245766207249513
sg8
F0.7798976258635795
sg9
F4.51829540997975
sg10
F0.04624625290638436
sg11
F0.04303122029883997
saF-179.62746190912515
aa(lp201
(dp202
g3
I32
sg4
(lp203
F-256.7778015953919
aF-252.69589444931637
aF-180.79159692563383
aF99.25290272811026
aF680.0430153415009
aF801.9050700438315
aF1275.1930510908273
asg6
F1.0
sg7
F0.07345041450119455
sg8
F0.5840256875322244
sg9
F4.984991529953583
sg10
F0.09710680852131429
sg11
F0.18088733968424808
saF-690.2652929703421
aa(lp204
(dp205
g3
I73
sg4
(lp206
F-320.35060941084555
aF-80.53688957653935
aF-55.454437922436114
aF23.651202163143466
aF66.04453684333953
aF409.71814651443856
aF1838.8457380546997
asg6
F0.572100232596579
sg7
F0.37374910179213333
sg8
F0.2682106949821914
sg9
F3.062272395666781
sg10
F0.19780845049688678
sg11
F0.17976658347205277
saF-456.341936909821
aa(lp207
(dp208
g3
I61
sg4
(lp209
F-351.80803074268795
aF-198.40718245594417
aF-195.16135048746435
aF-129.07284307226223
aF-96.65524265766965
aF305.2892752621192
aF1252.2888234908269
asg6
F0.73459774958284
sg7
F0.4759012486203958
sg8
F0.3152041415155973
sg9
F3.456218975758804
sg10
F0.1996153604367117
sg11
F0.12047557046181884
saF-745.3765636860965
aa(lp210
(dp211
g3
I15
sg4
(lp212
F-300.24869177400785
aF-276.1035096810789
aF-117.69770173384109
aF507.249287997789
aF693.0253865238792
aF967.5357381622548
aF1062.577564830377
asg6
F0.78966651245412
sg7
F0.06300399596163625
sg8
F0.30209824994858603
sg9
F3.521270356049951
sg10
F0.057310963464753284
sg11
F0.11829758738734104
saF-694.0499031889278
aa(lp213
(dp214
g3
I96
sg4
(lp215
F-486.0370441045285
aF-284.76429204531155
aF-125.74008957873468
aF33.86629254547006
aF67.10625602977257
aF78.06345015529291
aF715.4789370119231
asg6
F0.684827945886969
sg7
F0.18585793837032583
sg8
F0.3138982041108712
sg9
F1.347682305054619
sg10
F0.024650683623414694
sg11
F0.3612035973168668
saF-896.5414257285747
aa(lp216
(dp217
g3
I64
sg4
(lp218
F-291.96806529472804
aF-267.85618237832523
aF-158.45024195384883
aF-73.29959542957283
aF12.491110574455888
aF213.71053273332132
aF1422.1622127351952
asg6
F0.6585744073135864
sg7
F0.3850029455480096
sg8
F0.4976793620875587
sg9
F4.294297418508633
sg10
F0.10909998804220196
sg11
F0.35611714477823514
saF-718.2744896269021
aa(lp219
(dp220
g3
I80
sg4
(lp221
F-345.285704647373
aF-326.43337599221877
aF-15.944829235718316
aF-1.8966460573760742
aF130.0112935652976
aF275.8366717027757
aF2248.338603799264
asg6
F0.8040408150931964
sg7
F0.34031923223538296
sg8
F0.42784483987601707
sg9
F3.0024103698286364
sg10
F0.10034932667067274
sg11
F0.20886193762312738
saF-687.6639098753101
aa(lp222
(dp223
g3
I58
sg4
(lp224
F-398.70403402257637
aF-283.5867482572089
aF-159.09784432441904
aF43.69816948192761
aF63.289076623124856
aF177.36155954588594
aF1550.900761125622
asg6
F0.6121877443860726
sg7
F0.33630343002057966
sg8
F0.6008242372550353
sg9
F1.8075588772738165
sg10
F0.02711633010901018
sg11
F0.13430289889068683
saF-841.3886266042043
aa(lp225
(dp226
g3
I113
sg4
(lp227
F-414.97039571128994
aF-52.03402208545583
aF58.44258898334601
aF153.88939913769264
aF309.02297488805425
aF490.3311049618253
aF1026.9253184736663
asg6
F0.6750227339550787
sg7
F0.1359151536645391
sg8
F0.1460808056603181
sg9
F1.6816431267296297
sg10
F0.03492343597474967
sg11
F0.0965770604679837
saF-408.56182881339976
aa(lp228
(dp229
g3
I91
sg4
(lp230
F-306.41769414377075
aF-222.95724729266942
aF-204.62308597826507
aF-188.5624830413924
aF-101.62511367525883
aF205.6265173127283
aF1340.4014508727428
asg6
F0.7323973671860182
sg7
F0.4722628264547494
sg8
F0.3691209215968887
sg9
F4.993269350334746
sg10
F0.1344189120935579
sg11
F0.1252884616562311
saF-733.9980274147052
aa(lp231
(dp232
g3
I137
sg4
(lp233
F-476.4783145777492
aF-376.65487081493654
aF66.38574742304058
aF93.36465825770733
aF94.64408751583528
aF321.4830095428208
aF663.5495960895005
asg6
F0.5406205292805248
sg7
F0.20636482706069248
sg8
F0.42143073092485406
sg9
F3.252639892017515
sg10
F0.14352063312815452
sg11
F0.16193561046996574
saF-786.7474379696451
aa(lp234
(dp235
g3
I96
sg4
(lp236
F-603.3493312850154
aF-185.06895283214874
aF-22.199193905265133
aF147.60226345480555
aF342.7078758524633
aF354.5045043424175
aF1638.9136746878544
asg6
F0.8578421489678212
sg7
F0.039054403373062097
sg8
F0.16447579121146838
sg9
F4.9664573782342725
sg10
F0.05050162660884636
sg11
F0.3128353488017839
saF-810.6174780224293
aa(lp237
(dp238
g3
I75
sg4
(lp239
F-383.39362308251486
aF-371.0355654272116
aF-280.8746028855908
aF-207.06605530718946
aF-138.7060748306218
aF290.8604109664202
aF1008.7631875944198
asg6
F1.0
sg7
F0.45754771435527225
sg8
F0.7383041971830177
sg9
F1.4786094861762276
sg10
F0.03834021757023174
sg11
F0.32003123201584505
saF-1035.3037913953171
aa(lp240
(dp241
g3
I89
sg4
(lp242
F-399.2607385336513
aF-306.46955327404237
aF-125.9732914719209
aF-92.02062454242741
aF-77.4219877461336
aF264.5354659974762
aF1587.3404457906913
asg6
F0.6901760294106483
sg7
F0.49222454196124593
sg8
F0.06661117421490703
sg9
F1.6039184572715484
sg10
F0.012712515415163895
sg11
F0.15151129375778752
saF-831.7035832796146
aa(lp243
(dp244
g3
I141
sg4
(lp245
F-322.28752631283214
aF-10.49043457525056
aF137.237529674509
aF314.3993919818597
aF392.0616605673322
aF413.88010264526565
aF466.59860609567363
asg6
F0.8684625318647603
sg7
F0.0867063009609425
sg8
F0.7818406252484843
sg9
F4.470937933157293
sg10
F0.19615052848744202
sg11
F0.03861788863094269
saF-195.5404312135737
aa(lp246
(dp247
g3
I80
sg4
(lp248
F-463.9025505498446
aF-451.5970085654832
aF-89.71682860045564
aF282.8281726602504
aF319.34472938122826
aF322.0668316350582
aF1084.7082437250328
asg6
F0.80090373837319
sg7
F0.07797974618286418
sg8
F0.7130201155617917
sg9
F3.925767405544656
sg10
F0.14022685309991822
sg11
F0.2122999551990004
saF-1005.2163877157834
aa(lp249
(dp250
g3
I45
sg4
(lp251
F-304.41016570711724
aF51.60472766342832
aF143.17293626833202
aF290.4307373883689
aF465.4029568887338
aF602.4100457351324
aF960.9239194620382
asg6
F1.0
sg7
F0.12252247911717318
sg8
F0.9370900219934185
sg9
F4.1932573071354815
sg10
F0.1367401649015072
sg11
F0.05964671379159006
saF-109.6325017753569
aa(lp252
(dp253
g3
I134
sg4
(lp254
F-333.03302878893976
aF-161.59229746729318
aF-49.737747435211645
aF298.14338008339564
aF339.71982403304855
aF487.86724141959166
aF663.8785931672069
asg6
F0.9251817607887183
sg7
F0.1012288691046968
sg8
F0.40646410469096206
sg9
F4.103664369337963
sg10
F0.1530785501205375
sg11
F0.11087576607194563
saF-544.3630736914446
aa(lp255
(dp256
g3
I86
sg4
(lp257
F-475.07857198702504
aF-457.1343150760489
aF-332.8251730160906
aF-71.33130897000183
aF255.80495854111678
aF362.12043419576435
aF1883.777433066663
asg6
F0.8114809573454629
sg7
F0.10475041096891746
sg8
F0.2792095247365477
sg9
F2.411334630294261
sg10
F0.13157760267827043
sg11
F0.20199066871389154
saF-1265.0380600791646
aa(lp258
(dp259
g3
I106
sg4
(lp260
F-378.6945833055478
aF-288.98596684135237
aF-17.483846880269198
aF43.91892102585871
aF447.14924928214737
aF788.6184806673557
aF1188.1009766522025
asg6
F1.0
sg7
F0.11948828593949373
sg8
F0.9944315360206846
sg9
F2.9796037009595118
sg10
F0.012213152616833334
sg11
F0.24058107045211183
saF-685.1643970271693
aa(lp261
(dp262
g3
I98
sg4
(lp263
F-271.42629561132946
aF-33.49273158110395
aF97.41226430826532
aF414.6955448768865
aF521.1073488864431
aF554.1944209462449
aF1190.014493335203
asg6
F0.9600381416622272
sg7
F0.07578511961555795
sg8
F0.45858098465538133
sg9
F4.863929011952451
sg10
F0.09986997501680561
sg11
F0.04571144953067466
saF-207.5067628841681
aa(lp264
(dp265
g3
I62
sg4
(lp266
F-364.2628230403319
aF-294.2477943468566
aF-141.8831920108695
aF368.3866906987985
aF609.5693381804856
aF820.738593748817
aF1134.4482529730685
asg6
F0.8478652543717922
sg7
F0.11712437782881413
sg8
F0.8348966572282291
sg9
F4.554170082817711
sg10
F0.11338268428447629
sg11
F0.014669453160030432
saF-800.393809398058
aa(lp267
(dp268
g3
I26
sg4
(lp269
F-338.9358029044911
aF-336.3187599761949
aF-268.65124531482115
aF82.73469161399817
aF109.99272779222588
aF463.65541255771404
aF767.7296629038347
asg6
F1.0
sg7
F0.31832800237112935
sg8
F0.9218780071617559
sg9
F3.5542782656904275
sg10
F0.07333207261462851
sg11
F0.1023051952936756
saF-943.9058081955071
aa(lp270
(dp271
g3
I76
sg4
(lp272
F-449.5897138115346
aF-259.1695698614242
aF-172.077648064017
aF-98.81515129063416
aF214.7260500662312
aF536.6799328375569
aF2581.020928983351
asg6
F0.9614377910703776
sg7
F0.13205526955659203
sg8
F0.10453570475025686
sg9
F3.650616154104037
sg10
F0.1728399155274151
sg11
F0.13393714104835053
saF-880.8369317369758
aa(lp273
(dp274
g3
I21
sg4
(lp275
F-471.9613769337059
aF-421.1450158298279
aF-413.9189787859449
aF480.81126983060017
aF593.3482275936447
aF654.0769593021939
aF1363.1807801241252
asg6
F0.9203456201258935
sg7
F0.036648125985379254
sg8
F0.8939310747792683
sg9
F4.407308195588544
sg10
F0.1816285168794298
sg11
F0.18928199755766265
saF-1307.0253715494787
aa(lp276
(dp277
g3
I67
sg4
(lp278
F-455.2829509104672
aF-132.0631172386867
aF-11.120728407560591
aF101.2210770842903
aF640.1870724148582
aF671.2636703584296
aF1182.4723389391816
asg6
F0.6814309055525072
sg7
F0.13379467072977097
sg8
F0.2795945561201323
sg9
F3.6194225934487196
sg10
F0.14743690884379318
sg11
F0.0035225552279530173
saF-598.4667965567145
aa(lp279
(dp280
g3
I86
sg4
(lp281
F-459.28181953295916
aF-223.91397028541724
aF-84.63128930596076
aF103.57642738961545
aF251.23523726148323
aF530.2901978839507
aF1864.8649808673872
asg6
F0.8796357301893296
sg7
F0.27686229394991135
sg8
F0.08712856764610277
sg9
F2.01357096710224
sg10
F0.05728871513266716
sg11
F0.2671021745105
saF-767.8270791243372
aa(lp282
(dp283
g3
I77
sg4
(lp284
F-359.3919768890721
aF-330.93584215981525
aF-195.6766893063882
aF-123.87973544298745
aF111.20634555190054
aF159.63081142486135
aF1168.031055982377
asg6
F1.0
sg7
F0.1895073032555859
sg8
F0.8444606491256091
sg9
F3.2823914276270614
sg10
F0.05614244796624306
sg11
F0.36296242998778544
saF-886.0045083552756
aa(lp285
(dp286
g3
I135
sg4
(lp287
F-246.47219134398767
aF-5.0299146684008065
aF148.2095157484507
aF404.29975987777834
aF560.660271069446
aF813.5572393861569
aF922.0038221097943
asg6
F0.5598372887474963
sg7
F0.368259691221668
sg8
F0.45483788824407867
sg9
F3.00410941469399
sg10
F0.18455408928240083
sg11
F0.02182888662452953
saF-103.29259026393777
aa(lp288
(dp289
g3
I95
sg4
(lp290
F-492.36327820772806
aF-286.04769693820435
aF-124.32618044454125
aF-53.943274394982154
aF-6.032327949880482
aF185.53272901846367
aF2046.4927968737138
asg6
F0.8370259802557702
sg7
F0.24148334652154407
sg8
F0.20220375534349677
sg9
F1.6251722955528236
sg10
F0.033623051205194314
sg11
F0.23763433435385167
saF-902.7371555904737
aa(lp291
(dp292
g3
I43
sg4
(lp293
F-609.3236713454592
aF-515.9719536806025
aF-377.9279736422046
aF-240.3627954493237
aF-141.95330487838237
aF-90.27252015722274
aF768.6249077477653
asg6
F1.0
sg7
F0.08243940701941033
sg8
F0.9978266872567688
sg9
F1.0692661182860723
sg10
F0.11315961036923117
sg11
F0.1287257871486466
saF-1503.2235986682663
aa(lp294
(dp295
g3
I44
sg4
(lp296
F-496.7405225862869
aF-385.66762991246196
aF-30.887552460454344
aF10.454466643776072
aF17.697259964872273
aF552.7826809425176
aF1754.037827178326
asg6
F0.930721446290671
sg7
F0.20927426090396734
sg8
F0.7068228230874121
sg9
F1.7594004309695015
sg10
F0.10725614157571549
sg11
F0.19888650047259118
saF-913.2957049592032
aa(lp297
(dp298
g3
I36
sg4
(lp299
F-404.8433635107515
aF-69.46391449260796
aF17.74113821707158
aF182.36019185224472
aF280.47605303087016
aF408.7961671998346
aF1897.3866375812013
asg6
F0.6147696157235678
sg7
F0.040785674049732545
sg8
F0.22378263795628517
sg9
F4.063375492393852
sg10
F0.05508840581669636
sg11
F0.3523443057715834
saF-456.56613978628786
aa(lp300
(dp301
g3
I147
sg4
(lp302
F-467.7536219894031
aF-103.47497349918524
aF37.7557049260904
aF384.5578266895843
aF551.1553829786151
aF552.9128119672291
aF1217.6321060014493
asg6
F0.7196361610948601
sg7
F0.016449218252052755
sg8
F0.001705476657392735
sg9
F4.0386553533904825
sg10
F0.06024311756316041
sg11
F0.2567041268853179
saF-533.4728905624979
aa(lp303
(dp304
g3
I91
sg4
(lp305
F-393.0258828483494
aF-337.720980794094
aF-259.15112120589083
aF-125.87876143546953
aF87.01596113135429
aF101.28858780800647
aF1256.6855885812374
asg6
F0.7091208902269791
sg7
F0.14307025406865115
sg8
F0.45878612210238057
sg9
F3.0356788665945262
sg10
F0.06847190158446695
sg11
F0.20435681292443558
saF-989.8979848483342
aa(lp306
(dp307
g3
I130
sg4
(lp308
F-419.8582922432423
aF-400.8942621621035
aF38.416651881799
aF156.12364269546038
aF226.3859415864356
aF418.36557933655195
aF871.3609057080218
asg6
F1.0
sg7
F0.41884064783161695
sg8
F0.8260024611903017
sg9
F2.201673335419286
sg10
F0.17995675710610015
sg11
F0.2868607233642464
saF-782.3359025235468
aa.