(lp0
(lp1
(dp2
S'history_in_weeks'
p3
I42
sS'end_weight'
p4
F0.9749361389860138
sS'close_match_threshold'
p5
F0.36670862268656523
sS'start_weight'
p6
F0.5509117285929515
sS'over_power_threshold'
p7
F2.3744422342676277
sS'over_power_extra'
p8
F0.04137195055777379
sS'close_match_trim'
p9
F0.3394450671162432
saF-981.0170932474118
aa(lp10
(dp11
g3
I10
sg4
F0.767958747034612
sg5
F0.10987716246753493
sg6
F0.4544793456208728
sg7
F2.6344955448128005
sg8
F0.11080959599493845
sg9
F0.07722570688924907
saF-799.1563251839227
aa(lp12
(dp13
g3
I116
sg4
F0.6579313587214117
sg5
F0.24795434947698297
sg6
F0.2404866559178266
sg7
F4.148855637538516
sg8
F0.018284302502698347
sg9
F0.39894430400349734
saF-989.5624474851506
aa(lp14
(dp15
g3
I149
sg4
F0.8844925844892828
sg5
F0.11787518872587299
sg6
F0.459130929734788
sg7
F4.4460482116551825
sg8
F0.11466846083588927
sg9
F0.16938452134432647
saF-649.3494772309018
aa.