(lp0
(lp1
(dp2
S'winnings'
p3
(lp4
F266.5440623100076
aF313.69430929581085
aF334.5053679733471
aF375.46297610110264
aF485.6890423354978
aF508.6217925776714
aF1178.1944265338743
asS'end_weight'
p5
F0.8343222993672006
sS'close_match_threshold'
p6
F0.08717954512645121
sS'history_in_matches'
p7
I137
sS'start_weight'
p8
F0.643664773720388
sS'over_power_threshold'
p9
F1.6049555513706968
sS'over_power_extra'
p10
F0.1371784241213068
sS'close_match_trim'
p11
F0.05496332678717937
saF914.7437395791655
aa(lp12
(dp13
g3
(lp14
F205.12050010484631
aF277.5539375193796
aF291.9313252939369
aF389.29937745345296
aF506.6810192866835
aF533.0742883348755
aF1413.4548935658481
asg5
F1.0
sg6
F0.08225034803661521
sg7
I137
sg8
F0.722373412576151
sg9
F1.6049555513706968
sg10
F0.1371784241213068
sg11
F0.07949506906557985
saF774.6057629181628
aa(lp15
(dp16
g3
(lp17
F67.44444317546231
aF160.01159444422
aF343.56493386525494
aF345.1410594358131
aF350.49771069157805
aF991.8927939178125
aF1611.128979422252
asg5
F0.8725004339898839
sg6
F0.038231588134949424
sg7
I112
sg8
F0.643664773720388
sg9
F1.6049555513706968
sg10
F0.1371784241213068
sg11
F0.3481566036821909
saF571.0209714849373
aa(lp18
(dp19
g3
(lp20
F47.05973492019575
aF136.06799095056613
aF379.75364817013724
aF409.8475107491977
aF439.35013438052056
aF778.3489316558523
aF1223.104386193953
asg5
F0.7951862387374212
sg6
F0.06556897843477269
sg7
I107
sg8
F0.501018068464842
sg9
F1.6049555513706968
sg10
F0.1471584073037749
sg11
F0.06130662315908278
saF562.8813740408991
aa(lp21
(dp22
g3
(lp23
F-28.768530802632085
aF218.88669467248815
aF368.0170727556397
aF426.61218533236774
aF486.40622972533924
aF592.7319037127227
aF1169.9892464016948
asg5
F1.0
sg6
F0.08225034803661521
sg7
I137
sg8
F0.5793984751032177
sg9
F1.6049555513706968
sg10
F0.1371784241213068
sg11
F0.06427561919555093
saF558.1352366254957
aa(lp24
(dp25
g3
(lp26
F-28.768530802632085
aF218.88669467248815
aF368.0170727556397
aF426.61218533236774
aF486.40622972533924
aF592.7319037127227
aF1169.9892464016948
asg5
F1.0
sg6
F0.08225034803661521
sg7
I137
sg8
F0.5793984751032177
sg9
F1.6049555513706968
sg10
F0.1371784241213068
sg11
F0.06427561919555093
saF558.1352366254957
aa(lp27
(dp28
g3
(lp29
F33.417727122913675
aF178.56749043410196
aF343.00344177561215
aF411.52879678033946
aF474.05681789052574
aF532.5118386795446
aF756.9341044721357
asg5
F0.8789571363430259
sg6
F0.034069226131646674
sg7
I137
sg8
F0.643664773720388
sg9
F1.6049555513706968
sg10
F0.1371784241213068
sg11
F0.05970624330118288
saF554.9886593326278
aa(lp30
(dp31
g3
(lp32
F34.88438883011008
aF172.52358358344623
aF338.8172455805832
aF394.7192165708725
aF538.9648065768638
aF791.8909995548643
aF1711.1001184710412
asg5
F0.8213571372251341
sg6
F0.09290636873459596
sg7
I114
sg8
F0.643664773720388
sg9
F1.6049555513706968
sg10
F0.1441717959912637
sg11
F0.06130662315908278
saF546.2252179941395
aa(lp33
(dp34
g3
(lp35
F-195.7307356504523
aF320.96557644813925
aF397.84629804264614
aF402.12268861831217
aF441.71975461811826
aF603.1774738162342
aF1721.4746235503567
asg5
F0.841412099462943
sg6
F0.038231588134949424
sg7
I114
sg8
F0.5302842629359439
sg9
F3.3798307400073426
sg10
F0.06637010212079097
sg11
F0.05310799224097034
saF523.0811388403331
aa(lp36
(dp37
g3
(lp38
F129.95711151209503
aF163.05244703521385
aF219.2669675255761
aF474.1169039681977
aF509.54724716931514
aF557.6769757758314
aF2193.7084344673267
asg5
F0.7951862387374212
sg6
F0.09290636873459596
sg7
I114
sg8
F0.6888153106788502
sg9
F1.6049555513706968
sg10
F0.11084046779865181
sg11
F0.06130662315908278
saF512.276526072885
aa(lp39
(dp40
g3
(lp41
F-55.36446543030581
aF127.27943189022676
aF431.7669931815424
aF463.85195553022936
aF624.9576045401429
aF817.7506861800307
aF1726.1335022513908
asg5
F0.8213571372251341
sg6
F0.038231588134949424
sg7
I114
sg8
F0.6842952993891332
sg9
F1.6049555513706968
sg10
F0.1471584073037749
sg11
F0.06130662315908278
saF503.6819596414633
aa(lp42
(dp43
g3
(lp44
F-53.729784791651696
aF239.98467487514517
aF314.15432131131433
aF393.6504748407401
aF711.4092405486197
aF883.8093594114218
aF1672.9299117536889
asg5
F0.8899688560334672
sg6
F0.038231588134949424
sg7
I110
sg8
F0.7196505870439206
sg9
F3.206337803356766
sg10
F0.13688141164668052
sg11
F0.3481566036821909
saF500.4092113948078
aa(lp45
(dp46
g3
(lp47
F-43.301632627092886
aF69.01181520718046
aF459.42057815529006
aF574.4725105306209
aF641.2378733403127
aF801.295360593243
aF2124.222644076523
asg5
F0.8213571372251341
sg6
F0.06556897843477269
sg7
I114
sg8
F0.6410118760075704
sg9
F1.6049555513706968
sg10
F0.12785528670165827
sg11
F0.17806628742784483
saF485.13076073537763
aa(lp48
(dp49
g3
(lp50
F-182.90941063118782
aF161.03127906741247
aF491.57112852709406
aF513.2833882116777
aF868.6211046268613
aF959.4475946620737
aF2324.2947608270756
asg5
F0.9106785686125671
sg6
F0.04076037155489298
sg7
I111
sg8
F0.696023051218842
sg9
F4.86603529726952
sg10
F0.04116112645658426
sg11
F0.040628720800329844
saF469.6929969633187
aa(lp51
(dp52
g3
(lp53
F-9.69946097091713
aF194.57208542675926
aF278.35961388699
aF337.28895788111413
aF518.1532440177959
aF847.9033341673589
aF1634.3154111860708
asg5
F0.8213571372251341
sg6
F0.09290636873459596
sg7
I114
sg8
F0.643664773720388
sg9
F1.6049555513706968
sg10
F0.1471584073037749
sg11
F0.06130662315908278
saF463.23223834283215
aa(lp54
(dp55
g3
(lp56
F-249.58332153244032
aF241.50101560741746
aF452.3179665742548
aF459.1389394619823
aF464.3962789022653
aF575.2565633549482
aF1367.5107051610507
asg5
F1.0
sg6
F0.013305047495489108
sg7
I115
sg8
F0.6867295602398616
sg9
F3.631564521906868
sg10
F0.02870872570808654
sg11
F0.05991356866588239
saF444.23566064923193
aa(lp57
(dp58
g3
(lp59
F-213.51567917324314
aF279.85527963659
aF373.5769067117394
aF547.328259741932
aF556.60474725482
aF678.391665913405
aF1497.1180516387685
asg5
F0.8928692551416274
sg6
F0.013305047495489108
sg7
I115
sg8
F0.6472628437143899
sg9
F4.245405604505838
sg10
F0.09323118143275444
sg11
F0.07358791160392249
saF439.9165071750863
aa(lp60
(dp61
g3
(lp62
F-107.91096084969001
aF240.8914665663051
aF305.87900227646855
aF344.88892695574896
aF660.9304207950415
aF969.8217292154961
aF1802.7257969487914
asg5
F0.8692591434543673
sg6
F0.038231588134949424
sg7
I110
sg8
F0.6452405287113356
sg9
F2.9969460378526422
sg10
F0.07452252829352872
sg11
F0.23852630367455474
saF438.85950799308364
aa(lp63
(dp64
g3
(lp65
F-267.88055460636394
aF326.52019150038404
aF378.28567814138046
aF403.59032422668133
aF582.891525458082
aF669.2578606696588
aF2052.733047043714
asg5
F1.0
sg6
F0.038231588134949424
sg7
I114
sg8
F0.750193768515258
sg9
F4.068753347741565
sg10
F0.06637010212079097
sg11
F0.06960065618338136
saF436.92531503540056
aa(lp66
(dp67
g3
(lp68
F-249.58332153244032
aF241.50101560741746
aF444.5475500673608
aF452.3179665742548
aF464.3962789022653
aF575.2565633549482
aF1344.363357633078
asg5
F1.0
sg6
F0.013305047495489108
sg7
I115
sg8
F0.6867295602398616
sg9
F4.055943578958225
sg10
F0.056072631529972015
sg11
F0.06130662315908278
saF436.46524414233795
aa(lp69
(dp70
g3
(lp71
F-81.91685805923589
aF180.50717362855562
aF336.3253761514975
aF602.2633073019024
aF660.8400303941478
aF826.7671894033997
aF1734.2651457627762
asg5
F0.939478568171513
sg6
F0.05815978708413094
sg7
I137
sg8
F0.6115316244118029
sg9
F1.6049555513706968
sg10
F0.1371784241213068
sg11
F0.04930447202371307
saF434.9156917208172
aa(lp72
(dp73
g3
(lp74
F-229.90061274419133
aF293.7140391817052
aF364.64495781314577
aF446.6653149369847
aF449.1910546990325
aF720.5226924277963
aF2225.613352730798
asg5
F0.9256929163750509
sg6
F0.038231588134949424
sg7
I114
sg8
F0.7108394490873766
sg9
F3.3798307400073426
sg10
F0.06637010212079097
sg11
F0.05522138864257574
saF428.4583842506596
aa(lp75
(dp76
g3
(lp77
F-230.8998995024325
aF249.22648079963892
aF401.83055092601535
aF445.4655491948058
aF473.5418272641807
aF489.5277321883034
aF2087.6090650222945
asg5
F0.9171611496836003
sg6
F0.025768317815219266
sg7
I114
sg8
F0.7108394490873766
sg9
F4.055943578958225
sg10
F0.059985091357896425
sg11
F0.06130662315908278
saF420.15713222322177
aa(lp78
(dp79
g3
(lp80
F51.725902852516356
aF95.56702510094647
aF269.58570343413703
aF316.5988903942466
aF402.35132501536646
aF458.64255489180823
aF937.3124558042584
asg5
F0.8343222993672006
sg6
F0.15119564857774132
sg7
I137
sg8
F0.643664773720388
sg9
F1.6049555513706968
sg10
F0.1371784241213068
sg11
F0.05496332678717937
saF416.87863138759985
aa(lp81
(dp82
g3
(lp83
F-187.60491625450607
aF127.00743238352447
aF474.1726843413958
aF506.25194672125986
aF849.7461439740578
aF959.4475946620737
aF2299.5481497042924
asg5
F0.9171611496836003
sg6
F0.04076037155489298
sg7
I111
sg8
F0.7108394490873766
sg9
F4.1408824330652045
sg10
F0.1129564924715836
sg11
F0.040628720800329844
saF413.5752004704142
aa(lp84
(dp85
g3
(lp86
F-105.85671458301988
aF133.66128132171798
aF384.56178874668785
aF423.7832471855977
aF746.0027745766313
aF916.7610071323516
aF1743.4745537923486
asg5
F0.8692591434543673
sg6
F0.038231588134949424
sg7
I110
sg8
F0.6452405287113356
sg9
F2.9969460378526422
sg10
F0.07452252829352872
sg11
F0.14991646341681875
saF412.36635548538595
aa(lp87
(dp88
g3
(lp89
F-128.37502858168466
aF259.8356754361919
aF273.6223565747796
aF330.6593695791994
aF778.7962908861143
aF1407.139678681413
aF2004.9339507548407
asg5
F0.9050152024126139
sg6
F0.038231588134949424
sg7
I110
sg8
F0.7942019315419865
sg9
F3.4157295688608897
sg10
F0.030819464221893963
sg11
F0.13177544824152604
saF405.0830034292868
aa(lp90
(dp91
g3
(lp92
F-75.81014513731168
aF157.51642127979858
aF320.2914456623646
aF431.0357222290918
aF569.7890486258357
aF679.5462703198032
aF2543.9709976065456
asg5
F0.9235919733188511
sg6
F0.03615040713329805
sg7
I110
sg8
F0.6565935524409847
sg9
F1.6049555513706968
sg10
F0.02870872570808654
sg11
F0.06080520211986603
saF401.9977218048515
aa(lp93
(dp94
g3
(lp95
F-229.90061274419133
aF280.6462206041126
aF350.9985082350131
aF418.92689444408984
aF449.1910546990325
aF703.3174655035211
aF2171.1591054652386
asg5
F0.9256929163750509
sg6
F0.038231588134949424
sg7
I114
sg8
F0.7108394490873766
sg9
F2.9696889159379736
sg10
F0.041313213540189894
sg11
F0.05733478504418113
saF401.7441160949344
aa(lp96
(dp97
g3
(lp98
F-85.52516149491089
aF204.59200291340653
aF282.58084083335893
aF340.73036728982083
aF680.0429647141991
aF683.0410714677771
aF2423.6629813777595
asg5
F0.9171611496836003
sg6
F0.038231588134949424
sg7
I110
sg8
F0.6565935524409847
sg9
F1.6049555513706968
sg10
F0.030819464221893963
sg11
F0.09629032518069604
saF401.6476822518546
aa(lp99
(dp100
g3
(lp101
F-82.64259504832683
aF127.444983715734
aF352.2729585736706
aF434.0517411693388
aF434.39430429814206
aF609.2008722945793
aF1838.0065592265487
asg5
F0.8725004339898839
sg6
F0.04311398128874416
sg7
I112
sg8
F0.6842952993891332
sg9
F2.5103425601157934
sg10
F0.1371784241213068
sg11
F0.3481566036821909
saF397.0753472410778
aa(lp102
(dp103
g3
(lp104
F-216.12991729131352
aF122.38851801038413
aF490.61901242843305
aF492.23287259476456
aF713.2088768930773
aF750.1093142473424
aF2151.24248366155
asg5
F0.8660178529188507
sg6
F0.04076037155489298
sg7
I112
sg8
F0.6277867543129438
sg9
F4.86603529726952
sg10
F0.056072631529972015
sg11
F0.040628720800329844
saF396.87761314750367
aa(lp105
(dp106
g3
(lp107
F-153.88263052261937
aF123.58672341176157
aF421.43074345210175
aF515.5426289779236
aF696.7325269909372
aF1158.1081821270632
aF2164.457354324037
asg5
F0.8692591434543673
sg6
F0.038231588134949424
sg7
I110
sg8
F0.757681945188647
sg9
F3.390033200414792
sg10
F0.07452252829352872
sg11
F0.05733478504418113
saF391.13483634124395
aa(lp108
(dp109
g3
(lp110
F-153.88263052261937
aF123.58672341176157
aF421.43074345210175
aF515.5426289779236
aF696.7325269909372
aF1158.1081821270632
aF2164.457354324037
asg5
F0.8692591434543673
sg6
F0.038231588134949424
sg7
I110
sg8
F0.757681945188647
sg9
F3.390033200414792
sg10
F0.07452252829352872
sg11
F0.05733478504418113
saF391.13483634124395
aa(lp111
(dp112
g3
(lp113
F16.158262227645764
aF166.18816353647526
aF199.09864581425313
aF306.5515415871869
aF511.7917560882761
aF800.6026759190931
aF1584.9637603528508
asg5
F0.7951862387374212
sg6
F0.09290636873459596
sg7
I114
sg8
F0.572341421092615
sg9
F1.6049555513706968
sg10
F0.1471584073037749
sg11
F0.06130662315908278
saF381.44507157837415
aa(lp114
(dp115
g3
(lp116
F-228.38471510293903
aF262.3520474788347
aF346.81926866542904
aF373.330265219641
aF523.169440286991
aF768.4166979804513
aF1569.2751759576827
asg5
F0.9555644166247346
sg6
F0.041603299361540835
sg7
I107
sg8
F0.7126384840843776
sg9
F4.245405604505838
sg10
F0.03838707718487011
sg11
F0.05970624330118288
saF380.78660104132473
aa(lp117
(dp118
g3
(lp119
F-263.9544149531738
aF154.92513169247445
aF476.01207681412006
aF506.25194672125986
aF515.5808179711944
aF837.8229249147607
aF2583.080503452514
asg5
F0.9017739118770973
sg6
F0.04076037155489298
sg7
I113
sg8
F0.696023051218842
sg9
F4.245405604505838
sg10
F0.09323118143275444
sg11
F0.040628720800329844
saF366.9827935534207
aa(lp120
(dp121
g3
(lp122
F-216.79204825395095
aF208.30199911050863
aF372.26624998574266
aF386.2438947930109
aF632.0653175179175
aF682.5213497782358
aF1815.8515041655037
asg5
F0.9235919733188511
sg6
F0.034069226131646674
sg7
I110
sg8
F0.5165115629744147
sg9
F3.6319075686681934
sg10
F0.02870872570808654
sg11
F0.05970624330118288
saF363.77620084230034
aa(lp123
(dp124
g3
(lp125
F-213.39883972401685
aF258.74436545975664
aF315.42341135170295
aF333.9755087133972
aF484.5418325203366
aF537.0382064678406
aF1617.7323972936242
asg5
F1.0
sg6
F0.04497501058813225
sg7
I103
sg8
F0.750193768515258
sg9
F4.068753347741565
sg10
F0.0601630635691352
sg11
F0.06960065618338136
saF360.76893708744274
aa(lp126
(dp127
g3
(lp128
F-207.7227766926144
aF226.92016946113404
aF339.78116434430285
aF368.2412937341669
aF602.7744386455895
aF923.602036051291
aF2015.0038837052657
asg5
F0.9171611496836003
sg6
F0.038231588134949424
sg7
I113
sg8
F0.7108394490873766
sg9
F3.4157295688608897
sg10
F0.06389755118582083
sg11
F0.13177544824152604
saF358.9785571128225
aa(lp129
(dp130
g3
(lp131
F-180.34888125433872
aF243.15852368356627
aF290.31016727559836
aF327.9267221904697
aF534.481145475909
aF710.9904151420888
aF2080.0859764907054
asg5
F0.8928692551416274
sg6
F0.038231588134949424
sg7
I107
sg8
F0.6565935524409847
sg9
F1.6049555513706968
sg10
F0.030819464221893963
sg11
F0.06080520211986603
saF353.1198097048259
aa(lp132
(dp133
g3
(lp134
F-195.05398164513986
aF146.3273247832176
aF401.5636231942394
aF420.30506033850816
aF682.1999708599546
aF828.578781414667
aF2441.801777085283
asg5
F0.8660178529188507
sg6
F0.034069226131646674
sg7
I110
sg8
F0.6277867543129438
sg9
F3.6319075686681934
sg10
F0.02870872570808654
sg11
F0.050167482050756364
saF352.83696633231716
aa(lp135
(dp136
g3
(lp137
F-181.877967107573
aF227.57525355155553
aF297.7306860364656
aF317.5386270811425
aF397.65152277566176
aF659.9282584965003
aF1863.4228723720812
asg5
F1.0
sg6
F0.05776116075012838
sg7
I115
sg8
F0.722373412576151
sg9
F4.068753347741565
sg10
F0.0601630635691352
sg11
F0.06841492705488049
saF343.42797248044815
aa(lp138
(dp139
g3
(lp140
F-245.14674973965225
aF179.85889642858228
aF407.45495305422287
aF439.313827163792
aF441.652258367355
aF791.0514022850873
aF2660.339702865853
asg5
F0.8660178529188507
sg6
F0.04076037155489298
sg7
I113
sg8
F0.7524500472319411
sg9
F4.86603529726952
sg10
F0.056072631529972015
sg11
F0.048981752922255484
saF342.1670997431529
aa(lp141
(dp142
g3
(lp143
F-223.83003360630823
aF246.94383928324373
aF313.3110793587946
aF444.30407160014806
aF508.4100464857577
aF822.0762160572983
aF1613.5744176702437
asg5
F0.9331214926186508
sg6
F0.04076037155489298
sg7
I107
sg8
F0.696023051218842
sg9
F4.122933018638431
sg10
F0.04116112645658426
sg11
F0.050167482050756364
saF336.4248850357301
aa(lp144
(dp145
g3
(lp146
F-175.2632944902789
aF197.3653249308377
aF313.0750776496018
aF381.6853612610512
aF727.4058695573499
aF751.2931434473794
aF1736.8919179961604
asg5
F0.8974760299147091
sg6
F0.038231588134949424
sg7
I112
sg8
F0.6452405287113356
sg9
F2.9969460378526422
sg10
F0.07452252829352872
sg11
F0.14793054435936792
saF335.1771080901606
aa(lp147
(dp148
g3
(lp149
F-203.9178871144743
aF206.65865341221343
aF328.73528379176514
aF365.9367359937585
aF706.0674694595195
aF762.6349311525712
aF1691.1251811198058
asg5
F0.8660178529188507
sg6
F0.038231588134949424
sg7
I112
sg8
F0.6410118760075704
sg9
F3.397780154434116
sg10
F0.11153877741205284
sg11
F0.17806628742784483
saF331.47605008950427
aa(lp150
(dp151
g3
(lp152
F-159.29246728483986
aF233.06948122873837
aF250.731363835122
aF318.371074538313
aF787.8650013563306
aF1032.9646290428707
aF2065.579080412347
asg5
F0.9628464581875255
sg6
F0.04076037155489298
sg7
I111
sg8
F0.8052892002650853
sg9
F3.663921859575499
sg10
F0.07452252829352872
sg11
F0.17597410861284785
saF324.5083777790205
aa(lp153
(dp154
g3
(lp155
F-122.09428442124113
aF69.95118738822157
aF375.9346554335891
aF476.5352973813167
aF623.4993491971625
aF769.8242595984766
aF1874.2331360395492
asg5
F0.9106785686125671
sg6
F0.04118183545821691
sg7
I111
sg8
F0.7370185878366036
sg9
F3.0032658890277664
sg10
F0.12892080765074648
sg11
F0.3113194964253658
saF323.79155840056956
aa(lp156
(dp157
g3
(lp158
F-122.09428442124113
aF69.95118738822157
aF375.9346554335891
aF476.5352973813167
aF623.4993491971625
aF769.8242595984766
aF1874.2331360395492
asg5
F0.9106785686125671
sg6
F0.04118183545821691
sg7
I111
sg8
F0.7370185878366036
sg9
F3.0032658890277664
sg10
F0.12892080765074648
sg11
F0.3113194964253658
saF323.79155840056956
aa(lp159
(dp160
g3
(lp161
F-200.2887707402067
aF160.10876601903146
aF343.49595034414074
aF522.4117159544869
aF582.2660723607903
aF854.6555295826156
aF2116.6753174782707
asg5
F0.962753418194362
sg6
F0.034069226131646674
sg7
I110
sg8
F0.6565935524409847
sg9
F3.6319075686681934
sg10
F0.02870872570808654
sg11
F0.060255722710524456
saF303.3159456229655
aa(lp162
(dp163
g3
(lp164
F-216.24173425065374
aF174.7050554150578
aF302.92998807242157
aF416.4343110516338
aF696.0350974915295
aF721.1462448558627
aF1692.4726499343415
asg5
F0.9171611496836003
sg6
F0.038231588134949424
sg7
I112
sg8
F0.7108394490873766
sg9
F2.5103425601157934
sg10
F0.06389755118582083
sg11
F0.23996602596185848
saF261.39330923682564
aa(lp165
(dp166
g3
(lp167
F-222.43794602730816
aF39.531127088071344
aF450.03425756539195
aF506.25194672125986
aF822.1972479632764
aF962.0759646676202
aF2388.588785100077
asg5
F0.8779933544761589
sg6
F0.04076037155489298
sg7
I110
sg8
F0.6737186706784322
sg9
F4.86603529726952
sg10
F0.056072631529972015
sg11
F0.040628720800329844
saF267.12743862615514
aa(lp168
(dp169
g3
(lp170
F-86.07371065239568
aF282.2526955409371
aF358.0880384233601
aF369.1474379333906
aF914.6392247688357
aF1067.9918612922656
aF1936.7674313008765
asg5
F0.9106785686125671
sg6
F0.040971103506554946
sg7
I111
sg8
F0.696023051218842
sg9
F3.0032658890277664
sg10
F0.04116112645658426
sg11
F0.17597410861284785
saF554.2670233119015
aa(lp171
(dp172
g3
(lp173
F-236.92247674348903
aF122.65005879174373
aF198.15072115953058
aF220.68279361483928
aF371.4508063221049
aF563.1686184054445
aF1796.4868784335426
asg5
F1.0
sg6
F0.038231588134949424
sg7
I115
sg8
F0.6838069706437433
sg9
F2.9969460378526422
sg10
F0.06734279593133197
sg11
F0.23852630367455474
saF83.87830320778528
aa(lp174
(dp175
g3
(lp176
F-165.83764083454605
aF45.966770190471834
aF218.68814133741648
aF369.09667456912575
aF645.6771443998646
aF659.4479519276601
aF1491.8688828901477
asg5
F0.8995696727687508
sg6
F0.04076037155489298
sg7
I109
sg8
F0.696023051218842
sg9
F4.122933018638431
sg10
F0.07634995193431855
sg11
F0.1141168847393006
saF98.81727069334227
aa(lp177
(dp178
g3
(lp179
F-43.67201422635287
aF203.58375296687996
aF328.40455543103894
aF378.42221517978487
aF621.3672986600354
aF1268.9842070634963
aF1928.7147947960616
asg5
F0.9050152024126139
sg6
F0.038231588134949424
sg7
I110
sg8
F0.7942019315419865
sg9
F3.4157295688608897
sg10
F0.08385043793428724
sg11
F0.3481566036821909
saF488.316294171566
aa(lp180
(dp181
g3
(lp182
F-176.71446395165754
aF409.5756202549185
aF437.5774651622992
aF440.02069055769925
aF473.069659234935
aF545.1688271390244
aF1287.8172709626224
asg5
F0.9171611496836003
sg6
F0.04076037155489298
sg7
I109
sg8
F0.501018068464842
sg9
F1.6049555513706968
sg10
F0.13005744988767926
sg11
F0.06130662315908278
saF670.4386214655601
aa(lp183
(dp184
g3
(lp185
F-268.52396437821835
aF97.82946394799592
aF447.05722354677755
aF682.5538202333407
aF743.1689679693811
aF753.4408054596663
aF1805.1823487631796
asg5
F0.9256929163750509
sg6
F0.038231588134949424
sg7
I112
sg8
F0.7108394490873766
sg9
F2.9696889159379736
sg10
F0.05791787091685931
sg11
F0.05733478504418113
saF276.3627231165551
aa(lp186
(dp187
g3
(lp188
F-75.75691670568813
aF-24.72567459090226
aF136.59788886735828
aF327.61474352702317
aF546.8131897111225
aF662.5774386424152
aF2223.350315110356
asg5
F0.7951862387374212
sg6
F0.06556897843477269
sg7
I114
sg8
F0.7108394490873766
sg9
F1.6049555513706968
sg10
F0.008461555065236782
sg11
F0.06130662315908278
saF36.11529757076789
aa(lp189
(dp190
g3
(lp191
F-179.50179307455596
aF243.52510439790558
aF272.0391378519123
aF464.6394481955242
aF702.274370090483
aF1308.3986632680526
aF2136.10880976673
asg5
F0.8899688560334672
sg6
F0.038231588134949424
sg7
I110
sg8
F0.7569262592929535
sg9
F3.4157295688608897
sg10
F0.08385043793428724
sg11
F0.23996602596185848
saF336.0624491752619
aa(lp192
(dp193
g3
(lp194
F-40.68542563217966
aF86.76720257545571
aF353.8677105721599
aF405.3426129973577
aF583.033969619077
aF765.231229378862
aF2883.558240556583
asg5
F1.0
sg6
F0.06361267931237373
sg7
I120
sg8
F0.7362835905457045
sg9
F1.6049555513706968
sg10
F0.098670743845221
sg11
F0.0745478626244806
saF399.949487515436
aa(lp195
(dp196
g3
(lp197
F-215.61407826714537
aF192.8988084606856
aF489.5277321883034
aF504.5137680985797
aF641.7608624955301
aF828.4682114829941
aF2507.291884860228
asg5
F0.9106785686125671
sg6
F0.027032709525191045
sg7
I111
sg8
F0.6867295602398616
sg9
F4.460989438113873
sg10
F0.056072631529972015
sg11
F0.06130662315908278
saF466.8124623818436
aa(lp198
(dp199
g3
(lp200
F-224.04779691463239
aF122.38851801038413
aF465.70207711743615
aF492.23287259476456
aF730.6906001266798
aF732.4314423862586
aF2213.1515139993667
asg5
F0.8660178529188507
sg6
F0.04076037155489298
sg7
I112
sg8
F0.6277867543129438
sg9
F4.86603529726952
sg10
F0.056072631529972015
sg11
F0.04229698408644174
saF364.0427982131879
aa(lp201
(dp202
g3
(lp203
F-184.02092331549886
aF43.34386297660512
aF200.04303191644158
aF382.44902133026994
aF384.7752794303617
aF424.20291353615676
aF1741.0613902565779
asg5
F0.9278578566645764
sg6
F0.027032709525191045
sg7
I115
sg8
F0.7262760219897376
sg9
F3.663921859575499
sg10
F0.08387685486314159
sg11
F0.12478101010838516
saF59.36597157754784
aa(lp204
(dp205
g3
(lp206
F-175.69460620647408
aF58.6674624285688
aF116.7482668856469
aF371.022734314495
aF382.44902133026994
aF463.4666065521051
aF1783.183127060583
asg5
F0.8989422287771207
sg6
F0.025768317815219266
sg7
I115
sg8
F0.7207323876281881
sg9
F3.4157295688608897
sg10
F0.030819464221893963
sg11
F0.13177544824152604
saF-0.2788768922583813
aa(lp207
(dp208
g3
(lp209
F-99.92494816925159
aF167.96627480880034
aF395.3257461213459
aF428.90512649804714
aF730.9562621553014
aF823.8032212419496
aF1877.609290858703
asg5
F0.8899688560334672
sg6
F0.039706711796583166
sg7
I111
sg8
F0.7370185878366036
sg9
F3.206337803356766
sg10
F0.1329011096487135
sg11
F0.3113194964253658
saF463.36707276089464
aa(lp210
(dp211
g3
(lp212
F-327.223573875286
aF-29.174792357565366
aF40.07151814166673
aF577.5100639497157
aF704.8280395078887
aF718.29283871304
aF768.3852456693321
asg5
F1.0
sg6
F0.013305047495489108
sg7
I137
sg8
F0.722373412576151
sg9
F2.8304495651644612
sg10
F0.056072631529972015
sg11
F0.07949506906557985
saF-316.3268480911846
aa(lp213
(dp214
g3
(lp215
F-49.277846415749195
aF344.6451344699881
aF562.7467402279167
aF567.798942906795
aF748.7307936356026
aF1373.7400787897986
aF2927.809048912743
asg5
F0.7951862387374212
sg6
F0.038231588134949424
sg7
I110
sg8
F0.757681945188647
sg9
F1.6049555513706968
sg10
F0.07452252829352872
sg11
F0.05733478504418113
saF858.1140282821556
aa(lp216
(dp217
g3
(lp218
F-222.43794602730816
aF39.531127088071344
aF450.03425756539195
aF506.25194672125986
aF822.1972479632764
aF962.0759646676202
aF2322.4848622214745
asg5
F0.9017739118770973
sg6
F0.04076037155489298
sg7
I110
sg8
F0.696023051218842
sg9
F4.184169311572134
sg10
F0.09323118143275444
sg11
F0.040628720800329844
saF267.12743862615514
aa(lp219
(dp220
g3
(lp221
F-226.22745679333025
aF117.66648032226158
aF302.56953787577686
aF368.58909546155724
aF625.0081199145357
aF859.0368663822949
aF1428.5427977925456
asg5
F0.9235919733188511
sg6
F0.03741479884326983
sg7
I111
sg8
F0.5165115629744147
sg9
F3.886395000866699
sg10
F0.07083260908983507
sg11
F0.050167482050756364
saF194.0085614047082
aa(lp222
(dp223
g3
(lp224
F-7.7773131774275726
aF454.3911820885878
aF475.6534833822086
aF501.1301257660448
aF756.7073388349343
aF784.3424483063559
aF2651.9409732789454
asg5
F0.8594165835699217
sg6
F0.038231588134949424
sg7
I112
sg8
F0.6842952993891332
sg9
F1.6049555513706968
sg10
F0.11084046779865181
sg11
F0.06130662315908278
saF922.2673522933688
aa(lp225
(dp226
g3
(lp227
F-148.34832895275758
aF4.889989282231227
aF256.1305619523928
aF280.44330703860373
aF557.5626474633048
aF615.0096965562143
aF2000.8333022973025
asg5
F0.9017739118770973
sg6
F0.04118183545821691
sg7
I113
sg8
F0.6472628437143899
sg9
F4.245405604505838
sg10
F0.11107599454175046
sg11
F0.3113194964253658
saF112.67222228186642
aa(lp228
(dp229
g3
(lp230
F-202.4900208881645
aF146.65326559744744
aF318.4542760493764
aF386.24389479301135
aF606.1185558852119
aF736.545578046203
aF1761.067440214376
asg5
F0.9235919733188511
sg6
F0.03741479884326983
sg7
I110
sg8
F0.5165115629744147
sg9
F4.1408824330652045
sg10
F0.1129564924715836
sg11
F0.050167482050756364
saF262.61752075865934
aa(lp231
(dp232
g3
(lp233
F-182.80872351388837
aF174.95315954816783
aF460.23579464515024
aF492.0650479261201
aF628.8016544059153
aF700.1942005228595
aF1998.3354616089919
asg5
F0.9171611496836003
sg6
F0.025768317815219266
sg7
I112
sg8
F0.6565935524409847
sg9
F3.631564521906868
sg10
F0.02870872570808654
sg11
F0.05991356866588239
saF452.3802306794297
aa(lp234
(dp235
g3
(lp236
F-270.21765480830743
aF335.74646651124067
aF349.4786169401432
aF472.06088236051005
aF631.4576811133061
aF653.0204468467057
aF2474.3868024975
asg5
F0.9105340016167801
sg6
F0.037190997634123736
sg7
I112
sg8
F0.6452405287113356
sg9
F1.6049555513706968
sg10
F0.05161562700080763
sg11
F0.10436787323961698
saF415.0074286430764
aa(lp237
(dp238
g3
(lp239
F-145.65704283570142
aF-122.20818445916302
aF-11.951246884886018
aF356.72800392824456
aF357.35908201852203
aF398.9145933784305
aF853.5288681426516
asg5
F0.8343222993672006
sg6
F0.15119564857774132
sg7
I137
sg8
F0.6980574104761645
sg9
F3.2354954243201086
sg10
F0.0966255278256394
sg11
F0.048981752922255484
saF-279.81647417975046
aa(lp240
(dp241
g3
(lp242
F48.3040618510629
aF258.46181339996474
aF400.63486311212887
aF432.122808268158
aF486.31467859401096
aF624.4230910197953
aF1591.0041908781113
asg5
F0.8804178526983235
sg6
F0.07553307790936345
sg7
I137
sg8
F0.6275981990660955
sg9
F1.6049555513706968
sg10
F0.14216841571254085
sg11
F0.05530554759139793
saF707.4007383631565
aa(lp243
(dp244
g3
(lp245
F-233.2801064767241
aF226.92016946113404
aF340.42559972878416
aF382.2029395885959
aF602.7744386455895
aF961.5633515023962
aF2015.0038837052657
asg5
F0.8213571372251341
sg6
F0.038231588134949424
sg7
I113
sg8
F0.6410118760075704
sg9
F3.4157295688608897
sg10
F0.09587641894373955
sg11
F0.13177544824152604
saF334.0656627131941
aa(lp246
(dp247
g3
(lp248
F-200.88493389120094
aF-0.36637837974967624
aF95.47629870236597
aF345.32825450207974
aF367.140496544333
aF371.71103601367895
aF1332.1990840510134
asg5
F1.0
sg6
F0.08225034803661521
sg7
I114
sg8
F0.5548413690195808
sg9
F1.6049555513706968
sg10
F0.034968904734832676
sg11
F0.06427561919555093
saF-105.77501356858465
aa(lp249
(dp250
g3
(lp251
F-245.14674973965225
aF179.85889642858228
aF407.45495305422287
aF439.313827163792
aF441.652258367355
aF791.0514022850873
aF2660.339702865853
asg5
F0.8660178529188507
sg6
F0.04076037155489298
sg7
I113
sg8
F0.7524500472319411
sg9
F4.248971432968856
sg10
F0.056072631529972015
sg11
F0.048981752922255484
saF342.1670997431529
aa(lp252
(dp253
g3
(lp254
F-263.61554212118403
aF203.65526460114143
aF293.8721431640163
aF419.4491827229856
aF487.8640046345513
aF712.7657239350926
aF2200.395306893862
asg5
F0.8735250268000925
sg6
F0.038231588134949424
sg7
I114
sg8
F0.6975673742382549
sg9
F3.3798307400073426
sg10
F0.1471584073037749
sg11
F0.06130662315908278
saF233.91186564397367
aa(lp255
(dp256
g3
(lp257
F-118.55142660706201
aF66.81120318101011
aF247.75132345134557
aF428.90512649804714
aF551.9996372103672
aF748.641397756088
aF2035.282179930121
asg5
F0.8915895013012255
sg6
F0.04118183545821691
sg7
I112
sg8
F0.7370185878366036
sg9
F3.0032658890277664
sg10
F0.1371784241213068
sg11
F0.3481566036821909
saF196.01110002529367
aa(lp258
(dp259
g3
(lp260
F-524.3470996827992
aF-273.0097273729756
aF-153.52236144166875
aF42.9671707606376
aF569.3932629976694
aF723.6096842252343
aF1422.8057212349495
asg5
F0.8692591434543673
sg6
F0.03991744374824513
sg7
I71
sg8
F0.757681945188647
sg9
F3.817719402460315
sg10
F0.056454802739199415
sg11
F0.05970624330118288
saF-950.8791884974436
aa(lp261
(dp262
g3
(lp263
F-247.04247692501963
aF241.20780117395907
aF460.9899604490554
aF489.5277321883034
aF496.7864705922477
aF767.0102482013058
aF2021.9019597357396
asg5
F0.9171611496836003
sg6
F0.025768317815219266
sg7
I113
sg8
F0.7108394490873766
sg9
F3.4157295688608897
sg10
F0.059985091357896425
sg11
F0.06130662315908278
saF455.15528469799483
aa(lp264
(dp265
g3
(lp266
F-207.8001033446693
aF32.09637608813546
aF182.6796446182525
aF317.5386270811425
aF619.9695987204445
aF803.2778619030132
aF1395.9417862827477
asg5
F1.0
sg6
F0.05776116075012838
sg7
I137
sg8
F0.722373412576151
sg9
F4.068753347741565
sg10
F0.0601630635691352
sg11
F0.06841492705488049
saF6.975917361718643
aa(lp267
(dp268
g3
(lp269
F20.494847011283582
aF86.774704176167
aF356.4007775806085
aF409.4742347556678
aF608.9217951524649
aF702.9077878203873
aF1100.5314356919152
asg5
F1.0
sg6
F0.08225034803661521
sg7
I137
sg8
F0.5793984751032177
sg9
F1.6049555513706968
sg10
F0.12504087403034164
sg11
F0.06427561919555093
saF463.6703287680591
aa(lp270
(dp271
g3
(lp272
F-115.166247073975
aF365.96405306673273
aF388.39252905984495
aF560.5530743721397
aF633.449813289466
aF821.6952299805691
aF1306.2148724374874
asg5
F0.8789571363430259
sg6
F0.15119564857774132
sg7
I137
sg8
F0.643664773720388
sg9
F1.6049555513706968
sg10
F0.1371784241213068
sg11
F0.00848817514884952
saF639.1903350526027
aa(lp273
(dp274
g3
(lp275
F22.481562785357255
aF88.15629942485361
aF401.6367301911255
aF403.56661599750487
aF668.6234916339008
aF1034.5108743937944
aF1727.0849333559245
asg5
F0.8213571372251341
sg6
F0.05190028328486106
sg7
I114
sg8
F0.6410118760075704
sg9
F1.6049555513706968
sg10
F0.1471584073037749
sg11
F0.1196864552934638
saF512.2745924013363
aa(lp276
(dp277
g3
(lp278
F-514.8975076128482
aF-182.27338143688837
aF-82.94903708822403
aF7.937330536795457
aF641.2542273704485
aF756.1930934575
aF2401.927886758082
asg5
F0.9160528008209463
sg6
F0.04076037155489298
sg7
I27
sg8
F0.6452405287113356
sg9
F3.663921859575499
sg10
F0.07452252829352872
sg11
F0.14991646341681875
saF-780.1199261379606
aa(lp279
(dp280
g3
(lp281
F-228.9699056913871
aF227.13249678549982
aF345.7263409008681
aF382.53851984050857
aF529.252517201315
aF635.3488696247364
aF1590.9024286113604
asg5
F0.9555644166247346
sg6
F0.041603299361540835
sg7
I107
sg8
F0.722373412576151
sg9
F4.157079476123702
sg10
F0.049275070377002655
sg11
F0.06841492705488049
saF343.8889319949808
aa(lp282
(dp283
g3
(lp284
F-270.3638729196957
aF32.64358403077995
aF483.3888076627079
aF543.9854204216122
aF554.2388476966414
aF978.2084866338894
aF2071.3996892434357
asg5
F0.841412099462943
sg6
F0.038231588134949424
sg7
I112
sg8
F0.7108394490873766
sg9
F4.1408824330652045
sg10
F0.06637010212079097
sg11
F0.040628720800329844
saF245.66851877379213
aa(lp285
(dp286
g3
(lp287
F-243.08472100373274
aF249.83590122380815
aF268.93664378430003
aF404.58743860390496
aF581.0538426219439
aF748.2700698647743
aF2278.7471476133205
asg5
F0.8660178529188507
sg6
F0.04076037155489298
sg7
I114
sg8
F0.6867295602398616
sg9
F4.460989438113873
sg10
F0.056072631529972015
sg11
F0.05514418804066913
saF275.68782400437544
aa(lp288
(dp289
g3
(lp290
F-92.38588305380063
aF-34.62466614881362
aF92.12571419454389
aF218.0320477571479
aF598.8813316978451
aF642.4036953507866
aF1080.959406123247
asg5
F0.9814232290937628
sg6
F0.08225034803661521
sg7
I137
sg8
F0.8052892002650853
sg9
F3.663921859575499
sg10
F0.10585047620741775
sg11
F0.12012486390419938
saF-34.884835008070354
aa(lp291
(dp292
g3
(lp293
F-261.05992319840345
aF65.60456775587386
aF404.7376254996452
aF649.5718486456419
aF690.2862688466348
aF760.9564064180413
aF1874.683283305621
asg5
F0.9449844280167337
sg6
F0.038231588134949424
sg7
I112
sg8
F0.7196505870439206
sg9
F3.631564521906868
sg10
F0.08279506867738354
sg11
F0.05991356866588239
saF209.28227005711562
aa(lp294
(dp295
g3
(lp296
F9.273086625729206
aF160.95219982524168
aF427.1235200855433
aF446.62801336439793
aF511.9631354693943
aF548.6481759691376
aF853.1666556481987
asg5
F0.8213571372251341
sg6
F0.038231588134949424
sg7
I125
sg8
F0.6115316244118029
sg9
F1.6049555513706968
sg10
F0.1471584073037749
sg11
F0.05530554759139793
saF597.3488065365142
aa(lp297
(dp298
g3
(lp299
F-187.60491625450607
aF127.00743238352447
aF474.1726843413958
aF506.25194672125986
aF849.7461439740578
aF959.4475946620737
aF2299.5481497042924
asg5
F0.9171611496836003
sg6
F0.04076037155489298
sg7
I111
sg8
F0.7108394490873766
sg9
F4.86603529726952
sg10
F0.1129564924715836
sg11
F0.040628720800329844
saF413.5752004704142
aa(lp300
(dp301
g3
(lp302
F-442.6361769198363
aF-133.33365036421105
aF64.82452731864123
aF237.8262062361414
aF541.0325826995627
aF586.2355610565853
aF827.9817991972093
asg5
F0.939478568171513
sg6
F0.15119564857774132
sg7
I137
sg8
F0.643664773720388
sg9
F1.6049555513706968
sg10
F0.1371784241213068
sg11
F0.3046645386989202
saF-511.14529996540614
aa(lp303
(dp304
g3
(lp305
F-245.33337476434224
aF186.69068347810912
aF307.47569611626795
aF401.6943871523856
aF571.7799117159238
aF712.7657239350926
aF2177.2480768289925
asg5
F0.9171611496836003
sg6
F0.03537166420167576
sg7
I114
sg8
F0.750193768515258
sg9
F4.068753347741565
sg10
F0.06007407746351581
sg11
F0.06545363967123208
saF248.83300483003484
aa(lp306
(dp307
g3
(lp308
F-135.78668266202533
aF194.82043734167405
aF308.18872142085183
aF418.491341032475
aF616.2700241884056
aF973.8788901058485
aF2269.84811780099
asg5
F0.8725004339898839
sg6
F0.038231588134949424
sg7
I110
sg8
F0.6842952993891332
sg9
F1.6049555513706968
sg10
F0.030819464221893963
sg11
F0.09629032518069604
saF367.22247610050056
aa.