(lp0
(lp1
(dp2
S'winnings'
p3
(lp4
F51.725902852516356
aF95.56702510094647
aF269.58570343413703
aF316.5988903942466
aF402.35132501536646
aF458.64255489180823
aF937.3124558042584
asS'end_weight'
p5
F0.8343222993672006
sS'close_match_threshold'
p6
F0.15119564857774132
sS'history_in_matches'
p7
I137
sS'start_weight'
p8
F0.643664773720388
sS'over_power_threshold'
p9
F1.6049555513706968
sS'over_power_extra'
p10
F0.1371784241213068
sS'close_match_trim'
p11
F0.05496332678717937
saF416.87863138759985
aa(lp12
(dp13
g3
(lp14
F-202.69048810978757
aF105.00598052578016
aF341.85652512920433
aF356.9115929781469
aF401.1667484016309
aF696.8134029248711
aF1851.6112660083354
asg5
F0.9171611496836003
sg6
F0.04497501058813225
sg7
I115
sg8
F0.7108394490873766
sg9
F2.6140613356979423
sg10
F0.01625632495958882
sg11
F0.05733478504418113
saF244.17201754519692
aa(lp15
(dp16
g3
(lp17
F-229.32321618804144
aF-3.094210861577835
aF442.700541694737
aF443.00688580029373
aF559.4713286633771
aF754.3101607593969
aF2041.767128191761
asg5
F1.0
sg6
F0.12693982152467065
sg7
I113
sg8
F0.8389748649308246
sg9
F4.86603529726952
sg10
F0.09669068900782969
sg11
F0.02075100837052686
saF210.28311464511773
aa(lp18
(dp19
g3
(lp20
F-154.34019345243223
aF156.49254634769886
aF205.58351226444506
aF261.0930942875
aF524.7942872198632
aF917.0210551086495
aF1892.3204258706928
asg5
F0.8213571372251341
sg6
F0.038231588134949424
sg7
I112
sg8
F0.7940606453765056
sg9
F3.783120362976942
sg10
F0.07452252829352872
sg11
F0.3481566036821909
saF207.7358651597117
aa(lp21
(dp22
g3
(lp23
F-2.9528870195371155
aF82.81008118586305
aF109.8666867660902
aF196.11083565823674
aF570.161160842456
aF575.6637035020274
aF1805.0491754966865
asg5
F0.7566579283374728
sg6
F0.1174627029266253
sg7
I110
sg8
F0.7134278367248028
sg9
F3.6076490209099443
sg10
F0.04116112645658426
sg11
F0.05970624330118288
saF189.72388093241614
aa(lp24
(dp25
g3
(lp26
F-79.27124605839117
aF9.471127594464747
aF252.76573155152846
aF294.65782170843136
aF486.15662392755416
aF522.2997729176245
aF1016.678523846248
asg5
F0.8800076078711258
sg6
F0.19904268743236822
sg7
I117
sg8
F0.7244724350756934
sg9
F1.6049555513706968
sg10
F0.1471584073037749
sg11
F0.05496332678717937
saF182.96561308760204
aa(lp27
(dp28
g3
(lp29
F-255.51016897762963
aF94.24499229307003
aF316.0557169773608
aF453.64399082191426
aF470.34263388382055
aF600.9273394541042
aF1297.6427716270105
asg5
F0.8213571372251341
sg6
F0.038231588134949424
sg7
I112
sg8
F0.3250402694375859
sg9
F3.3798307400073426
sg10
F0.03762273476641531
sg11
F0.06130662315908278
saF154.7905402928012
aa(lp30
(dp31
g3
(lp32
F-250.3335833571183
aF115.81301492482953
aF279.9146148339705
aF343.5775043442484
aF476.9897718411446
aF734.9203097554023
aF2259.235403468935
asg5
F0.9622120725907344
sg6
F0.038231588134949424
sg7
I112
sg8
F0.7940606453765056
sg9
F1.3868985760533465
sg10
F0.03838707718487011
sg11
F0.23852630367455474
saF145.39404640168175
aa(lp33
(dp34
g3
(lp35
F-226.77293482074901
aF134.299766314718
aF229.38269106028406
aF321.1903974685754
aF436.7288492760981
aF1026.1523359945772
aF2128.4718051825485
asg5
F0.8213571372251341
sg6
F0.038231588134949424
sg7
I112
sg8
F0.7940606453765056
sg9
F3.3798307400073426
sg10
F0.07452252829352872
sg11
F0.23852630367455474
saF136.90952255425304
aa(lp36
(dp37
g3
(lp38
F-71.06561093086532
aF-20.961885484453887
aF227.68695151664792
aF320.32122884779255
aF477.70886556684763
aF548.8907218416359
aF998.9408257108537
asg5
F0.8343222993672006
sg6
F0.19904268743236822
sg7
I119
sg8
F0.643664773720388
sg9
F1.6049555513706968
sg10
F0.1471584073037749
sg11
F0.05496332678717937
saF135.65945510132872
aa(lp39
(dp40
g3
(lp41
F-234.9009289656541
aF173.68273633040553
aF185.68083842537612
aF338.2827261702248
aF624.682725183412
aF771.0662245941794
aF1784.2560781652255
asg5
F0.8600455939082039
sg6
F0.0231634416751611
sg7
I107
sg8
F0.5165115629744147
sg9
F4.245405604505838
sg10
F0.07450888200880938
sg11
F0.24790683354186657
saF124.46264579012757
aa(lp42
(dp43
g3
(lp44
F-48.07217755532224
aF24.236963008676412
aF137.42724341732742
aF231.06523036438693
aF713.8870564707718
aF814.1227091217322
aF1252.409089589988
asg5
F1.0
sg6
F0.09034820629430113
sg7
I126
sg8
F0.722373412576151
sg9
F3.4157295688608897
sg10
F0.13688141164668052
sg11
F0.09506349845392648
saF113.59202887068159
aa(lp45
(dp46
g3
(lp47
F-65.71377055072946
aF-57.28925996260625
aF201.6416091022727
aF270.037608641524
aF456.0044975646447
aF640.1702667711443
aF1588.5779813901327
asg5
F0.9962837556835561
sg6
F0.05777001908366419
sg7
I115
sg8
F0.9018959965586191
sg9
F1.8500307852273752
sg10
F0.14107975938130976
sg11
F0.19271205248189296
saF78.63857858893698
aa(lp48
(dp49
g3
(lp50
F-285.2953547161453
aF130.53048658049875
aF231.11084585745743
aF407.13990252177814
aF521.0476666754803
aF616.9512931358342
aF1512.2521450504878
asg5
F0.9256929163750509
sg6
F0.006855333542513831
sg7
I116
sg8
F0.8052800964309987
sg9
F2.5479001791004006
sg10
F0.14181142649120024
sg11
F0.3777289523818588
saF76.34597772181087
aa(lp51
(dp52
g3
(lp53
F-263.2285194052897
aF43.078319588138356
aF263.59674453105686
aF265.9112897466557
aF397.85557308764055
aF1010.0753568795726
aF1045.935683842822
asg5
F1.0
sg6
F0.04497501058813225
sg7
I94
sg8
F0.7780141244543651
sg9
F3.623167120025188
sg10
F0.01625632495958882
sg11
F0.05970624330118288
saF43.446544713905496
aa(lp54
(dp55
g3
(lp56
F-136.4683555327797
aF27.485411026402062
aF119.04299117524465
aF273.01705749585085
aF363.0483415154283
aF748.048795851068
aF1409.8938366283187
asg5
F1.0
sg6
F0.08431387663073642
sg7
I112
sg8
F0.6747481378936823
sg9
F3.3507718019261103
sg10
F0.12832117537775095
sg11
F0.3761730729172017
saF10.060046668867017
aa(lp57
(dp58
g3
(lp59
F-130.56196374007266
aF44.655128070400224
aF67.29109083202206
aF146.19705230475552
aF398.2787761125069
aF496.8146227123425
aF1478.980842268607
asg5
F1.0
sg6
F0.19255795219179617
sg7
I139
sg8
F0.722373412576151
sg9
F1.7752181281865487
sg10
F0.09868148434520381
sg11
F0.07949506906557985
saF-18.615744837650368
aa(lp60
(dp61
g3
(lp62
F-36.05740581667396
aF-33.468764636463106
aF26.151507809132454
aF37.00541104485751
aF324.4683766321923
aF507.06500048353996
aF1989.1898866629936
asg5
F0.823732048213264
sg6
F0.19255795219179617
sg7
I113
sg8
F0.722373412576151
sg9
F3.4157295688608897
sg10
F0.09669068900782969
sg11
F0.050123038718053355
saF-43.374662644004616
aa(lp63
(dp64
g3
(lp65
F-149.72750342546078
aF15.433042916048521
aF51.585608475378876
aF78.11721166965594
aF227.6543480343753
aF435.82889203733794
aF1549.5927429536664
asg5
F1.0
sg6
F0.40035363160547177
sg7
I146
sg8
F0.7921813556898715
sg9
F2.4654017961075883
sg10
F0.09220613654717379
sg11
F0.047419958715996025
saF-82.70885203403338
aa(lp66
(dp67
g3
(lp68
F-58.48555833750845
aF-24.0530975104233
aF-4.820501150547216
aF49.45608601387494
aF239.6768174891895
aF415.3785105824886
aF1636.6840887397657
asg5
F1.0
sg6
F0.19869345611211198
sg7
I112
sg8
F0.5793984751032177
sg9
F4.328766794939509
sg10
F0.10406980217868159
sg11
F0.07358791160392249
saF-87.35915699847897
aa(lp69
(dp70
g3
(lp71
F-126.87497572461325
aF-103.89134013370017
aF107.44579246171338
aF117.23821320266416
aF215.521333335897
aF629.7145386368802
aF1360.2734280636137
asg5
F0.54731400387948
sg6
F0.3704421926518488
sg7
I137
sg8
F0.4972857394980167
sg9
F2.236894208426029
sg10
F0.0022516260762114994
sg11
F0.045037147211358965
saF-123.32052339660004
aa(lp72
(dp73
g3
(lp74
F-184.37523256882548
aF-35.26981256988995
aF93.83590114481899
aF178.2901194115857
aF553.4958788281247
aF641.2973245587823
aF2367.1073261963024
asg5
F0.7244116411498571
sg6
F0.16732022111219924
sg7
I113
sg8
F0.722373412576151
sg9
F1.7021031943428562
sg10
F0.04776849286197993
sg11
F0.026366053801201383
saF-125.80914399389644
aa(lp75
(dp76
g3
(lp77
F-145.8053461877364
aF-34.540101707906956
aF52.37272677799592
aF62.1970134036178
aF259.18341712170104
aF357.45259039285156
aF1844.1686699192242
asg5
F0.7982007238093227
sg6
F0.4641622504862811
sg7
I135
sg8
F0.6605895842646475
sg9
F3.894387878038682
sg10
F0.19666514027828694
sg11
F0.04538363680765927
saF-127.97272111764744
aa(lp78
(dp79
g3
(lp80
F-73.57429019579922
aF-36.73764521984208
aF-29.88705958548519
aF6.858443723516643
aF100.45838391544453
aF467.5829524404394
aF2086.9455224887865
asg5
F0.823732048213264
sg6
F0.19255795219179617
sg7
I113
sg8
F0.722373412576151
sg9
F3.4157295688608897
sg10
F0.018371034395626373
sg11
F0.07949506906557985
saF-140.1989950011265
aa(lp81
(dp82
g3
(lp83
F-73.57429019579922
aF-36.73764521984208
aF-29.88705958548519
aF6.858443723516643
aF100.45838391544453
aF467.5829524404394
aF2086.9455224887865
asg5
F0.823732048213264
sg6
F0.19255795219179617
sg7
I113
sg8
F0.722373412576151
sg9
F3.4157295688608897
sg10
F0.018371034395626373
sg11
F0.07949506906557985
saF-140.1989950011265
aa(lp84
(dp85
g3
(lp86
F-100.57044602174722
aF-56.29276851950988
aF3.8395358390354204
aF25.197566779846284
aF398.3077572426894
aF565.2931956797095
aF2229.7471102445134
asg5
F1.0
sg6
F0.2357069050205018
sg7
I113
sg8
F0.9416661759536804
sg9
F2.5672339969626226
sg10
F0.14460226339348867
sg11
F0.025639749144598857
saF-153.02367870222167
aa(lp87
(dp88
g3
(lp89
F-294.9161811644509
aF53.048373316859625
aF79.84149189835648
aF196.95174824778246
aF326.69109358689525
aF642.2371084035344
aF989.9375103685684
asg5
F0.7009601881909493
sg6
F0.1475811493342425
sg7
I120
sg8
F0.643664773720388
sg9
F1.6049555513706968
sg10
F0.1471584073037749
sg11
F0.08512722798003927
saF-162.0263159492348
aa(lp90
(dp91
g3
(lp92
F-192.17841270002418
aF-147.04981625931214
aF166.7228676842924
aF257.3715000087941
aF338.52824002408533
aF732.0724848514249
aF1536.7674698769029
asg5
F0.567598077014698
sg6
F0.09611961123611679
sg7
I114
sg8
F0.44292541678521696
sg9
F4.566235789557828
sg10
F0.1032329505509253
sg11
F0.24790683354186657
saF-172.50536127504392
aa(lp93
(dp94
g3
(lp95
F-324.09324537245527
aF-117.93676982191266
aF264.75077609187497
aF298.15181029574205
aF429.3400488980617
aF531.525634896281
aF1321.4129521669652
asg5
F0.740485889568203
sg6
F0.14908604633452976
sg7
I53
sg8
F0.05239823980498548
sg9
F1.933406149923611
sg10
F0.19319289554283395
sg11
F0.1696972168339635
saF-177.27923910249297
aa(lp96
(dp97
g3
(lp98
F-98.01842409280027
aF-68.16520160151515
aF-16.5834287700103
aF53.80200632194851
aF182.8327799378235
aF331.5399437156966
aF1633.736157139696
asg5
F0.7627727749151754
sg6
F0.19255795219179617
sg7
I113
sg8
F0.5182361334266604
sg9
F3.6704803584590167
sg10
F0.018371034395626373
sg11
F0.10736178921985387
saF-182.76705446432572
aa(lp99
(dp100
g3
(lp101
F-174.7855562288869
aF-24.68847009267847
aF5.089804017424058
aF62.1970134036178
aF242.24372989584617
aF356.8890982424175
aF1816.702048287942
asg5
F1.0
sg6
F0.4641622504862811
sg7
I135
sg8
F0.8011278801091639
sg9
F3.894387878038682
sg10
F0.19666514027828694
sg11
F0.04538363680765927
saF-194.3842223041413
aa(lp102
(dp103
g3
(lp104
F-138.89276008389027
aF-79.98468862998106
aF17.981400851430294
aF198.39859922951223
aF325.21399826379434
aF325.2466635966198
aF1617.3475221930325
asg5
F1.0
sg6
F0.15869541840081708
sg7
I112
sg8
F0.6747481378936823
sg9
F3.8166698784718136
sg10
F0.08297195507208313
sg11
F0.06130662315908278
saF-200.89604786244104
aa(lp105
(dp106
g3
(lp107
F-255.5507882032266
aF-51.64252926606946
aF98.09689314822549
aF155.68682195741667
aF341.7296461001654
aF588.3044635698836
aF1609.3096499286244
asg5
F0.6751101322156088
sg6
F0.09611961123611679
sg7
I113
sg8
F0.44292541678521696
sg9
F4.543579471074436
sg10
F0.060801992473275834
sg11
F0.1637009513037232
saF-209.09642432107057
aa(lp108
(dp109
g3
(lp110
F-360.3596602237458
aF70.6470152222737
aF77.74527186894966
aF107.90439877258086
aF304.1264273563711
aF762.256891921443
aF2274.441099456699
asg5
F0.8530814115704797
sg6
F0.14908604633452976
sg7
I55
sg8
F0.19940896350350734
sg9
F1.933406149923611
sg10
F0.0297132903404963
sg11
F0.06328001150239952
saF-211.96737313252243
aa(lp111
(dp112
g3
(lp113
F-328.02608530138207
aF48.04499298052019
aF58.95741647967634
aF119.16794910407998
aF284.706018079474
aF523.5122572953333
aF1495.8988240093354
asg5
F0.8343222993672006
sg6
F0.2357069050205018
sg7
I119
sg8
F0.7926654748370342
sg9
F1.6049555513706968
sg10
F0.1458803353486318
sg11
F0.05496332678717937
saF-221.02367584118554
aa(lp114
(dp115
g3
(lp116
F-164.56581382341642
aF-73.58384150302777
aF12.483298263732422
aF83.40350781741631
aF149.39088137806993
aF484.3365378894366
aF2445.4627616393263
asg5
F0.8991003619046614
sg6
F0.3524119016360917
sg7
I112
sg8
F0.6918719130230638
sg9
F3.894387878038682
sg10
F0.10406980217868159
sg11
F0.04538363680765927
saF-225.66635706271177
aa(lp117
(dp118
g3
(lp119
F-201.51652603103707
aF-133.1625425863666
aF100.92209439830162
aF129.78954655629673
aF444.193136938188
aF453.73668408128447
aF1423.6062172089855
asg5
F1.0
sg6
F0.12753152621015323
sg7
I130
sg8
F0.7317670409141999
sg9
F4.520923152591044
sg10
F0.030690252537551223
sg11
F0.0874695799066621
saF-233.75697421910206
aa(lp120
(dp121
g3
(lp122
F-112.16435453235692
aF-70.64219912959538
aF-64.3567750060937
aF247.66474036124714
aF420.3991575207947
aF902.4475060714085
aF1073.2354923099324
asg5
F0.5511549272702415
sg6
F0.09034820629430113
sg7
I140
sg8
F0.378651467331928
sg9
F3.238140895445666
sg10
F0.13688141164668052
sg11
F0.11063192784227312
saF-247.163328668046
aa(lp123
(dp124
g3
(lp125
F-114.88320504185378
aF-77.0598128797186
aF-58.78131530406745
aF-35.397431186097265
aF22.124772045417103
aF349.9264189194955
aF1913.2245187102776
asg5
F0.7826221874165196
sg6
F0.16732022111219924
sg7
I113
sg8
F0.722373412576151
sg9
F4.520923152591044
sg10
F0.018371034395626373
sg11
F0.07949506906557985
saF-250.72433322563984
aa(lp126
(dp127
g3
(lp128
F-109.87904616182573
aF-94.22043820556314
aF-49.38437952829213
aF-30.37731084287998
aF160.16819665958155
aF204.0094610490969
aF551.3446166705942
asg5
F0.9888136105307255
sg6
F0.39613451854556875
sg7
I125
sg8
F0.09234661185686677
sg9
F1.6097191949237104
sg10
F0.16484754921633682
sg11
F0.3787188002075874
saF-253.483863895681
aa(lp129
(dp130
g3
(lp131
F-156.6294246136032
aF-85.64065498511752
aF-14.490750233994959
aF371.1979426983137
aF490.4056844922354
aF837.4085967774756
aF1651.0830822022253
asg5
F0.567598077014698
sg6
F0.08158175456317177
sg7
I121
sg8
F0.36933927059601923
sg9
F2.109988127375393
sg10
F0.04093739178443179
sg11
F0.11529112917289917
saF-256.7608298327157
aa(lp132
(dp133
g3
(lp134
F-251.25403502138136
aF-18.185699491727064
aF10.246807659779734
aF27.969574738867323
aF108.60563147503763
aF220.5070238913495
aF1418.4061747289252
asg5
F1.0
sg6
F0.41091175808995667
sg7
I95
sg8
F0.9624652091911141
sg9
F2.933709236523817
sg10
F0.13524866865191587
sg11
F0.06780368126623518
saF-259.1929268533287
aa(lp135
(dp136
g3
(lp137
F-187.52694349589433
aF-56.466438133434735
aF-23.402096094850094
aF143.1830179389176
aF252.4732080026572
aF367.88404556782825
aF1572.6690863776994
asg5
F0.6662010948831947
sg6
F0.31062283088279125
sg7
I87
sg8
F0.34730861315327066
sg9
F1.7021031943428562
sg10
F0.04776849286197993
sg11
F0.045037147211358965
saF-267.39547772417916
aa(lp138
(dp139
g3
(lp140
F-408.0240270599752
aF-34.42013337531216
aF167.75748105338926
aF169.8804507360819
aF314.90658468228526
aF861.7612061232214
aF1222.231229876339
asg5
F1.0
sg6
F0.06766043574112252
sg7
I44
sg8
F0.7780141244543651
sg9
F3.623167120025188
sg10
F0.01625632495958882
sg11
F0.09746737633765538
saF-274.6866793818981
aa(lp141
(dp142
g3
(lp143
F-351.545770650937
aF-192.01420059188774
aF254.5872873134249
aF332.78077496296555
aF337.3812039689276
aF396.74076522494624
aF898.4806434363957
asg5
F0.5903724774748424
sg6
F0.06414475528573377
sg7
I149
sg8
F0.22402201247531883
sg9
F3.423566592112678
sg10
F0.007587994597257297
sg11
F0.36514977638821516
saF-288.97268392939986
aa(lp144
(dp145
g3
(lp146
F-518.0328463297553
aF55.35951740273026
aF168.02321148685587
aF196.1592986810515
aF228.74502993130318
aF269.6232675686415
aF1572.575942210297
asg5
F0.8530814115704797
sg6
F0.06766043574112252
sg7
I44
sg8
F0.2567539088903386
sg9
F3.162017109736715
sg10
F0.0297132903404963
sg11
F0.09925426043826371
saF-294.6501174401692
aa(lp147
(dp148
g3
(lp149
F-351.20485965440264
aF-144.71854810249727
aF194.7346877633613
aF416.9432189910449
aF437.9242292454144
aF528.0466153472321
aF750.4889212738606
asg5
F0.5903724774748424
sg6
F0.06766043574112252
sg7
I149
sg8
F0.22402201247531883
sg9
F3.423566592112678
sg10
F0.006176738119444947
sg11
F0.1352285093741279
saF-301.1887199935386
aa(lp150
(dp151
g3
(lp152
F-257.81182014842375
aF-105.30648525987908
aF56.037489750676514
aF81.93265061331795
aF118.56328981955312
aF383.51163977422016
aF1158.4957944507678
asg5
F1.0
sg6
F0.28235358351980483
sg7
I50
sg8
F0.6950125597527933
sg9
F1.6473216846409335
sg10
F0.011864411933802678
sg11
F0.029842098788342587
saF-307.0808156576263
aa(lp153
(dp154
g3
(lp155
F-116.73429195256381
aF-113.1397821629057
aF-79.88771902576843
aF284.8737127502445
aF385.1303347948094
aF465.6033223821362
aF1124.1240502958394
asg5
F0.9888136105307255
sg6
F0.24324136241993494
sg7
I125
sg8
F0.23549903959439739
sg9
F1.6097191949237104
sg10
F0.13688141164668052
sg11
F0.11063192784227312
saF-309.76179314123794
aa(lp156
(dp157
g3
(lp158
F-334.5002733757235
aF-67.9252253929368
aF89.6699929471913
aF155.41270835439695
aF167.63889393982777
aF187.5335411724434
aF1617.7682441699908
asg5
F1.0
sg6
F0.2406615527859023
sg7
I89
sg8
F0.6918719130230638
sg9
F3.9378518538562473
sg10
F0.10406980217868159
sg11
F0.04279907208833973
saF-312.755505821469
aa(lp159
(dp160
g3
(lp161
F-234.9009289656541
aF173.68273633040553
aF185.68083842537612
aF338.2827261702273
aF624.682725183412
aF771.0662245941794
aF1784.2560781652255
asg5
F0.8600455939082039
sg6
F0.0231634416751611
sg7
I107
sg8
F0.5165115629744147
sg9
F3.3798307400073426
sg10
F0.07452252829352872
sg11
F0.23852630367455474
saF124.46264579012757
aa(lp162
(dp163
g3
(lp164
F-117.39439891783809
aF43.44590693331793
aF82.49860435114329
aF99.13537164364993
aF260.60972388885193
aF706.6639721614397
aF1341.466924574514
asg5
F1.0
sg6
F0.08431387663073642
sg7
I114
sg8
F0.7244724350756934
sg9
F2.4778636766484037
sg10
F0.13773979134076292
sg11
F0.3761730729172017
saF8.550112366623125
aa(lp165
(dp166
g3
(lp167
F-449.6830196640683
aF-358.558206440846
aF-112.78424532701854
aF-111.50629715719697
aF467.4701378605705
aF474.6745575274515
aF567.3404234593129
asg5
F0.9888136105307255
sg6
F0.39613451854556875
sg7
I89
sg8
F0.6918719130230638
sg9
F1.6097191949237104
sg10
F0.16484754921633682
sg11
F0.21075893614796357
saF-921.0254714319328
aa(lp168
(dp169
g3
(lp170
F-381.5719964289567
aF-83.36218852188063
aF-61.52689303565637
aF216.16206298718157
aF307.8181048073643
aF309.2359664020662
aF1534.0401189512777
asg5
F0.8600455939082039
sg6
F0.1967893961233605
sg7
I107
sg8
F0.5165115629744147
sg9
F4.245405604505838
sg10
F0.07450888200880938
sg11
F0.24790683354186657
saF-526.4610779864937
aa(lp171
(dp172
g3
(lp173
F-284.01873019915195
aF2.245995606456063
aF59.02024092474062
aF139.6109640340253
aF500.08619880502556
aF716.2886058521694
aF2018.6551694136015
asg5
F0.9050853738779299
sg6
F0.24324136241993494
sg7
I112
sg8
F0.7940606453765056
sg9
F1.6097191949237104
sg10
F0.13688141164668052
sg11
F0.11063192784227312
saF-222.75249366795526
aa(lp174
(dp175
g3
(lp176
F-238.22395818804762
aF202.27838621415913
aF206.65064511011428
aF383.21600426602186
aF488.92544359147973
aF555.1419468021222
aF1539.3417845725594
asg5
F1.0
sg6
F0.04497501058813225
sg7
I103
sg8
F0.7780141244543651
sg9
F4.721777126622241
sg10
F0.0601630635691352
sg11
F0.05970624330118288
saF170.7050731362258
aa(lp177
(dp178
g3
(lp179
F-228.4643966327617
aF-103.32277313955603
aF-96.00736698276194
aF-84.44791241992561
aF139.55095383225216
aF647.446983481901
aF1476.4052655632995
asg5
F0.9755128415607299
sg6
F0.44387090458578643
sg7
I118
sg8
F0.5147798424854515
sg9
F1.3868985760533465
sg10
F0.13688141164668052
sg11
F0.17457911575841392
saF-427.79453675507966
aa(lp180
(dp181
g3
(lp182
F-146.39538065629665
aF-132.4518496760246
aF-44.07695623569259
aF281.16852258489075
aF294.52057310181544
aF454.05618411660635
aF588.4307593663918
asg5
F0.9906742164603732
sg6
F0.14908604633452976
sg7
I146
sg8
F0.7921813556898715
sg9
F2.1994039730156
sg10
F0.060959713443835044
sg11
F0.06328001150239952
saF-322.92418656801385
aa(lp183
(dp184
g3
(lp185
F-528.8926722293162
aF-95.18754818480602
aF-32.58969968561371
aF8.715159530004712
aF492.7237433648945
aF605.8706267943699
aF1323.809486770076
asg5
F0.9888136105307255
sg6
F0.06414475528573377
sg7
I125
sg8
F0.09234661185686677
sg9
F1.6097191949237104
sg10
F0.007587994597257297
sg11
F0.3719342882979013
saF-656.6699200997359
aa(lp186
(dp187
g3
(lp188
F-135.4073047470025
aF80.56600413724641
aF143.24229773576803
aF294.21281366188487
aF376.3363894341078
aF575.1345062159307
aF1605.9843883559247
asg5
F0.7904838980310376
sg6
F0.1475811493342425
sg7
I117
sg8
F0.643664773720388
sg9
F1.6049555513706968
sg10
F0.1471584073037749
sg11
F0.05496332678717937
saF88.40099712601193
aa(lp189
(dp190
g3
(lp191
F-478.50621864096377
aF-147.82144948840096
aF-95.07696036262587
aF139.45123749997583
aF296.81763513400256
aF506.66904850248875
aF1818.0389490957405
asg5
F1.0
sg6
F0.17500700963046367
sg7
I44
sg8
F0.7365133421035792
sg9
F1.6473216846409335
sg10
F0.011864411933802678
sg11
F0.09746737633765538
saF-721.4046284919906
aa(lp192
(dp193
g3
(lp194
F-114.88320504185378
aF-77.0598128797186
aF-58.78131530406745
aF-35.397431186097265
aF22.124772045417103
aF349.9264189194955
aF1913.2245187102776
asg5
F0.7826221874165196
sg6
F0.16732022111219924
sg7
I113
sg8
F0.722373412576151
sg9
F4.520923152591044
sg10
F0.02965421309002908
sg11
F0.07949506906557985
saF-250.72433322563984
aa(lp195
(dp196
g3
(lp197
F-419.7646723382426
aF-275.36525151394267
aF-175.22171163789608
aF-131.0230724227706
aF91.0321114771125
aF599.5038653237436
aF750.7495702193755
asg5
F1.0
sg6
F0.27423806355850877
sg7
I123
sg8
F0.7379380090014231
sg9
F3.894387878038682
sg10
F0.16249315782801893
sg11
F0.29438040464875936
saF-870.3516354900813
aa(lp198
(dp199
g3
(lp200
F-146.92353196899853
aF-18.911817847088628
aF144.97997415656027
aF175.4439404843431
aF232.8602201845565
aF315.03093011483793
aF1678.8771765081074
asg5
F0.8991003619046614
sg6
F0.43225794104587645
sg7
I140
sg8
F0.7263854699772595
sg9
F2.4654017961075883
sg10
F0.09220613654717379
sg11
F0.047419958715996025
saF-20.855375659526885
aa(lp201
(dp202
g3
(lp203
F-141.96895300152732
aF-99.35871463081321
aF43.62672307637308
aF107.19574243580723
aF175.39711430460102
aF507.5439343073772
aF2109.070861675597
asg5
F1.0
sg6
F0.40035363160547177
sg7
I146
sg8
F0.7108394490873766
sg9
F2.4654017961075883
sg10
F0.09220613654717379
sg11
F0.05733478504418113
saF-197.70094455596745
aa(lp204
(dp205
g3
(lp206
F-216.54710624171207
aF-69.27018763054434
aF34.94791048754064
aF406.5432526744571
aF593.297333286723
aF635.7084773118772
aF1139.420531334465
asg5
F1.0
sg6
F0.038231588134949424
sg7
I121
sg8
F0.7940606453765056
sg9
F2.109988127375393
sg10
F0.07452252829352872
sg11
F0.23172386642754506
saF-250.86938338471577
aa(lp207
(dp208
g3
(lp209
F-149.72750342546078
aF15.433042916048521
aF51.585608475378876
aF78.11721166965594
aF227.6543480343753
aF435.82889203733794
aF1549.5927429536664
asg5
F1.0
sg6
F0.40035363160547177
sg7
I146
sg8
F0.7921813556898715
sg9
F2.4654017961075883
sg10
F0.09220613654717379
sg11
F0.047419958715996025
saF-82.70885203403338
aa(lp210
(dp211
g3
(lp212
F-383.9793397977845
aF-192.36864842204932
aF-174.9399740542392
aF-2.120617280493775
aF76.01685169655525
aF353.0240384798333
aF1062.422569304364
asg5
F0.9256929163750509
sg6
F0.17963361758930277
sg7
I114
sg8
F0.7485760047270313
sg9
F2.5479001791004006
sg10
F0.14181142649120024
sg11
F0.3777289523818588
saF-751.287962274073
aa(lp213
(dp214
g3
(lp215
F-109.09688095879301
aF-36.6028902174445
aF45.89334406021908
aF238.64336699075648
aF490.9812983181473
aF866.9015812109344
aF1550.1260473414313
asg5
F1.0
sg6
F0.08288155717255133
sg7
I130
sg8
F0.7629138431453527
sg9
F3.783120362976942
sg10
F0.05260639041553997
sg11
F0.2178130917944265
saF-99.80642711601843
aa(lp216
(dp217
g3
(lp218
F-312.80104012616766
aF-187.88354377424162
aF310.94062631815495
aF359.3792505339525
aF401.4425217232981
aF1012.2756207936272
aF1217.579365862267
asg5
F0.9962837556835561
sg6
F0.06095738718469898
sg7
I132
sg8
F0.562959004516969
sg9
F4.394898380270252
sg10
F0.007587994597257297
sg11
F0.36514977638821516
saF-189.74395758225432
aa(lp219
(dp220
g3
(lp221
F-483.3041929122036
aF-262.344589456854
aF-105.09558583637443
aF45.695847446097105
aF46.93919653708804
aF368.10106972630115
aF1167.7549567434994
asg5
F1.0
sg6
F0.4641622504862811
sg7
I135
sg8
F0.9018959965586191
sg9
F1.8500307852273752
sg10
F0.16887244982979835
sg11
F0.14446223159433993
saF-850.744368205432
aa(lp222
(dp223
g3
(lp224
F-113.3293905167053
aF-98.10327728442996
aF-6.548565798275831
aF11.019972280836896
aF127.6073122247667
aF275.3099485966127
aF1637.2794516590907
asg5
F0.6651854259649367
sg6
F0.19255795219179617
sg7
I113
sg8
F0.4437877020113398
sg9
F3.6704803584590167
sg10
F0.04093739178443179
sg11
F0.11132645919637651
saF-217.9812335994111
aa(lp225
(dp226
g3
(lp227
F-101.9681574922821
aF-17.792661989714816
aF30.829833148605303
aF82.27123906592237
aF332.594905121342
aF582.5781720459745
aF1632.628511501945
asg5
F0.8019896623208269
sg6
F0.10277590462357433
sg7
I112
sg8
F0.7940606453765056
sg9
F4.520923152591044
sg10
F0.04644678134457755
sg11
F0.07949506906557985
saF-88.93098633339162
aa(lp228
(dp229
g3
(lp230
F-159.95467061448778
aF-129.4363522456158
aF29.549158350673906
aF78.54232580253415
aF144.53229775309205
aF517.1715982411852
aF1754.6141221074495
asg5
F1.0
sg6
F0.4641622504862811
sg7
I114
sg8
F0.6605895842646475
sg9
F3.894387878038682
sg10
F0.10646073261893788
sg11
F0.05970624330118288
saF-259.8418645094297
aa(lp231
(dp232
g3
(lp233
F-187.24170262160817
aF-121.93493394570623
aF22.759087592761375
aF41.03614732903543
aF103.70758754717735
aF281.6113453189746
aF2216.8830867112365
asg5
F0.7009601881909493
sg6
F0.1475811493342425
sg7
I113
sg8
F0.643664773720388
sg9
F3.0629393519808703
sg10
F0.1471584073037749
sg11
F0.08231114852280956
saF-286.41754897455303
aa(lp234
(dp235
g3
(lp236
F-250.7797549621564
aF130.8982335605549
aF138.26385479013788
aF324.545842499183
aF355.8291462368279
aF641.4497617392749
aF1892.2727340336928
asg5
F0.7244116411498571
sg6
F0.19869345611211198
sg7
I112
sg8
F0.6508859438396843
sg9
F1.7021031943428562
sg10
F0.07591914752033076
sg11
F0.07358791160392249
saF18.38233338853638
aa(lp237
(dp238
g3
(lp239
F-333.01190891763395
aF-111.09492545330295
aF-40.99944529226332
aF111.57421142078897
aF122.52627363243732
aF848.3909284127174
aF1012.3258121896292
asg5
F0.9628464581875255
sg6
F0.099706642867155
sg7
I127
sg8
F0.49822234520372666
sg9
F2.1615591536434744
sg10
F0.14181142649120024
sg11
F0.2286120107237193
saF-485.1062796632002
aa(lp240
(dp241
g3
(lp242
F-122.73785550989987
aF-111.97907577294018
aF223.324806309613
aF253.93591998884062
aF514.1019056386797
aF660.372154570802
aF1075.2064404723951
asg5
F0.5903724774748424
sg6
F0.2406615527859023
sg7
I119
sg8
F0.22402201247531883
sg9
F3.6807092229844627
sg10
F0.006176738119444947
sg11
F0.04279907208833973
saF-11.392124973227055
aa(lp243
(dp244
g3
(lp245
F-250.82389337325924
aF-117.64392515534826
aF-65.4232141071235
aF98.13569943591892
aF214.00576782659368
aF265.254055856017
aF441.38546450122794
asg5
F0.8213571372251341
sg6
F0.038231588134949424
sg7
I14
sg8
F0.722373412576151
sg9
F3.397780154434116
sg10
F0.018371034395626373
sg11
F0.07040084611233131
saF-433.891032635731
aa(lp246
(dp247
g3
(lp248
F-170.37475070412938
aF-60.018345965887534
aF76.58774861702773
aF378.44498704757893
aF540.2525865077571
aF854.0707511089795
aF1071.0492572867079
asg5
F0.6168995859489463
sg6
F0.08158175456317177
sg7
I104
sg8
F0.35832394187464495
sg9
F2.109988127375393
sg10
F0.04435294232320586
sg11
F0.11529112917289917
saF-153.8053480529892
aa(lp249
(dp250
g3
(lp251
F-355.1179136029649
aF241.41990799839232
aF256.34871645684007
aF370.952090601294
aF745.3224155258731
aF966.7823677346378
aF1893.746349075578
asg5
F0.7147073879875869
sg6
F0.006855333542513831
sg7
I107
sg8
F0.6608958297027068
sg9
F4.245405604505838
sg10
F0.07450888200880938
sg11
F0.24790683354186657
saF142.65071085226748
aa(lp252
(dp253
g3
(lp254
F-175.30041937923363
aF-111.44723816679323
aF-103.98933738954554
aF-28.70046997365091
aF176.27076870986457
aF671.159846593571
aF1474.9356944081537
asg5
F0.7627727749151754
sg6
F0.19255795219179617
sg7
I130
sg8
F0.6250015871704302
sg9
F3.6704803584590167
sg10
F0.0245306434665888
sg11
F0.0874695799066621
saF-390.7369949355724
aa(lp255
(dp256
g3
(lp257
F-363.4040690241793
aF-277.40465581168155
aF-188.11547909149488
aF-127.55478235865166
aF127.95903124641882
aF375.4165943791106
aF1696.593272631122
asg5
F0.823732048213264
sg6
F0.39613451854556875
sg7
I125
sg8
F0.40736001221650886
sg9
F2.5127243818923
sg10
F0.018371034395626373
sg11
F0.22910693463658363
saF-828.9242039273557
aa(lp258
(dp259
g3
(lp260
F-247.57263553546989
aF-112.12604227917052
aF35.73817133044167
aF129.26062161183359
aF276.0991049063455
aF656.4222592157012
aF904.9728496655648
asg5
F1.0
sg6
F0.2405235198159584
sg7
I50
sg8
F0.6950125597527933
sg9
F1.6473216846409335
sg10
F0.10406980217868159
sg11
F0.07358791160392249
saF-323.96050648419873
aa(lp261
(dp262
g3
(lp263
F-204.35000618021127
aF-74.1641881905515
aF73.60363213443566
aF115.6028054835067
aF265.82299033816844
aF392.05667188900384
aF2097.49081565983
asg5
F1.0
sg6
F0.4641622504862811
sg7
I112
sg8
F0.6747481378936823
sg9
F3.8555288782552477
sg10
F0.13981854767518503
sg11
F0.04538363680765927
saF-204.9105622363271
aa(lp264
(dp265
g3
(lp266
F-215.75929617243196
aF-70.5175834046288
aF-11.866115917373236
aF186.82721170129207
aF386.64583468237356
aF835.0489168880429
aF1406.6737965617685
asg5
F0.5384615006099001
sg6
F0.08158175456317177
sg7
I117
sg8
F0.36933927059601923
sg9
F4.566235789557828
sg10
F0.1032329505509253
sg11
F0.18159898135738287
saF-298.142995494434
aa(lp267
(dp268
g3
(lp269
F-186.52177501752567
aF64.27304705743927
aF232.48127955706764
aF305.8551339966368
aF409.23108987680166
aF552.9302719015138
aF1308.033699914106
asg5
F1.0
sg6
F0.07054731091212452
sg7
I115
sg8
F0.5768824329362968
sg9
F2.6140613356979423
sg10
F0.01625632495958882
sg11
F0.05733478504418113
saF110.23255159698124
aa(lp270
(dp271
g3
(lp272
F-232.9240310673831
aF-24.630056969789052
aF-1.9728910573132907
aF38.89523660550549
aF119.54941855771153
aF135.28599968198864
aF1396.0241527036642
asg5
F0.9888136105307255
sg6
F0.4035231383177627
sg7
I95
sg8
F0.9624652091911141
sg9
F2.933709236523817
sg10
F0.16484754921633682
sg11
F0.06780368126623518
saF-259.52697909448545
aa(lp273
(dp274
g3
(lp275
F-291.7841754974869
aF-269.87324876830394
aF-98.07200485298313
aF-67.65466115066738
aF-46.03711527560381
aF291.04263094409043
aF788.6548313599594
asg5
F0.7982007238093227
sg6
F0.4641622504862811
sg7
I135
sg8
F0.4972857394980167
sg9
F3.0656410432323553
sg10
F0.0022516260762114994
sg11
F0.360030655535078
saF-659.729429118774
aa(lp276
(dp277
g3
(lp278
F-104.93407571215857
aF48.422861363939546
aF129.13742445946718
aF262.7941111918601
aF293.6290676185072
aF371.61517555708565
aF1598.3626684022097
asg5
F0.8783289641687364
sg6
F0.1174627029266253
sg7
I112
sg8
F0.6464131559140103
sg9
F3.8738083890072517
sg10
F0.04116112645658426
sg11
F0.07358791160392249
saF72.62621011124816
aa(lp279
(dp280
g3
(lp281
F-371.0126092013153
aF-178.83973803272954
aF-174.58057265996263
aF122.06675274126064
aF243.9175246916218
aF492.84446456718183
aF1057.3370994240668
asg5
F0.7782058437727117
sg6
F0.24324136241993494
sg7
I125
sg8
F0.3392122281898072
sg9
F3.087977492240769
sg10
F0.12005718109880291
sg11
F0.24790683354186657
saF-724.4329198940075
aa(lp282
(dp283
g3
(lp284
F-212.25743703217086
aF57.04244297957598
aF309.84923938681595
aF460.8757066853309
aF523.4615213528714
aF1047.7781783599214
aF2012.5519559943805
asg5
F0.8213571372251341
sg6
F0.038231588134949424
sg7
I112
sg8
F0.7940606453765056
sg9
F3.783120362976942
sg10
F0.056072631529972015
sg11
F0.06130662315908278
saF154.63424533422108
aa(lp285
(dp286
g3
(lp287
F-562.7407740562501
aF-153.4183595033677
aF-100.41878361853321
aF92.78393568822207
aF259.8182882974809
aF582.4491222323506
aF1737.7340691603995
asg5
F1.0
sg6
F0.08431387663073642
sg7
I78
sg8
F0.2567539088903386
sg9
F3.3507718019261103
sg10
F0.07901723285912363
sg11
F0.09925426043826371
saF-816.577917178151
aa(lp288
(dp289
g3
(lp290
F-354.9102798281557
aF-140.10725765993197
aF-86.63439958185631
aF-29.9057856473014
aF219.785320959724
aF501.573682605125
aF1172.6846984476342
asg5
F0.9062728293719947
sg6
F0.19255795219179617
sg7
I119
sg8
F0.722373412576151
sg9
F3.4157295688608897
sg10
F0.018371034395626373
sg11
F0.11063192784227312
saF-581.651937069944
aa(lp291
(dp292
g3
(lp293
F-115.5132433578026
aF79.55437959365736
aF146.83832925678212
aF184.34037526773227
aF393.0514072781575
aF508.239308531226
aF1885.5201962235342
asg5
F0.9256929163750509
sg6
F0.06766043574112252
sg7
I116
sg8
F0.7780141244543651
sg9
F3.623167120025188
sg10
F0.01625632495958882
sg11
F0.23759816435975709
saF110.87946549263688
aa(lp294
(dp295
g3
(lp296
F-234.78331644968182
aF-198.73289614030125
aF-153.0467381722798
aF-136.70237083394784
aF85.38909756942826
aF518.359723744212
aF1517.1910522401054
asg5
F0.823732048213264
sg6
F0.32836010133903865
sg7
I124
sg8
F0.722373412576151
sg9
F3.4157295688608897
sg10
F0.018371034395626373
sg11
F0.07949506906557985
saF-586.5629507622629
aa(lp297
(dp298
g3
(lp299
F-244.37387010842997
aF-139.0349363714721
aF-138.74543585783533
aF3.346132737716516
aF265.95819041938876
aF722.6186157772088
aF1527.0762384735212
asg5
F0.7951862387374212
sg6
F0.23752825668784522
sg7
I149
sg8
F0.5932436108332164
sg9
F3.1786379143182475
sg10
F0.07141833162458658
sg11
F0.06780368126623518
saF-522.1542423377374
aa(lp300
(dp301
g3
(lp302
F-369.0621297608211
aF-9.826109035592367
aF68.65583729579703
aF224.70766177810765
aF382.01904530813385
aF808.5442258635719
aF863.7798224971045
asg5
F0.8213571372251341
sg6
F0.06766043574112252
sg7
I112
sg8
F0.2567539088903386
sg9
F3.162017109736715
sg10
F0.05211790931701251
sg11
F0.1688902820564092
saF-310.23240150061645
aa(lp303
(dp304
g3
(lp305
F-172.93285889998162
aF184.48426113679147
aF198.61900424656596
aF328.40455543103894
aF479.201377142806
aF1000.6467307855219
aF1823.309757297176
asg5
F0.9106785686125671
sg6
F0.038231588134949424
sg7
I112
sg8
F0.7940606453765056
sg9
F3.4157295688608897
sg10
F0.13688141164668052
sg11
F0.3481566036821909
saF210.1704064833758
aa(lp306
(dp307
g3
(lp308
F-321.5688074080433
aF-129.73589260178176
aF118.23866785854466
aF205.3995225217418
aF212.63222251553157
aF727.9344365891443
aF2007.7113516390227
asg5
F0.7982007238093227
sg6
F0.4641622504862811
sg7
I44
sg8
F0.2567539088903386
sg9
F3.894387878038682
sg10
F0.11318921530939162
sg11
F0.04538363680765927
saF-333.0660321512804
aa.